---
triple:          'arm64-apple-darwin'
binary-path:     project5
relocations:
  - { offsetInCU: 0x5C, offset: 0x5C, size: 0x8, addend: 0x0, symName: __ZNSt3__119piecewise_constructE, symObjAddr: 0x3D62E, symBinAddr: 0x100041E7E, symSize: 0x0 }
  - { offsetInCU: 0x1A29D, offset: 0x1A29D, size: 0x8, addend: 0x0, symName: __ZNSt3__17advanceB8ue170006IP9ParameterllvEEvRT_T0_, symObjAddr: 0xF8D0, symBinAddr: 0x100012E9C, symSize: 0x38 }
  - { offsetInCU: 0x1C47C, offset: 0x1C47C, size: 0x8, addend: 0x0, symName: __ZNSt3__17advanceB8ue170006INS_21__tree_const_iteratorINS_12basic_stringIcNS_11char_traitsIcEENS_9allocatorIcEEEEPNS_11__tree_nodeIS7_PvEElEEllvEEvRT_T0_, symObjAddr: 0x143F0, symBinAddr: 0x1000179BC, symSize: 0x38 }
  - { offsetInCU: 0x24E44, offset: 0x24E44, size: 0x8, addend: 0x0, symName: __ZNSt3__17advanceB8ue170006IP9PredicatellvEEvRT_T0_, symObjAddr: 0x15870, symBinAddr: 0x100018E3C, symSize: 0x38 }
  - { offsetInCU: 0x24EAF, offset: 0x24EAF, size: 0x8, addend: 0x0, symName: __ZNSt3__17advanceB8ue170006IP4RulellvEEvRT_T0_, symObjAddr: 0x15F84, symBinAddr: 0x100019550, symSize: 0x38 }
  - { offsetInCU: 0x2565E, offset: 0x2565E, size: 0x8, addend: 0x0, symName: __ZNSt3__17advanceB8ue170006INS_21__tree_const_iteratorI5TuplePNS_11__tree_nodeIS2_PvEElEEllvEEvRT_T0_, symObjAddr: 0x1C638, symBinAddr: 0x10001FC04, symSize: 0x38 }
  - { offsetInCU: 0x29854, offset: 0x29854, size: 0x8, addend: 0x0, symName: __ZNSt3__17advanceB8ue170006INS_21__tree_const_iteratorINS_12__value_typeIi4NodeEEPNS_11__tree_nodeIS4_PvEElEEllvEEvRT_T0_, symObjAddr: 0x226F0, symBinAddr: 0x100025CBC, symSize: 0x38 }
  - { offsetInCU: 0x298E5, offset: 0x298E5, size: 0x8, addend: 0x0, symName: __ZNSt3__17advanceB8ue170006INS_21__tree_const_iteratorIiPNS_11__tree_nodeIiPvEElEEllvEEvRT_T0_, symObjAddr: 0x233C8, symBinAddr: 0x100026994, symSize: 0x38 }
  - { offsetInCU: 0x2AF1B, offset: 0x2AF1B, size: 0x8, addend: 0x0, symName: __ZNSt3__124__put_character_sequenceB8ue170006IcNS_11char_traitsIcEEEERNS_13basic_ostreamIT_T0_EES7_PKS4_m, symObjAddr: 0x2D0B4, symBinAddr: 0x100030680, symSize: 0x1EC }
  - { offsetInCU: 0x2D93A, offset: 0x2D93A, size: 0x8, addend: 0x0, symName: __ZNSt3__17advanceB8ue170006INS_21__tree_const_iteratorINS_12__value_typeINS_12basic_stringIcNS_11char_traitsIcEENS_9allocatorIcEEEEiEEPNS_11__tree_nodeIS9_PvEElEEllvEEvRT_T0_, symObjAddr: 0x33D4C, symBinAddr: 0x100037318, symSize: 0x38 }
  - { offsetInCU: 0x2D9CB, offset: 0x2D9CB, size: 0x8, addend: 0x0, symName: __ZNSt3__17advanceB8ue170006IPNS_12basic_stringIcNS_11char_traitsIcEENS_9allocatorIcEEEEllvEEvRT_T0_, symObjAddr: 0x34A18, symBinAddr: 0x100037FE4, symSize: 0x38 }
  - { offsetInCU: 0x2DA36, offset: 0x2DA36, size: 0x8, addend: 0x0, symName: __ZNSt3__17advanceB8ue170006INS_21__tree_const_iteratorINS_12__value_typeINS_12basic_stringIcNS_11char_traitsIcEENS_9allocatorIcEEEE8RelationEEPNS_11__tree_nodeISA_PvEElEEllvEEvRT_T0_, symObjAddr: 0x3640C, symBinAddr: 0x1000399D8, symSize: 0x38 }
  - { offsetInCU: 0x30E73, offset: 0x30E73, size: 0x8, addend: 0x0, symName: __ZNSt3__1lsB8ue170006IcNS_11char_traitsIcEENS_9allocatorIcEEEERNS_13basic_ostreamIT_T0_EES9_RKNS_12basic_stringIS6_S7_T1_EE, symObjAddr: 0x213C, symBinAddr: 0x100005708, symSize: 0x4C }
  - { offsetInCU: 0x30ECB, offset: 0x30ECB, size: 0x8, addend: 0x0, symName: __ZNSt3__1lsB8ue170006INS_11char_traitsIcEEEERNS_13basic_ostreamIcT_EES6_PKc, symObjAddr: 0x2188, symBinAddr: 0x100005754, symSize: 0x48 }
  - { offsetInCU: 0x30F11, offset: 0x30F11, size: 0x8, addend: 0x0, symName: __ZNSt3__14endlB8ue170006IcNS_11char_traitsIcEEEERNS_13basic_ostreamIT_T0_EES7_, symObjAddr: 0x21FC, symBinAddr: 0x1000057C8, symSize: 0x58 }
  - { offsetInCU: 0x30F67, offset: 0x30F67, size: 0x8, addend: 0x0, symName: __ZNSt3__118__constexpr_strlenB8ue170006EPKc, symObjAddr: 0x3FD0, symBinAddr: 0x10000759C, symSize: 0x24 }
  - { offsetInCU: 0x30F93, offset: 0x30F93, size: 0x8, addend: 0x0, symName: __ZNSt3__119__libcpp_deallocateB8ue170006EPvmm, symObjAddr: 0x4374, symBinAddr: 0x100007940, symSize: 0x60 }
  - { offsetInCU: 0x30FF8, offset: 0x30FF8, size: 0x8, addend: 0x0, symName: __ZNSt3__124__is_overaligned_for_newB8ue170006Em, symObjAddr: 0x43D4, symBinAddr: 0x1000079A0, symSize: 0x20 }
  - { offsetInCU: 0x31026, offset: 0x31026, size: 0x8, addend: 0x0, symName: __ZNSt3__127__do_deallocate_handle_sizeB8ue170006IJSt11align_val_tEEEvPvmDpT_, symObjAddr: 0x43F4, symBinAddr: 0x1000079C0, symSize: 0x30 }
  - { offsetInCU: 0x31079, offset: 0x31079, size: 0x8, addend: 0x0, symName: __ZNSt3__127__do_deallocate_handle_sizeB8ue170006IJEEEvPvmDpT_, symObjAddr: 0x4424, symBinAddr: 0x1000079F0, symSize: 0x28 }
  - { offsetInCU: 0x310B7, offset: 0x310B7, size: 0x8, addend: 0x0, symName: __ZNSt3__124__libcpp_operator_deleteB8ue170006IJPvSt11align_val_tEEEvDpT_, symObjAddr: 0x444C, symBinAddr: 0x100007A18, symSize: 0x2C }
  - { offsetInCU: 0x31100, offset: 0x31100, size: 0x8, addend: 0x0, symName: __ZNSt3__124__libcpp_operator_deleteB8ue170006IJPvEEEvDpT_, symObjAddr: 0x4478, symBinAddr: 0x100007A44, symSize: 0x24 }
  - { offsetInCU: 0x31168, offset: 0x31168, size: 0x8, addend: 0x0, symName: __ZNSt3__112__to_addressB8ue170006IKcEEPT_S3_, symObjAddr: 0x45A8, symBinAddr: 0x100007B74, symSize: 0x14 }
  - { offsetInCU: 0x311D0, offset: 0x311D0, size: 0x8, addend: 0x0, symName: __ZNSt3__112__to_addressB8ue170006I5TokenEEPT_S3_, symObjAddr: 0x4A8C, symBinAddr: 0x100008058, symSize: 0x14 }
  - { offsetInCU: 0x31205, offset: 0x31205, size: 0x8, addend: 0x0, symName: __ZNSt3__13maxB8ue170006ImEERKT_S3_S3_, symObjAddr: 0x4F40, symBinAddr: 0x10000850C, symSize: 0x2C }
  - { offsetInCU: 0x31248, offset: 0x31248, size: 0x8, addend: 0x0, symName: __ZNSt3__13minB8ue170006ImEERKT_S3_S3_, symObjAddr: 0x4F6C, symBinAddr: 0x100008538, symSize: 0x2C }
  - { offsetInCU: 0x31475, offset: 0x31475, size: 0x8, addend: 0x0, symName: __ZNSt3__13minB8ue170006ImNS_6__lessIvvEEEERKT_S5_S5_T0_, symObjAddr: 0x4FF8, symBinAddr: 0x1000085C4, symSize: 0x54 }
  - { offsetInCU: 0x31546, offset: 0x31546, size: 0x8, addend: 0x0, symName: __ZNSt3__120__throw_length_errorB8ue170006EPKc, symObjAddr: 0x50D8, symBinAddr: 0x1000086A4, symSize: 0x64 }
  - { offsetInCU: 0x3156F, offset: 0x3156F, size: 0x8, addend: 0x0, symName: __ZNSt3__13maxB8ue170006ImNS_6__lessIvvEEEERKT_S5_S5_T0_, symObjAddr: 0x521C, symBinAddr: 0x1000087E8, symSize: 0x54 }
  - { offsetInCU: 0x315C9, offset: 0x315C9, size: 0x8, addend: 0x0, symName: __ZNSt3__119__allocate_at_leastB8ue170006INS_9allocatorI5TokenEEEENS_19__allocation_resultINS_16allocator_traitsIT_E7pointerEEERS6_m, symObjAddr: 0x538C, symBinAddr: 0x100008958, symSize: 0x40 }
  - { offsetInCU: 0x3160C, offset: 0x3160C, size: 0x8, addend: 0x0, symName: __ZNSt3__117__libcpp_allocateB8ue170006Emm, symObjAddr: 0x5514, symBinAddr: 0x100008AE0, symSize: 0x60 }
  - { offsetInCU: 0x31666, offset: 0x31666, size: 0x8, addend: 0x0, symName: __ZNSt3__121__libcpp_operator_newB8ue170006IJmSt11align_val_tEEEPvDpT_, symObjAddr: 0x5574, symBinAddr: 0x100008B40, symSize: 0x2C }
  - { offsetInCU: 0x316B3, offset: 0x316B3, size: 0x8, addend: 0x0, symName: __ZNSt3__121__libcpp_operator_newB8ue170006IJmEEEPvDpT_, symObjAddr: 0x55A0, symBinAddr: 0x100008B6C, symSize: 0x24 }
  - { offsetInCU: 0x316EC, offset: 0x316EC, size: 0x8, addend: 0x0, symName: __ZNSt3__142__uninitialized_allocator_move_if_noexceptB8ue170006INS_9allocatorI5TokenEENS_16reverse_iteratorIPS2_EES6_S6_EET2_RT_T0_T1_S7_, symObjAddr: 0x56FC, symBinAddr: 0x100008CC8, symSize: 0x12C }
  - { offsetInCU: 0x3178C, offset: 0x3178C, size: 0x8, addend: 0x0, symName: __ZNSt3__14swapB8ue170006IP5TokenEENS_9enable_ifIXaasr21is_move_constructibleIT_EE5valuesr18is_move_assignableIS4_EE5valueEvE4typeERS4_S7_, symObjAddr: 0x5874, symBinAddr: 0x100008E40, symSize: 0x3C }
  - { offsetInCU: 0x317DD, offset: 0x317DD, size: 0x8, addend: 0x0, symName: __ZNSt3__122__make_exception_guardB8ue170006INS_29_AllocatorDestroyRangeReverseINS_9allocatorI5TokenEENS_16reverse_iteratorIPS3_EEEEEENS_28__exception_guard_exceptionsIT_EESA_, symObjAddr: 0x59C0, symBinAddr: 0x100008F8C, symSize: 0x4C }
  - { offsetInCU: 0x31813, offset: 0x31813, size: 0x8, addend: 0x0, symName: __ZNSt3__1neB8ue170006IP5TokenS2_EEbRKNS_16reverse_iteratorIT_EERKNS3_IT0_EE, symObjAddr: 0x5A50, symBinAddr: 0x10000901C, symSize: 0x48 }
  - { offsetInCU: 0x3185F, offset: 0x3185F, size: 0x8, addend: 0x0, symName: __ZNSt3__112__to_addressB8ue170006INS_16reverse_iteratorIP5TokenEEvEEu7__decayIDTclsr19__to_address_helperIT_EE6__callclsr3stdE7declvalIRKS5_EEEEES7_, symObjAddr: 0x5ACC, symBinAddr: 0x100009098, symSize: 0x24 }
  - { offsetInCU: 0x318BE, offset: 0x318BE, size: 0x8, addend: 0x0, symName: __ZNSt3__119__allocator_destroyB8ue170006INS_9allocatorI5TokenEENS_16reverse_iteratorINS4_IPS2_EEEES7_EEvRT_T0_T1_, symObjAddr: 0x5EB0, symBinAddr: 0x10000947C, symSize: 0x70 }
  - { offsetInCU: 0x31923, offset: 0x31923, size: 0x8, addend: 0x0, symName: __ZNSt3__1neB8ue170006INS_16reverse_iteratorIP5TokenEES4_EEbRKNS1_IT_EERKNS1_IT0_EE, symObjAddr: 0x5F5C, symBinAddr: 0x100009528, symSize: 0x60 }
  - { offsetInCU: 0x3196F, offset: 0x3196F, size: 0x8, addend: 0x0, symName: __ZNSt3__112__to_addressB8ue170006INS_16reverse_iteratorINS1_IP5TokenEEEEvEEu7__decayIDTclsr19__to_address_helperIT_EE6__callclsr3stdE7declvalIRKS6_EEEEES8_, symObjAddr: 0x5FE8, symBinAddr: 0x1000095B4, symSize: 0x24 }
  - { offsetInCU: 0x319CE, offset: 0x319CE, size: 0x8, addend: 0x0, symName: __ZNSt3__122__make_exception_guardB8ue170006INS_6vectorI5TokenNS_9allocatorIS2_EEE16__destroy_vectorEEENS_28__exception_guard_exceptionsIT_EES8_, symObjAddr: 0x65E4, symBinAddr: 0x100009BB0, symSize: 0x40 }
  - { offsetInCU: 0x31A03, offset: 0x31A03, size: 0x8, addend: 0x0, symName: __ZNSt3__130__uninitialized_allocator_copyB8ue170006INS_9allocatorI5TokenEEPS2_S4_S4_EET2_RT_T0_T1_S5_, symObjAddr: 0x6858, symBinAddr: 0x100009E24, symSize: 0x80 }
  - { offsetInCU: 0x31AA0, offset: 0x31AA0, size: 0x8, addend: 0x0, symName: __ZNSt3__114__unwrap_rangeB8ue170006IP5TokenS2_EENS_4pairIT0_S4_EET_S6_, symObjAddr: 0x68D8, symBinAddr: 0x100009EA4, symSize: 0x60 }
  - { offsetInCU: 0x31AEC, offset: 0x31AEC, size: 0x8, addend: 0x0, symName: __ZNSt3__135__uninitialized_allocator_copy_implB8ue170006INS_9allocatorI5TokenEEPS2_S4_S4_EET2_RT_T0_T1_S5_, symObjAddr: 0x6938, symBinAddr: 0x100009F04, symSize: 0xF4 }
  - { offsetInCU: 0x31B8A, offset: 0x31B8A, size: 0x8, addend: 0x0, symName: __ZNSt3__113__unwrap_iterB8ue170006IP5TokenNS_18__unwrap_iter_implIS2_Lb1EEELi0EEEDTclsrT0_8__unwrapclsr3stdE7declvalIT_EEEES6_, symObjAddr: 0x6A2C, symBinAddr: 0x100009FF8, symSize: 0x24 }
  - { offsetInCU: 0x31BCE, offset: 0x31BCE, size: 0x8, addend: 0x0, symName: __ZNSt3__113__rewrap_iterB8ue170006IP5TokenS2_NS_18__unwrap_iter_implIS2_Lb1EEEEET_S5_T0_, symObjAddr: 0x6A50, symBinAddr: 0x10000A01C, symSize: 0x3C }
  - { offsetInCU: 0x31C23, offset: 0x31C23, size: 0x8, addend: 0x0, symName: __ZNSt3__19make_pairB8ue170006IP5TokenS2_EENS_4pairINS_18__unwrap_ref_decayIT_E4typeENS4_IT0_E4typeEEEOS5_OS8_, symObjAddr: 0x6A8C, symBinAddr: 0x10000A058, symSize: 0x38 }
  - { offsetInCU: 0x31D46, offset: 0x31D46, size: 0x8, addend: 0x0, symName: __ZNSt3__122__make_exception_guardB8ue170006INS_29_AllocatorDestroyRangeReverseINS_9allocatorI5TokenEEPS3_EEEENS_28__exception_guard_exceptionsIT_EES8_, symObjAddr: 0x6B34, symBinAddr: 0x10000A100, symSize: 0x4C }
  - { offsetInCU: 0x31D7C, offset: 0x31D7C, size: 0x8, addend: 0x0, symName: __ZNSt3__119__allocator_destroyB8ue170006INS_9allocatorI5TokenEENS_16reverse_iteratorIPS2_EES6_EEvRT_T0_T1_, symObjAddr: 0x6DC4, symBinAddr: 0x10000A390, symSize: 0x70 }
  - { offsetInCU: 0x31E66, offset: 0x31E66, size: 0x8, addend: 0x0, symName: __ZNSt3__120__throw_out_of_rangeB8ue170006EPKc, symObjAddr: 0x8208, symBinAddr: 0x10000B7D4, symSize: 0x64 }
  - { offsetInCU: 0x31EAB, offset: 0x31EAB, size: 0x8, addend: 0x0, symName: __ZNSt3__1miB8ue170006IPK5TokenS3_EEDTmicldtfp_4baseEcldtfp0_4baseEERKNS_11__wrap_iterIT_EERKNS5_IT0_EE, symObjAddr: 0x8440, symBinAddr: 0x10000BA0C, symSize: 0x48 }
  - { offsetInCU: 0x31EF7, offset: 0x31EF7, size: 0x8, addend: 0x0, symName: __ZNSt3__14moveB8ue170006IP5TokenS2_EET0_T_S4_S3_, symObjAddr: 0x8500, symBinAddr: 0x10000BACC, symSize: 0x40 }
  - { offsetInCU: 0x31F51, offset: 0x31F51, size: 0x8, addend: 0x0, symName: __ZNSt3__16__moveB8ue170006INS_17_ClassicAlgPolicyEP5TokenS3_S3_EENS_4pairIT0_T2_EES5_T1_S6_, symObjAddr: 0x870C, symBinAddr: 0x10000BCD8, symSize: 0x44 }
  - { offsetInCU: 0x31FBD, offset: 0x31FBD, size: 0x8, addend: 0x0, symName: __ZNSt3__123__dispatch_copy_or_moveB8ue170006INS_17_ClassicAlgPolicyENS_11__move_loopIS1_EENS_14__move_trivialEP5TokenS6_S6_EENS_4pairIT2_T4_EES8_T3_S9_, symObjAddr: 0x8750, symBinAddr: 0x10000BD1C, symSize: 0x44 }
  - { offsetInCU: 0x3203B, offset: 0x3203B, size: 0x8, addend: 0x0, symName: __ZNSt3__121__unwrap_and_dispatchB8ue170006INS_10__overloadINS_11__move_loopINS_17_ClassicAlgPolicyEEENS_14__move_trivialEEEP5TokenS8_S8_Li0EEENS_4pairIT0_T2_EESA_T1_SB_, symObjAddr: 0x8794, symBinAddr: 0x10000BD60, symSize: 0xB4 }
  - { offsetInCU: 0x32124, offset: 0x32124, size: 0x8, addend: 0x0, symName: __ZNSt3__114__rewrap_rangeB8ue170006IP5TokenS2_EET_S3_T0_, symObjAddr: 0x88D8, symBinAddr: 0x10000BEA4, symSize: 0x2C }
  - { offsetInCU: 0x321DA, offset: 0x321DA, size: 0x8, addend: 0x0, symName: __ZNSt3__112__to_addressB8ue170006I9ParameterEEPT_S3_, symObjAddr: 0x9184, symBinAddr: 0x10000C750, symSize: 0x14 }
  - { offsetInCU: 0x3220F, offset: 0x3220F, size: 0x8, addend: 0x0, symName: __ZNSt3__119__allocate_at_leastB8ue170006INS_9allocatorI9ParameterEEEENS_19__allocation_resultINS_16allocator_traitsIT_E7pointerEEERS6_m, symObjAddr: 0x97C8, symBinAddr: 0x10000CD94, symSize: 0x40 }
  - { offsetInCU: 0x32252, offset: 0x32252, size: 0x8, addend: 0x0, symName: __ZNSt3__142__uninitialized_allocator_move_if_noexceptB8ue170006INS_9allocatorI9ParameterEENS_16reverse_iteratorIPS2_EES6_S6_EET2_RT_T0_T1_S7_, symObjAddr: 0x9A54, symBinAddr: 0x10000D020, symSize: 0x12C }
  - { offsetInCU: 0x322F2, offset: 0x322F2, size: 0x8, addend: 0x0, symName: __ZNSt3__14swapB8ue170006IP9ParameterEENS_9enable_ifIXaasr21is_move_constructibleIT_EE5valuesr18is_move_assignableIS4_EE5valueEvE4typeERS4_S7_, symObjAddr: 0x9BCC, symBinAddr: 0x10000D198, symSize: 0x3C }
  - { offsetInCU: 0x32343, offset: 0x32343, size: 0x8, addend: 0x0, symName: __ZNSt3__122__make_exception_guardB8ue170006INS_29_AllocatorDestroyRangeReverseINS_9allocatorI9ParameterEENS_16reverse_iteratorIPS3_EEEEEENS_28__exception_guard_exceptionsIT_EESA_, symObjAddr: 0x9D18, symBinAddr: 0x10000D2E4, symSize: 0x4C }
  - { offsetInCU: 0x32379, offset: 0x32379, size: 0x8, addend: 0x0, symName: __ZNSt3__1neB8ue170006IP9ParameterS2_EEbRKNS_16reverse_iteratorIT_EERKNS3_IT0_EE, symObjAddr: 0x9DA8, symBinAddr: 0x10000D374, symSize: 0x48 }
  - { offsetInCU: 0x323C5, offset: 0x323C5, size: 0x8, addend: 0x0, symName: __ZNSt3__112__to_addressB8ue170006INS_16reverse_iteratorIP9ParameterEEvEEu7__decayIDTclsr19__to_address_helperIT_EE6__callclsr3stdE7declvalIRKS5_EEEEES7_, symObjAddr: 0x9E24, symBinAddr: 0x10000D3F0, symSize: 0x24 }
  - { offsetInCU: 0x32424, offset: 0x32424, size: 0x8, addend: 0x0, symName: __ZNSt3__119__allocator_destroyB8ue170006INS_9allocatorI9ParameterEENS_16reverse_iteratorINS4_IPS2_EEEES7_EEvRT_T0_T1_, symObjAddr: 0xA16C, symBinAddr: 0x10000D738, symSize: 0x70 }
  - { offsetInCU: 0x32489, offset: 0x32489, size: 0x8, addend: 0x0, symName: __ZNSt3__1neB8ue170006INS_16reverse_iteratorIP9ParameterEES4_EEbRKNS1_IT_EERKNS1_IT0_EE, symObjAddr: 0xA218, symBinAddr: 0x10000D7E4, symSize: 0x60 }
  - { offsetInCU: 0x324D5, offset: 0x324D5, size: 0x8, addend: 0x0, symName: __ZNSt3__112__to_addressB8ue170006INS_16reverse_iteratorINS1_IP9ParameterEEEEvEEu7__decayIDTclsr19__to_address_helperIT_EE6__callclsr3stdE7declvalIRKS6_EEEEES8_, symObjAddr: 0xA2A4, symBinAddr: 0x10000D870, symSize: 0x24 }
  - { offsetInCU: 0x32534, offset: 0x32534, size: 0x8, addend: 0x0, symName: __ZNSt3__112__to_addressB8ue170006I9PredicateEEPT_S3_, symObjAddr: 0xA9D8, symBinAddr: 0x10000DFA4, symSize: 0x14 }
  - { offsetInCU: 0x32569, offset: 0x32569, size: 0x8, addend: 0x0, symName: __ZNSt3__119__allocate_at_leastB8ue170006INS_9allocatorI9PredicateEEEENS_19__allocation_resultINS_16allocator_traitsIT_E7pointerEEERS6_m, symObjAddr: 0xB01C, symBinAddr: 0x10000E5E8, symSize: 0x40 }
  - { offsetInCU: 0x325AC, offset: 0x325AC, size: 0x8, addend: 0x0, symName: __ZNSt3__142__uninitialized_allocator_move_if_noexceptB8ue170006INS_9allocatorI9PredicateEENS_16reverse_iteratorIPS2_EES6_S6_EET2_RT_T0_T1_S7_, symObjAddr: 0xB2A8, symBinAddr: 0x10000E874, symSize: 0x12C }
  - { offsetInCU: 0x3264C, offset: 0x3264C, size: 0x8, addend: 0x0, symName: __ZNSt3__14swapB8ue170006IP9PredicateEENS_9enable_ifIXaasr21is_move_constructibleIT_EE5valuesr18is_move_assignableIS4_EE5valueEvE4typeERS4_S7_, symObjAddr: 0xB420, symBinAddr: 0x10000E9EC, symSize: 0x3C }
  - { offsetInCU: 0x3269D, offset: 0x3269D, size: 0x8, addend: 0x0, symName: __ZNSt3__122__make_exception_guardB8ue170006INS_29_AllocatorDestroyRangeReverseINS_9allocatorI9PredicateEENS_16reverse_iteratorIPS3_EEEEEENS_28__exception_guard_exceptionsIT_EESA_, symObjAddr: 0xB56C, symBinAddr: 0x10000EB38, symSize: 0x4C }
  - { offsetInCU: 0x326D3, offset: 0x326D3, size: 0x8, addend: 0x0, symName: __ZNSt3__1neB8ue170006IP9PredicateS2_EEbRKNS_16reverse_iteratorIT_EERKNS3_IT0_EE, symObjAddr: 0xB5FC, symBinAddr: 0x10000EBC8, symSize: 0x48 }
  - { offsetInCU: 0x3271F, offset: 0x3271F, size: 0x8, addend: 0x0, symName: __ZNSt3__112__to_addressB8ue170006INS_16reverse_iteratorIP9PredicateEEvEEu7__decayIDTclsr19__to_address_helperIT_EE6__callclsr3stdE7declvalIRKS5_EEEEES7_, symObjAddr: 0xB678, symBinAddr: 0x10000EC44, symSize: 0x24 }
  - { offsetInCU: 0x3277E, offset: 0x3277E, size: 0x8, addend: 0x0, symName: __ZNSt3__119__allocator_destroyB8ue170006INS_9allocatorI9PredicateEENS_16reverse_iteratorINS4_IPS2_EEEES7_EEvRT_T0_T1_, symObjAddr: 0xBB64, symBinAddr: 0x10000F130, symSize: 0x70 }
  - { offsetInCU: 0x327E3, offset: 0x327E3, size: 0x8, addend: 0x0, symName: __ZNSt3__1neB8ue170006INS_16reverse_iteratorIP9PredicateEES4_EEbRKNS1_IT_EERKNS1_IT0_EE, symObjAddr: 0xBC10, symBinAddr: 0x10000F1DC, symSize: 0x60 }
  - { offsetInCU: 0x3282F, offset: 0x3282F, size: 0x8, addend: 0x0, symName: __ZNSt3__112__to_addressB8ue170006INS_16reverse_iteratorINS1_IP9PredicateEEEEvEEu7__decayIDTclsr19__to_address_helperIT_EE6__callclsr3stdE7declvalIRKS6_EEEEES8_, symObjAddr: 0xBC9C, symBinAddr: 0x10000F268, symSize: 0x24 }
  - { offsetInCU: 0x3288E, offset: 0x3288E, size: 0x8, addend: 0x0, symName: __ZNSt3__122__make_exception_guardB8ue170006INS_6vectorI9ParameterNS_9allocatorIS2_EEE16__destroy_vectorEEENS_28__exception_guard_exceptionsIT_EES8_, symObjAddr: 0xC2A4, symBinAddr: 0x10000F870, symSize: 0x40 }
  - { offsetInCU: 0x328C3, offset: 0x328C3, size: 0x8, addend: 0x0, symName: __ZNSt3__130__uninitialized_allocator_copyB8ue170006INS_9allocatorI9ParameterEEPS2_S4_S4_EET2_RT_T0_T1_S5_, symObjAddr: 0xC518, symBinAddr: 0x10000FAE4, symSize: 0x80 }
  - { offsetInCU: 0x32960, offset: 0x32960, size: 0x8, addend: 0x0, symName: __ZNSt3__114__unwrap_rangeB8ue170006IP9ParameterS2_EENS_4pairIT0_S4_EET_S6_, symObjAddr: 0xC598, symBinAddr: 0x10000FB64, symSize: 0x60 }
  - { offsetInCU: 0x329AC, offset: 0x329AC, size: 0x8, addend: 0x0, symName: __ZNSt3__135__uninitialized_allocator_copy_implB8ue170006INS_9allocatorI9ParameterEEPS2_S4_S4_EET2_RT_T0_T1_S5_, symObjAddr: 0xC5F8, symBinAddr: 0x10000FBC4, symSize: 0xF4 }
  - { offsetInCU: 0x32A4A, offset: 0x32A4A, size: 0x8, addend: 0x0, symName: __ZNSt3__113__unwrap_iterB8ue170006IP9ParameterNS_18__unwrap_iter_implIS2_Lb1EEELi0EEEDTclsrT0_8__unwrapclsr3stdE7declvalIT_EEEES6_, symObjAddr: 0xC6EC, symBinAddr: 0x10000FCB8, symSize: 0x24 }
  - { offsetInCU: 0x32A8E, offset: 0x32A8E, size: 0x8, addend: 0x0, symName: __ZNSt3__113__rewrap_iterB8ue170006IP9ParameterS2_NS_18__unwrap_iter_implIS2_Lb1EEEEET_S5_T0_, symObjAddr: 0xC710, symBinAddr: 0x10000FCDC, symSize: 0x3C }
  - { offsetInCU: 0x32AE3, offset: 0x32AE3, size: 0x8, addend: 0x0, symName: __ZNSt3__19make_pairB8ue170006IP9ParameterS2_EENS_4pairINS_18__unwrap_ref_decayIT_E4typeENS4_IT0_E4typeEEEOS5_OS8_, symObjAddr: 0xC74C, symBinAddr: 0x10000FD18, symSize: 0x38 }
  - { offsetInCU: 0x32C06, offset: 0x32C06, size: 0x8, addend: 0x0, symName: __ZNSt3__122__make_exception_guardB8ue170006INS_29_AllocatorDestroyRangeReverseINS_9allocatorI9ParameterEEPS3_EEEENS_28__exception_guard_exceptionsIT_EES8_, symObjAddr: 0xC7F4, symBinAddr: 0x10000FDC0, symSize: 0x4C }
  - { offsetInCU: 0x32C3C, offset: 0x32C3C, size: 0x8, addend: 0x0, symName: __ZNSt3__119__allocator_destroyB8ue170006INS_9allocatorI9ParameterEENS_16reverse_iteratorIPS2_EES6_EEvRT_T0_T1_, symObjAddr: 0xCA84, symBinAddr: 0x100010050, symSize: 0x70 }
  - { offsetInCU: 0x32CF2, offset: 0x32CF2, size: 0x8, addend: 0x0, symName: __ZNSt3__1ltB8ue170006IcNS_11char_traitsIcEENS_9allocatorIcEEEEbRKNS_12basic_stringIT_T0_T1_EESB_, symObjAddr: 0xDA6C, symBinAddr: 0x100011038, symSize: 0x38 }
  - { offsetInCU: 0x32D68, offset: 0x32D68, size: 0x8, addend: 0x0, symName: __ZNSt3__127__tree_balance_after_insertB8ue170006IPNS_16__tree_node_baseIPvEEEEvT_S5_, symObjAddr: 0xE16C, symBinAddr: 0x100011738, symSize: 0x32C }
  - { offsetInCU: 0x32DE4, offset: 0x32DE4, size: 0x8, addend: 0x0, symName: __ZNSt3__120__tree_is_left_childB8ue170006IPNS_16__tree_node_baseIPvEEEEbT_, symObjAddr: 0xE4D8, symBinAddr: 0x100011AA4, symSize: 0x2C }
  - { offsetInCU: 0x32E19, offset: 0x32E19, size: 0x8, addend: 0x0, symName: __ZNSt3__118__tree_left_rotateB8ue170006IPNS_16__tree_node_baseIPvEEEEvT_, symObjAddr: 0xE504, symBinAddr: 0x100011AD0, symSize: 0xD8 }
  - { offsetInCU: 0x32E5B, offset: 0x32E5B, size: 0x8, addend: 0x0, symName: __ZNSt3__119__tree_right_rotateB8ue170006IPNS_16__tree_node_baseIPvEEEEvT_, symObjAddr: 0xE5DC, symBinAddr: 0x100011BA8, symSize: 0xCC }
  - { offsetInCU: 0x32E9D, offset: 0x32E9D, size: 0x8, addend: 0x0, symName: __ZNSt3__18distanceB8ue170006IP9ParameterEENS_15iterator_traitsIT_E15difference_typeES4_S4_, symObjAddr: 0xF70C, symBinAddr: 0x100012CD8, symSize: 0x2C }
  - { offsetInCU: 0x32EE0, offset: 0x32EE0, size: 0x8, addend: 0x0, symName: __ZNSt3__14nextB8ue170006IP9ParameterEENS_9enable_ifIXsr29__has_input_iterator_categoryIT_EE5valueES4_E4typeES4_NS_15iterator_traitsIS4_E15difference_typeE, symObjAddr: 0xF738, symBinAddr: 0x100012D04, symSize: 0x34 }
  - { offsetInCU: 0x32F23, offset: 0x32F23, size: 0x8, addend: 0x0, symName: __ZNSt3__14copyB8ue170006IP9ParameterS2_EET0_T_S4_S3_, symObjAddr: 0xF76C, symBinAddr: 0x100012D38, symSize: 0x40 }
  - { offsetInCU: 0x32F7D, offset: 0x32F7D, size: 0x8, addend: 0x0, symName: __ZNSt3__16__copyB8ue170006INS_17_ClassicAlgPolicyEP9ParameterS3_S3_EENS_4pairIT0_T2_EES5_T1_S6_, symObjAddr: 0xF7AC, symBinAddr: 0x100012D78, symSize: 0x44 }
  - { offsetInCU: 0x32FE9, offset: 0x32FE9, size: 0x8, addend: 0x0, symName: __ZNSt3__121__convert_to_integralB8ue170006El, symObjAddr: 0xF908, symBinAddr: 0x100012ED4, symSize: 0x14 }
  - { offsetInCU: 0x33016, offset: 0x33016, size: 0x8, addend: 0x0, symName: __ZNSt3__19__advanceB8ue170006IP9ParameterEEvRT_NS_15iterator_traitsIS3_E15difference_typeENS_26random_access_iterator_tagE, symObjAddr: 0xF91C, symBinAddr: 0x100012EE8, symSize: 0x30 }
  - { offsetInCU: 0x3305F, offset: 0x3305F, size: 0x8, addend: 0x0, symName: __ZNSt3__123__dispatch_copy_or_moveB8ue170006INS_17_ClassicAlgPolicyENS_11__copy_loopIS1_EENS_14__copy_trivialEP9ParameterS6_S6_EENS_4pairIT2_T4_EES8_T3_S9_, symObjAddr: 0xF94C, symBinAddr: 0x100012F18, symSize: 0x44 }
  - { offsetInCU: 0x330DD, offset: 0x330DD, size: 0x8, addend: 0x0, symName: __ZNSt3__121__unwrap_and_dispatchB8ue170006INS_10__overloadINS_11__copy_loopINS_17_ClassicAlgPolicyEEENS_14__copy_trivialEEEP9ParameterS8_S8_Li0EEENS_4pairIT0_T2_EESA_T1_SB_, symObjAddr: 0xF990, symBinAddr: 0x100012F5C, symSize: 0xB4 }
  - { offsetInCU: 0x3327A, offset: 0x3327A, size: 0x8, addend: 0x0, symName: __ZNSt3__114__rewrap_rangeB8ue170006IP9ParameterS2_EET_S3_T0_, symObjAddr: 0xFACC, symBinAddr: 0x100013098, symSize: 0x2C }
  - { offsetInCU: 0x332C6, offset: 0x332C6, size: 0x8, addend: 0x0, symName: __ZNSt3__110__distanceB8ue170006IP9ParameterEENS_15iterator_traitsIT_E15difference_typeES4_S4_NS_26random_access_iterator_tagE, symObjAddr: 0xFC40, symBinAddr: 0x10001320C, symSize: 0x28 }
  - { offsetInCU: 0x33314, offset: 0x33314, size: 0x8, addend: 0x0, symName: __ZNSt3__112__to_addressB8ue170006I4RuleEEPT_S3_, symObjAddr: 0xFF9C, symBinAddr: 0x100013568, symSize: 0x14 }
  - { offsetInCU: 0x33349, offset: 0x33349, size: 0x8, addend: 0x0, symName: __ZNSt3__119__allocate_at_leastB8ue170006INS_9allocatorI4RuleEEEENS_19__allocation_resultINS_16allocator_traitsIT_E7pointerEEERS6_m, symObjAddr: 0x105E8, symBinAddr: 0x100013BB4, symSize: 0x40 }
  - { offsetInCU: 0x3338C, offset: 0x3338C, size: 0x8, addend: 0x0, symName: __ZNSt3__142__uninitialized_allocator_move_if_noexceptB8ue170006INS_9allocatorI4RuleEENS_16reverse_iteratorIPS2_EES6_S6_EET2_RT_T0_T1_S7_, symObjAddr: 0x10874, symBinAddr: 0x100013E40, symSize: 0x12C }
  - { offsetInCU: 0x3342C, offset: 0x3342C, size: 0x8, addend: 0x0, symName: __ZNSt3__14swapB8ue170006IP4RuleEENS_9enable_ifIXaasr21is_move_constructibleIT_EE5valuesr18is_move_assignableIS4_EE5valueEvE4typeERS4_S7_, symObjAddr: 0x109EC, symBinAddr: 0x100013FB8, symSize: 0x3C }
  - { offsetInCU: 0x3347D, offset: 0x3347D, size: 0x8, addend: 0x0, symName: __ZNSt3__122__make_exception_guardB8ue170006INS_29_AllocatorDestroyRangeReverseINS_9allocatorI4RuleEENS_16reverse_iteratorIPS3_EEEEEENS_28__exception_guard_exceptionsIT_EESA_, symObjAddr: 0x10B38, symBinAddr: 0x100014104, symSize: 0x4C }
  - { offsetInCU: 0x334B3, offset: 0x334B3, size: 0x8, addend: 0x0, symName: __ZNSt3__1neB8ue170006IP4RuleS2_EEbRKNS_16reverse_iteratorIT_EERKNS3_IT0_EE, symObjAddr: 0x10BC8, symBinAddr: 0x100014194, symSize: 0x48 }
  - { offsetInCU: 0x334FF, offset: 0x334FF, size: 0x8, addend: 0x0, symName: __ZNSt3__112__to_addressB8ue170006INS_16reverse_iteratorIP4RuleEEvEEu7__decayIDTclsr19__to_address_helperIT_EE6__callclsr3stdE7declvalIRKS5_EEEEES7_, symObjAddr: 0x10C44, symBinAddr: 0x100014210, symSize: 0x24 }
  - { offsetInCU: 0x3355E, offset: 0x3355E, size: 0x8, addend: 0x0, symName: __ZNSt3__119__allocator_destroyB8ue170006INS_9allocatorI4RuleEENS_16reverse_iteratorINS4_IPS2_EEEES7_EEvRT_T0_T1_, symObjAddr: 0x11130, symBinAddr: 0x1000146FC, symSize: 0x70 }
  - { offsetInCU: 0x335C3, offset: 0x335C3, size: 0x8, addend: 0x0, symName: __ZNSt3__1neB8ue170006INS_16reverse_iteratorIP4RuleEES4_EEbRKNS1_IT_EERKNS1_IT0_EE, symObjAddr: 0x111DC, symBinAddr: 0x1000147A8, symSize: 0x60 }
  - { offsetInCU: 0x3360F, offset: 0x3360F, size: 0x8, addend: 0x0, symName: __ZNSt3__112__to_addressB8ue170006INS_16reverse_iteratorINS1_IP4RuleEEEEvEEu7__decayIDTclsr19__to_address_helperIT_EE6__callclsr3stdE7declvalIRKS6_EEEEES8_, symObjAddr: 0x11268, symBinAddr: 0x100014834, symSize: 0x24 }
  - { offsetInCU: 0x3366E, offset: 0x3366E, size: 0x8, addend: 0x0, symName: __ZNSt3__122__make_exception_guardB8ue170006INS_6vectorI9PredicateNS_9allocatorIS2_EEE16__destroy_vectorEEENS_28__exception_guard_exceptionsIT_EES8_, symObjAddr: 0x11870, symBinAddr: 0x100014E3C, symSize: 0x40 }
  - { offsetInCU: 0x336A3, offset: 0x336A3, size: 0x8, addend: 0x0, symName: __ZNSt3__130__uninitialized_allocator_copyB8ue170006INS_9allocatorI9PredicateEEPS2_S4_S4_EET2_RT_T0_T1_S5_, symObjAddr: 0x11AE4, symBinAddr: 0x1000150B0, symSize: 0x80 }
  - { offsetInCU: 0x33740, offset: 0x33740, size: 0x8, addend: 0x0, symName: __ZNSt3__114__unwrap_rangeB8ue170006IP9PredicateS2_EENS_4pairIT0_S4_EET_S6_, symObjAddr: 0x11B64, symBinAddr: 0x100015130, symSize: 0x60 }
  - { offsetInCU: 0x3378C, offset: 0x3378C, size: 0x8, addend: 0x0, symName: __ZNSt3__135__uninitialized_allocator_copy_implB8ue170006INS_9allocatorI9PredicateEEPS2_S4_S4_EET2_RT_T0_T1_S5_, symObjAddr: 0x11BC4, symBinAddr: 0x100015190, symSize: 0xF4 }
  - { offsetInCU: 0x3382A, offset: 0x3382A, size: 0x8, addend: 0x0, symName: __ZNSt3__113__unwrap_iterB8ue170006IP9PredicateNS_18__unwrap_iter_implIS2_Lb1EEELi0EEEDTclsrT0_8__unwrapclsr3stdE7declvalIT_EEEES6_, symObjAddr: 0x11CB8, symBinAddr: 0x100015284, symSize: 0x24 }
  - { offsetInCU: 0x3386E, offset: 0x3386E, size: 0x8, addend: 0x0, symName: __ZNSt3__113__rewrap_iterB8ue170006IP9PredicateS2_NS_18__unwrap_iter_implIS2_Lb1EEEEET_S5_T0_, symObjAddr: 0x11CDC, symBinAddr: 0x1000152A8, symSize: 0x3C }
  - { offsetInCU: 0x338C3, offset: 0x338C3, size: 0x8, addend: 0x0, symName: __ZNSt3__19make_pairB8ue170006IP9PredicateS2_EENS_4pairINS_18__unwrap_ref_decayIT_E4typeENS4_IT0_E4typeEEEOS5_OS8_, symObjAddr: 0x11D18, symBinAddr: 0x1000152E4, symSize: 0x38 }
  - { offsetInCU: 0x339E6, offset: 0x339E6, size: 0x8, addend: 0x0, symName: __ZNSt3__122__make_exception_guardB8ue170006INS_29_AllocatorDestroyRangeReverseINS_9allocatorI9PredicateEEPS3_EEEENS_28__exception_guard_exceptionsIT_EES8_, symObjAddr: 0x11DC0, symBinAddr: 0x10001538C, symSize: 0x4C }
  - { offsetInCU: 0x33A1C, offset: 0x33A1C, size: 0x8, addend: 0x0, symName: __ZNSt3__119__allocator_destroyB8ue170006INS_9allocatorI9PredicateEENS_16reverse_iteratorIPS2_EES6_EEvRT_T0_T1_, symObjAddr: 0x12050, symBinAddr: 0x10001561C, symSize: 0x70 }
  - { offsetInCU: 0x33AD2, offset: 0x33AD2, size: 0x8, addend: 0x0, symName: __ZNSt3__122__make_exception_guardB8ue170006INS_6vectorI4RuleNS_9allocatorIS2_EEE16__destroy_vectorEEENS_28__exception_guard_exceptionsIT_EES8_, symObjAddr: 0x12D30, symBinAddr: 0x1000162FC, symSize: 0x40 }
  - { offsetInCU: 0x33B07, offset: 0x33B07, size: 0x8, addend: 0x0, symName: __ZNSt3__130__uninitialized_allocator_copyB8ue170006INS_9allocatorI4RuleEEPS2_S4_S4_EET2_RT_T0_T1_S5_, symObjAddr: 0x12FA4, symBinAddr: 0x100016570, symSize: 0x80 }
  - { offsetInCU: 0x33BA4, offset: 0x33BA4, size: 0x8, addend: 0x0, symName: __ZNSt3__114__unwrap_rangeB8ue170006IP4RuleS2_EENS_4pairIT0_S4_EET_S6_, symObjAddr: 0x13024, symBinAddr: 0x1000165F0, symSize: 0x60 }
  - { offsetInCU: 0x33BF0, offset: 0x33BF0, size: 0x8, addend: 0x0, symName: __ZNSt3__135__uninitialized_allocator_copy_implB8ue170006INS_9allocatorI4RuleEEPS2_S4_S4_EET2_RT_T0_T1_S5_, symObjAddr: 0x13084, symBinAddr: 0x100016650, symSize: 0xF4 }
  - { offsetInCU: 0x33C8E, offset: 0x33C8E, size: 0x8, addend: 0x0, symName: __ZNSt3__113__unwrap_iterB8ue170006IP4RuleNS_18__unwrap_iter_implIS2_Lb1EEELi0EEEDTclsrT0_8__unwrapclsr3stdE7declvalIT_EEEES6_, symObjAddr: 0x13178, symBinAddr: 0x100016744, symSize: 0x24 }
  - { offsetInCU: 0x33CD2, offset: 0x33CD2, size: 0x8, addend: 0x0, symName: __ZNSt3__113__rewrap_iterB8ue170006IP4RuleS2_NS_18__unwrap_iter_implIS2_Lb1EEEEET_S5_T0_, symObjAddr: 0x1319C, symBinAddr: 0x100016768, symSize: 0x3C }
  - { offsetInCU: 0x33D27, offset: 0x33D27, size: 0x8, addend: 0x0, symName: __ZNSt3__19make_pairB8ue170006IP4RuleS2_EENS_4pairINS_18__unwrap_ref_decayIT_E4typeENS4_IT0_E4typeEEEOS5_OS8_, symObjAddr: 0x131D8, symBinAddr: 0x1000167A4, symSize: 0x38 }
  - { offsetInCU: 0x33E4A, offset: 0x33E4A, size: 0x8, addend: 0x0, symName: __ZNSt3__122__make_exception_guardB8ue170006INS_29_AllocatorDestroyRangeReverseINS_9allocatorI4RuleEEPS3_EEEENS_28__exception_guard_exceptionsIT_EES8_, symObjAddr: 0x13280, symBinAddr: 0x10001684C, symSize: 0x4C }
  - { offsetInCU: 0x33E80, offset: 0x33E80, size: 0x8, addend: 0x0, symName: __ZNSt3__119__allocator_destroyB8ue170006INS_9allocatorI4RuleEENS_16reverse_iteratorIPS2_EES6_EEvRT_T0_T1_, symObjAddr: 0x13510, symBinAddr: 0x100016ADC, symSize: 0x70 }
  - { offsetInCU: 0x33F36, offset: 0x33F36, size: 0x8, addend: 0x0, symName: __ZNSt3__1neB8ue170006ERKNS_21__tree_const_iteratorINS_12basic_stringIcNS_11char_traitsIcEENS_9allocatorIcEEEEPNS_11__tree_nodeIS6_PvEElEESD_, symObjAddr: 0x13BA8, symBinAddr: 0x100017174, symSize: 0x34 }
  - { offsetInCU: 0x33F73, offset: 0x33F73, size: 0x8, addend: 0x0, symName: __ZNSt3__1eqB8ue170006ERKNS_21__tree_const_iteratorINS_12basic_stringIcNS_11char_traitsIcEENS_9allocatorIcEEEEPNS_11__tree_nodeIS6_PvEElEESD_, symObjAddr: 0x13CA0, symBinAddr: 0x10001726C, symSize: 0x30 }
  - { offsetInCU: 0x33FB0, offset: 0x33FB0, size: 0x8, addend: 0x0, symName: __ZNSt3__14nextB8ue170006INS_21__tree_const_iteratorINS_12basic_stringIcNS_11char_traitsIcEENS_9allocatorIcEEEEPNS_11__tree_nodeIS7_PvEElEEEENS_9enable_ifIXsr29__has_input_iterator_categoryIT_EE5valueESE_E4typeESE_NS_15iterator_traitsISE_E15difference_typeE, symObjAddr: 0x14280, symBinAddr: 0x10001784C, symSize: 0x3C }
  - { offsetInCU: 0x33FF3, offset: 0x33FF3, size: 0x8, addend: 0x0, symName: __ZNSt3__116__tree_prev_iterB8ue170006IPNS_16__tree_node_baseIPvEEPNS_15__tree_end_nodeIS4_EEEET_T0_, symObjAddr: 0x14328, symBinAddr: 0x1000178F4, symSize: 0x88 }
  - { offsetInCU: 0x3403F, offset: 0x3403F, size: 0x8, addend: 0x0, symName: __ZNSt3__110__tree_maxB8ue170006IPNS_16__tree_node_baseIPvEEEET_S5_, symObjAddr: 0x143B0, symBinAddr: 0x10001797C, symSize: 0x40 }
  - { offsetInCU: 0x34074, offset: 0x34074, size: 0x8, addend: 0x0, symName: __ZNSt3__19__advanceB8ue170006INS_21__tree_const_iteratorINS_12basic_stringIcNS_11char_traitsIcEENS_9allocatorIcEEEEPNS_11__tree_nodeIS7_PvEElEEEEvRT_NS_15iterator_traitsISD_E15difference_typeENS_26bidirectional_iterator_tagE, symObjAddr: 0x14428, symBinAddr: 0x1000179F4, symSize: 0xA4 }
  - { offsetInCU: 0x340BE, offset: 0x340BE, size: 0x8, addend: 0x0, symName: __ZNSt3__116__tree_next_iterB8ue170006IPNS_15__tree_end_nodeIPNS_16__tree_node_baseIPvEEEES5_EET_T0_, symObjAddr: 0x14530, symBinAddr: 0x100017AFC, symSize: 0x80 }
  - { offsetInCU: 0x340FC, offset: 0x340FC, size: 0x8, addend: 0x0, symName: __ZNSt3__110__tree_minB8ue170006IPNS_16__tree_node_baseIPvEEEET_S5_, symObjAddr: 0x145B0, symBinAddr: 0x100017B7C, symSize: 0x40 }
  - { offsetInCU: 0x34131, offset: 0x34131, size: 0x8, addend: 0x0, symName: __ZNSt3__18distanceB8ue170006IP9PredicateEENS_15iterator_traitsIT_E15difference_typeES4_S4_, symObjAddr: 0x156AC, symBinAddr: 0x100018C78, symSize: 0x2C }
  - { offsetInCU: 0x34174, offset: 0x34174, size: 0x8, addend: 0x0, symName: __ZNSt3__14nextB8ue170006IP9PredicateEENS_9enable_ifIXsr29__has_input_iterator_categoryIT_EE5valueES4_E4typeES4_NS_15iterator_traitsIS4_E15difference_typeE, symObjAddr: 0x156D8, symBinAddr: 0x100018CA4, symSize: 0x34 }
  - { offsetInCU: 0x341B7, offset: 0x341B7, size: 0x8, addend: 0x0, symName: __ZNSt3__14copyB8ue170006IP9PredicateS2_EET0_T_S4_S3_, symObjAddr: 0x1570C, symBinAddr: 0x100018CD8, symSize: 0x40 }
  - { offsetInCU: 0x34211, offset: 0x34211, size: 0x8, addend: 0x0, symName: __ZNSt3__16__copyB8ue170006INS_17_ClassicAlgPolicyEP9PredicateS3_S3_EENS_4pairIT0_T2_EES5_T1_S6_, symObjAddr: 0x1574C, symBinAddr: 0x100018D18, symSize: 0x44 }
  - { offsetInCU: 0x3427E, offset: 0x3427E, size: 0x8, addend: 0x0, symName: __ZNSt3__19__advanceB8ue170006IP9PredicateEEvRT_NS_15iterator_traitsIS3_E15difference_typeENS_26random_access_iterator_tagE, symObjAddr: 0x158A8, symBinAddr: 0x100018E74, symSize: 0x30 }
  - { offsetInCU: 0x342C7, offset: 0x342C7, size: 0x8, addend: 0x0, symName: __ZNSt3__123__dispatch_copy_or_moveB8ue170006INS_17_ClassicAlgPolicyENS_11__copy_loopIS1_EENS_14__copy_trivialEP9PredicateS6_S6_EENS_4pairIT2_T4_EES8_T3_S9_, symObjAddr: 0x158D8, symBinAddr: 0x100018EA4, symSize: 0x44 }
  - { offsetInCU: 0x34345, offset: 0x34345, size: 0x8, addend: 0x0, symName: __ZNSt3__121__unwrap_and_dispatchB8ue170006INS_10__overloadINS_11__copy_loopINS_17_ClassicAlgPolicyEEENS_14__copy_trivialEEEP9PredicateS8_S8_Li0EEENS_4pairIT0_T2_EESA_T1_SB_, symObjAddr: 0x1591C, symBinAddr: 0x100018EE8, symSize: 0xB4 }
  - { offsetInCU: 0x343D3, offset: 0x343D3, size: 0x8, addend: 0x0, symName: __ZNSt3__114__rewrap_rangeB8ue170006IP9PredicateS2_EET_S3_T0_, symObjAddr: 0x15A58, symBinAddr: 0x100019024, symSize: 0x2C }
  - { offsetInCU: 0x3441F, offset: 0x3441F, size: 0x8, addend: 0x0, symName: __ZNSt3__110__distanceB8ue170006IP9PredicateEENS_15iterator_traitsIT_E15difference_typeES4_S4_NS_26random_access_iterator_tagE, symObjAddr: 0x15B98, symBinAddr: 0x100019164, symSize: 0x28 }
  - { offsetInCU: 0x3446D, offset: 0x3446D, size: 0x8, addend: 0x0, symName: __ZNSt3__18distanceB8ue170006IP4RuleEENS_15iterator_traitsIT_E15difference_typeES4_S4_, symObjAddr: 0x15DC0, symBinAddr: 0x10001938C, symSize: 0x2C }
  - { offsetInCU: 0x344B0, offset: 0x344B0, size: 0x8, addend: 0x0, symName: __ZNSt3__14nextB8ue170006IP4RuleEENS_9enable_ifIXsr29__has_input_iterator_categoryIT_EE5valueES4_E4typeES4_NS_15iterator_traitsIS4_E15difference_typeE, symObjAddr: 0x15DEC, symBinAddr: 0x1000193B8, symSize: 0x34 }
  - { offsetInCU: 0x344F3, offset: 0x344F3, size: 0x8, addend: 0x0, symName: __ZNSt3__14copyB8ue170006IP4RuleS2_EET0_T_S4_S3_, symObjAddr: 0x15E20, symBinAddr: 0x1000193EC, symSize: 0x40 }
  - { offsetInCU: 0x3454D, offset: 0x3454D, size: 0x8, addend: 0x0, symName: __ZNSt3__16__copyB8ue170006INS_17_ClassicAlgPolicyEP4RuleS3_S3_EENS_4pairIT0_T2_EES5_T1_S6_, symObjAddr: 0x15E60, symBinAddr: 0x10001942C, symSize: 0x44 }
  - { offsetInCU: 0x345BA, offset: 0x345BA, size: 0x8, addend: 0x0, symName: __ZNSt3__19__advanceB8ue170006IP4RuleEEvRT_NS_15iterator_traitsIS3_E15difference_typeENS_26random_access_iterator_tagE, symObjAddr: 0x15FBC, symBinAddr: 0x100019588, symSize: 0x30 }
  - { offsetInCU: 0x34603, offset: 0x34603, size: 0x8, addend: 0x0, symName: __ZNSt3__123__dispatch_copy_or_moveB8ue170006INS_17_ClassicAlgPolicyENS_11__copy_loopIS1_EENS_14__copy_trivialEP4RuleS6_S6_EENS_4pairIT2_T4_EES8_T3_S9_, symObjAddr: 0x15FEC, symBinAddr: 0x1000195B8, symSize: 0x44 }
  - { offsetInCU: 0x34681, offset: 0x34681, size: 0x8, addend: 0x0, symName: __ZNSt3__121__unwrap_and_dispatchB8ue170006INS_10__overloadINS_11__copy_loopINS_17_ClassicAlgPolicyEEENS_14__copy_trivialEEEP4RuleS8_S8_Li0EEENS_4pairIT0_T2_EESA_T1_SB_, symObjAddr: 0x16030, symBinAddr: 0x1000195FC, symSize: 0xB4 }
  - { offsetInCU: 0x3470F, offset: 0x3470F, size: 0x8, addend: 0x0, symName: __ZNSt3__114__rewrap_rangeB8ue170006IP4RuleS2_EET_S3_T0_, symObjAddr: 0x1616C, symBinAddr: 0x100019738, symSize: 0x2C }
  - { offsetInCU: 0x3475B, offset: 0x3475B, size: 0x8, addend: 0x0, symName: __ZNSt3__110__distanceB8ue170006IP4RuleEENS_15iterator_traitsIT_E15difference_typeES4_S4_NS_26random_access_iterator_tagE, symObjAddr: 0x162F4, symBinAddr: 0x1000198C0, symSize: 0x28 }
  - { offsetInCU: 0x347A9, offset: 0x347A9, size: 0x8, addend: 0x0, symName: __ZNSt3__111__tree_leafB8ue170006IPNS_16__tree_node_baseIPvEEEET_S5_, symObjAddr: 0x169E0, symBinAddr: 0x100019FAC, symSize: 0x70 }
  - { offsetInCU: 0x348BD, offset: 0x348BD, size: 0x8, addend: 0x0, symName: __ZNSt3__112__to_addressB8ue170006INS_12basic_stringIcNS_11char_traitsIcEENS_9allocatorIcEEEEEEPT_S8_, symObjAddr: 0x176BC, symBinAddr: 0x10001AC88, symSize: 0x14 }
  - { offsetInCU: 0x348F2, offset: 0x348F2, size: 0x8, addend: 0x0, symName: __ZNSt3__119__allocate_at_leastB8ue170006INS_9allocatorINS_12basic_stringIcNS_11char_traitsIcEENS1_IcEEEEEEEENS_19__allocation_resultINS_16allocator_traitsIT_E7pointerEEERSA_m, symObjAddr: 0x17D00, symBinAddr: 0x10001B2CC, symSize: 0x40 }
  - { offsetInCU: 0x34935, offset: 0x34935, size: 0x8, addend: 0x0, symName: __ZNSt3__142__uninitialized_allocator_move_if_noexceptB8ue170006INS_9allocatorINS_12basic_stringIcNS_11char_traitsIcEENS1_IcEEEEEENS_16reverse_iteratorIPS6_EESA_SA_EET2_RT_T0_T1_SB_, symObjAddr: 0x17F8C, symBinAddr: 0x10001B558, symSize: 0x12C }
  - { offsetInCU: 0x349D5, offset: 0x349D5, size: 0x8, addend: 0x0, symName: __ZNSt3__14swapB8ue170006IPNS_12basic_stringIcNS_11char_traitsIcEENS_9allocatorIcEEEEEENS_9enable_ifIXaasr21is_move_constructibleIT_EE5valuesr18is_move_assignableIS9_EE5valueEvE4typeERS9_SC_, symObjAddr: 0x18104, symBinAddr: 0x10001B6D0, symSize: 0x3C }
  - { offsetInCU: 0x34A26, offset: 0x34A26, size: 0x8, addend: 0x0, symName: __ZNSt3__122__make_exception_guardB8ue170006INS_29_AllocatorDestroyRangeReverseINS_9allocatorINS_12basic_stringIcNS_11char_traitsIcEENS2_IcEEEEEENS_16reverse_iteratorIPS7_EEEEEENS_28__exception_guard_exceptionsIT_EESE_, symObjAddr: 0x18250, symBinAddr: 0x10001B81C, symSize: 0x4C }
  - { offsetInCU: 0x34A5C, offset: 0x34A5C, size: 0x8, addend: 0x0, symName: __ZNSt3__1neB8ue170006IPNS_12basic_stringIcNS_11char_traitsIcEENS_9allocatorIcEEEES7_EEbRKNS_16reverse_iteratorIT_EERKNS8_IT0_EE, symObjAddr: 0x182E0, symBinAddr: 0x10001B8AC, symSize: 0x48 }
  - { offsetInCU: 0x34AA8, offset: 0x34AA8, size: 0x8, addend: 0x0, symName: __ZNSt3__112__to_addressB8ue170006INS_16reverse_iteratorIPNS_12basic_stringIcNS_11char_traitsIcEENS_9allocatorIcEEEEEEvEEu7__decayIDTclsr19__to_address_helperIT_EE6__callclsr3stdE7declvalIRKSA_EEEEESC_, symObjAddr: 0x1835C, symBinAddr: 0x10001B928, symSize: 0x24 }
  - { offsetInCU: 0x34B07, offset: 0x34B07, size: 0x8, addend: 0x0, symName: __ZNSt3__119__allocator_destroyB8ue170006INS_9allocatorINS_12basic_stringIcNS_11char_traitsIcEENS1_IcEEEEEENS_16reverse_iteratorINS8_IPS6_EEEESB_EEvRT_T0_T1_, symObjAddr: 0x1863C, symBinAddr: 0x10001BC08, symSize: 0x70 }
  - { offsetInCU: 0x34B6C, offset: 0x34B6C, size: 0x8, addend: 0x0, symName: __ZNSt3__1neB8ue170006INS_16reverse_iteratorIPNS_12basic_stringIcNS_11char_traitsIcEENS_9allocatorIcEEEEEES9_EEbRKNS1_IT_EERKNS1_IT0_EE, symObjAddr: 0x186E8, symBinAddr: 0x10001BCB4, symSize: 0x60 }
  - { offsetInCU: 0x34BB8, offset: 0x34BB8, size: 0x8, addend: 0x0, symName: __ZNSt3__112__to_addressB8ue170006INS_16reverse_iteratorINS1_IPNS_12basic_stringIcNS_11char_traitsIcEENS_9allocatorIcEEEEEEEEvEEu7__decayIDTclsr19__to_address_helperIT_EE6__callclsr3stdE7declvalIRKSB_EEEEESD_, symObjAddr: 0x18774, symBinAddr: 0x10001BD40, symSize: 0x24 }
  - { offsetInCU: 0x34C17, offset: 0x34C17, size: 0x8, addend: 0x0, symName: __ZNSt3__122__make_exception_guardB8ue170006INS_6vectorINS_12basic_stringIcNS_11char_traitsIcEENS_9allocatorIcEEEENS5_IS7_EEE16__destroy_vectorEEENS_28__exception_guard_exceptionsIT_EESC_, symObjAddr: 0x18E80, symBinAddr: 0x10001C44C, symSize: 0x40 }
  - { offsetInCU: 0x34C4C, offset: 0x34C4C, size: 0x8, addend: 0x0, symName: __ZNSt3__130__uninitialized_allocator_copyB8ue170006INS_9allocatorINS_12basic_stringIcNS_11char_traitsIcEENS1_IcEEEEEEPS6_S8_S8_EET2_RT_T0_T1_S9_, symObjAddr: 0x190F4, symBinAddr: 0x10001C6C0, symSize: 0x80 }
  - { offsetInCU: 0x34CE9, offset: 0x34CE9, size: 0x8, addend: 0x0, symName: __ZNSt3__114__unwrap_rangeB8ue170006IPNS_12basic_stringIcNS_11char_traitsIcEENS_9allocatorIcEEEES7_EENS_4pairIT0_S9_EET_SB_, symObjAddr: 0x19174, symBinAddr: 0x10001C740, symSize: 0x60 }
  - { offsetInCU: 0x34D35, offset: 0x34D35, size: 0x8, addend: 0x0, symName: __ZNSt3__135__uninitialized_allocator_copy_implB8ue170006INS_9allocatorINS_12basic_stringIcNS_11char_traitsIcEENS1_IcEEEEEEPS6_S8_S8_EET2_RT_T0_T1_S9_, symObjAddr: 0x191D4, symBinAddr: 0x10001C7A0, symSize: 0xF4 }
  - { offsetInCU: 0x34DD3, offset: 0x34DD3, size: 0x8, addend: 0x0, symName: __ZNSt3__113__unwrap_iterB8ue170006IPNS_12basic_stringIcNS_11char_traitsIcEENS_9allocatorIcEEEENS_18__unwrap_iter_implIS7_Lb1EEELi0EEEDTclsrT0_8__unwrapclsr3stdE7declvalIT_EEEESB_, symObjAddr: 0x192C8, symBinAddr: 0x10001C894, symSize: 0x24 }
  - { offsetInCU: 0x34E17, offset: 0x34E17, size: 0x8, addend: 0x0, symName: __ZNSt3__113__rewrap_iterB8ue170006IPNS_12basic_stringIcNS_11char_traitsIcEENS_9allocatorIcEEEES7_NS_18__unwrap_iter_implIS7_Lb1EEEEET_SA_T0_, symObjAddr: 0x192EC, symBinAddr: 0x10001C8B8, symSize: 0x3C }
  - { offsetInCU: 0x34E6C, offset: 0x34E6C, size: 0x8, addend: 0x0, symName: __ZNSt3__19make_pairB8ue170006IPNS_12basic_stringIcNS_11char_traitsIcEENS_9allocatorIcEEEES7_EENS_4pairINS_18__unwrap_ref_decayIT_E4typeENS9_IT0_E4typeEEEOSA_OSD_, symObjAddr: 0x19328, symBinAddr: 0x10001C8F4, symSize: 0x38 }
  - { offsetInCU: 0x34F8F, offset: 0x34F8F, size: 0x8, addend: 0x0, symName: __ZNSt3__122__make_exception_guardB8ue170006INS_29_AllocatorDestroyRangeReverseINS_9allocatorINS_12basic_stringIcNS_11char_traitsIcEENS2_IcEEEEEEPS7_EEEENS_28__exception_guard_exceptionsIT_EESC_, symObjAddr: 0x193D0, symBinAddr: 0x10001C99C, symSize: 0x4C }
  - { offsetInCU: 0x34FC5, offset: 0x34FC5, size: 0x8, addend: 0x0, symName: __ZNSt3__119__allocator_destroyB8ue170006INS_9allocatorINS_12basic_stringIcNS_11char_traitsIcEENS1_IcEEEEEENS_16reverse_iteratorIPS6_EESA_EEvRT_T0_T1_, symObjAddr: 0x19660, symBinAddr: 0x10001CC2C, symSize: 0x70 }
  - { offsetInCU: 0x35084, offset: 0x35084, size: 0x8, addend: 0x0, symName: __ZNSt3__17launderB8ue170006IKNS_4pairIKNS_12basic_stringIcNS_11char_traitsIcEENS_9allocatorIcEEEE8RelationEEEEPT_SD_, symObjAddr: 0x1A384, symBinAddr: 0x10001D950, symSize: 0x24 }
  - { offsetInCU: 0x350BB, offset: 0x350BB, size: 0x8, addend: 0x0, symName: __ZNSt3__19__launderB8ue170006IKNS_4pairIKNS_12basic_stringIcNS_11char_traitsIcEENS_9allocatorIcEEEE8RelationEEEEPT_SD_, symObjAddr: 0x1A3A8, symBinAddr: 0x10001D974, symSize: 0x14 }
  - { offsetInCU: 0x35110, offset: 0x35110, size: 0x8, addend: 0x0, symName: __ZNSt3__17launderB8ue170006INS_4pairIKNS_12basic_stringIcNS_11char_traitsIcEENS_9allocatorIcEEEE8RelationEEEEPT_SC_, symObjAddr: 0x1ABBC, symBinAddr: 0x10001E188, symSize: 0x24 }
  - { offsetInCU: 0x35147, offset: 0x35147, size: 0x8, addend: 0x0, symName: __ZNSt3__19__launderB8ue170006INS_4pairIKNS_12basic_stringIcNS_11char_traitsIcEENS_9allocatorIcEEEE8RelationEEEEPT_SC_, symObjAddr: 0x1ABE0, symBinAddr: 0x10001E1AC, symSize: 0x14 }
  - { offsetInCU: 0x3517E, offset: 0x3517E, size: 0x8, addend: 0x0, symName: __ZNSt3__1neB8ue170006ERKNS_21__tree_const_iteratorI5TuplePNS_11__tree_nodeIS1_PvEElEES8_, symObjAddr: 0x1B594, symBinAddr: 0x10001EB60, symSize: 0x34 }
  - { offsetInCU: 0x351BB, offset: 0x351BB, size: 0x8, addend: 0x0, symName: __ZNSt3__1eqB8ue170006ERKNS_21__tree_const_iteratorI5TuplePNS_11__tree_nodeIS1_PvEElEES8_, symObjAddr: 0x1B68C, symBinAddr: 0x10001EC58, symSize: 0x30 }
  - { offsetInCU: 0x351F8, offset: 0x351F8, size: 0x8, addend: 0x0, symName: __ZNSt3__14nextB8ue170006INS_21__tree_const_iteratorI5TuplePNS_11__tree_nodeIS2_PvEElEEEENS_9enable_ifIXsr29__has_input_iterator_categoryIT_EE5valueES9_E4typeES9_NS_15iterator_traitsIS9_E15difference_typeE, symObjAddr: 0x1C070, symBinAddr: 0x10001F63C, symSize: 0x3C }
  - { offsetInCU: 0x3523B, offset: 0x3523B, size: 0x8, addend: 0x0, symName: __ZNSt3__1ltB8ue170006INS_12basic_stringIcNS_11char_traitsIcEENS_9allocatorIcEEEENS4_IS6_EEEEbRKNS_6vectorIT_T0_EESD_, symObjAddr: 0x1C170, symBinAddr: 0x10001F73C, symSize: 0x68 }
  - { offsetInCU: 0x3528A, offset: 0x3528A, size: 0x8, addend: 0x0, symName: __ZNSt3__123lexicographical_compareB8ue170006INS_11__wrap_iterIPKNS_12basic_stringIcNS_11char_traitsIcEENS_9allocatorIcEEEEEESA_EEbT_SB_T0_SC_, symObjAddr: 0x1C1D8, symBinAddr: 0x10001F7A4, symSize: 0x60 }
  - { offsetInCU: 0x352F2, offset: 0x352F2, size: 0x8, addend: 0x0, symName: __ZNSt3__123lexicographical_compareB8ue170006INS_11__wrap_iterIPKNS_12basic_stringIcNS_11char_traitsIcEENS_9allocatorIcEEEEEESA_NS_6__lessIvvEEEEbT_SD_T0_SE_T1_, symObjAddr: 0x1C298, symBinAddr: 0x10001F864, symSize: 0x64 }
  - { offsetInCU: 0x35371, offset: 0x35371, size: 0x8, addend: 0x0, symName: __ZNSt3__125__lexicographical_compareB8ue170006IRNS_6__lessIvvEENS_11__wrap_iterIPKNS_12basic_stringIcNS_11char_traitsIcEENS_9allocatorIcEEEEEESD_EEbT0_SE_T1_SF_T_, symObjAddr: 0x1C2FC, symBinAddr: 0x10001F8C8, symSize: 0x11C }
  - { offsetInCU: 0x353F0, offset: 0x353F0, size: 0x8, addend: 0x0, symName: __ZNSt3__1neB8ue170006IPKNS_12basic_stringIcNS_11char_traitsIcEENS_9allocatorIcEEEEEEbRKNS_11__wrap_iterIT_EESD_, symObjAddr: 0x1C418, symBinAddr: 0x10001F9E4, symSize: 0x34 }
  - { offsetInCU: 0x35433, offset: 0x35433, size: 0x8, addend: 0x0, symName: __ZNSt3__1eqB8ue170006IPKNS_12basic_stringIcNS_11char_traitsIcEENS_9allocatorIcEEEEEEbRKNS_11__wrap_iterIT_EESD_, symObjAddr: 0x1C44C, symBinAddr: 0x10001FA18, symSize: 0x48 }
  - { offsetInCU: 0x35476, offset: 0x35476, size: 0x8, addend: 0x0, symName: __ZNSt3__19__advanceB8ue170006INS_21__tree_const_iteratorI5TuplePNS_11__tree_nodeIS2_PvEElEEEEvRT_NS_15iterator_traitsIS8_E15difference_typeENS_26bidirectional_iterator_tagE, symObjAddr: 0x1C670, symBinAddr: 0x10001FC3C, symSize: 0xA4 }
  - { offsetInCU: 0x354DE, offset: 0x354DE, size: 0x8, addend: 0x0, symName: __ZNSt3__1eqB8ue170006INS_9allocatorIcEEEEbRKNS_12basic_stringIcNS_11char_traitsIcEET_EES9_, symObjAddr: 0x1D6EC, symBinAddr: 0x100020CB8, symSize: 0x148 }
  - { offsetInCU: 0x35551, offset: 0x35551, size: 0x8, addend: 0x0, symName: __ZNSt3__19make_pairB8ue170006IR5GraphS2_EENS_4pairINS_18__unwrap_ref_decayIT_E4typeENS4_IT0_E4typeEEEOS5_OS8_, symObjAddr: 0x1D8A8, symBinAddr: 0x100020E74, symSize: 0x40 }
  - { offsetInCU: 0x355A0, offset: 0x355A0, size: 0x8, addend: 0x0, symName: __ZNSt3__112__to_addressB8ue170006IiEEPT_S2_, symObjAddr: 0x1EA24, symBinAddr: 0x100021FF0, symSize: 0x14 }
  - { offsetInCU: 0x3560C, offset: 0x3560C, size: 0x8, addend: 0x0, symName: __ZNSt3__116forward_as_tupleB8ue170006IJRKiEEENS_5tupleIJDpOT_EEES6_, symObjAddr: 0x1EEC0, symBinAddr: 0x10002248C, symSize: 0x2C }
  - { offsetInCU: 0x35645, offset: 0x35645, size: 0x8, addend: 0x0, symName: __ZNSt3__116forward_as_tupleB8ue170006IJEEENS_5tupleIJDpOT_EEES4_, symObjAddr: 0x1EEEC, symBinAddr: 0x1000224B8, symSize: 0x4 }
  - { offsetInCU: 0x35669, offset: 0x35669, size: 0x8, addend: 0x0, symName: __ZNSt3__17launderB8ue170006IKNS_4pairIKi4NodeEEEEPT_S7_, symObjAddr: 0x1F5A4, symBinAddr: 0x100022B70, symSize: 0x24 }
  - { offsetInCU: 0x356A0, offset: 0x356A0, size: 0x8, addend: 0x0, symName: __ZNSt3__19__launderB8ue170006IKNS_4pairIKi4NodeEEEEPT_S7_, symObjAddr: 0x1F5C8, symBinAddr: 0x100022B94, symSize: 0x14 }
  - { offsetInCU: 0x35701, offset: 0x35701, size: 0x8, addend: 0x0, symName: __ZNSt3__13getB8ue170006ILm0EJRKiEEERNS_13tuple_elementIXT_ENS_5tupleIJDpT0_EEEE4typeERS7_, symObjAddr: 0x1FAA8, symBinAddr: 0x100023074, symSize: 0x24 }
  - { offsetInCU: 0x3579B, offset: 0x3579B, size: 0x8, addend: 0x0, symName: __ZNSt3__17launderB8ue170006INS_4pairIKi4NodeEEEEPT_S6_, symObjAddr: 0x1FF8C, symBinAddr: 0x100023558, symSize: 0x24 }
  - { offsetInCU: 0x357D2, offset: 0x357D2, size: 0x8, addend: 0x0, symName: __ZNSt3__19__launderB8ue170006INS_4pairIKi4NodeEEEEPT_S6_, symObjAddr: 0x1FFB0, symBinAddr: 0x10002357C, symSize: 0x14 }
  - { offsetInCU: 0x35809, offset: 0x35809, size: 0x8, addend: 0x0, symName: __ZNSt3__112__to_addressB8ue170006I4NodeEEPT_S3_, symObjAddr: 0x20878, symBinAddr: 0x100023E44, symSize: 0x14 }
  - { offsetInCU: 0x3585C, offset: 0x3585C, size: 0x8, addend: 0x0, symName: __ZNSt3__1neB8ue170006ERKNS_20__map_const_iteratorINS_21__tree_const_iteratorINS_12__value_typeIi4NodeEEPNS_11__tree_nodeIS4_PvEElEEEESC_, symObjAddr: 0x21DFC, symBinAddr: 0x1000253C8, symSize: 0x30 }
  - { offsetInCU: 0x35899, offset: 0x35899, size: 0x8, addend: 0x0, symName: __ZNSt3__1neB8ue170006ERKNS_21__tree_const_iteratorINS_12__value_typeIi4NodeEEPNS_11__tree_nodeIS3_PvEElEESA_, symObjAddr: 0x21F04, symBinAddr: 0x1000254D0, symSize: 0x34 }
  - { offsetInCU: 0x358D6, offset: 0x358D6, size: 0x8, addend: 0x0, symName: __ZNSt3__1eqB8ue170006ERKNS_21__tree_const_iteratorINS_12__value_typeIi4NodeEEPNS_11__tree_nodeIS3_PvEElEESA_, symObjAddr: 0x21F38, symBinAddr: 0x100025504, symSize: 0x30 }
  - { offsetInCU: 0x35937, offset: 0x35937, size: 0x8, addend: 0x0, symName: __ZNSt3__14nextB8ue170006INS_21__tree_const_iteratorINS_12__value_typeIi4NodeEEPNS_11__tree_nodeIS4_PvEElEEEENS_9enable_ifIXsr29__has_input_iterator_categoryIT_EE5valueESB_E4typeESB_NS_15iterator_traitsISB_E15difference_typeE, symObjAddr: 0x22628, symBinAddr: 0x100025BF4, symSize: 0x3C }
  - { offsetInCU: 0x3597A, offset: 0x3597A, size: 0x8, addend: 0x0, symName: __ZNSt3__19__advanceB8ue170006INS_21__tree_const_iteratorINS_12__value_typeIi4NodeEEPNS_11__tree_nodeIS4_PvEElEEEEvRT_NS_15iterator_traitsISA_E15difference_typeENS_26bidirectional_iterator_tagE, symObjAddr: 0x22728, symBinAddr: 0x100025CF4, symSize: 0xA4 }
  - { offsetInCU: 0x359C4, offset: 0x359C4, size: 0x8, addend: 0x0, symName: __ZNSt3__1neB8ue170006ERKNS_21__tree_const_iteratorIiPNS_11__tree_nodeIiPvEElEES7_, symObjAddr: 0x22D50, symBinAddr: 0x10002631C, symSize: 0x34 }
  - { offsetInCU: 0x35A01, offset: 0x35A01, size: 0x8, addend: 0x0, symName: __ZNSt3__1eqB8ue170006ERKNS_21__tree_const_iteratorIiPNS_11__tree_nodeIiPvEElEES7_, symObjAddr: 0x22E48, symBinAddr: 0x100026414, symSize: 0x30 }
  - { offsetInCU: 0x35A3E, offset: 0x35A3E, size: 0x8, addend: 0x0, symName: __ZNSt3__14nextB8ue170006INS_21__tree_const_iteratorIiPNS_11__tree_nodeIiPvEElEEEENS_9enable_ifIXsr29__has_input_iterator_categoryIT_EE5valueES8_E4typeES8_NS_15iterator_traitsIS8_E15difference_typeE, symObjAddr: 0x23320, symBinAddr: 0x1000268EC, symSize: 0x3C }
  - { offsetInCU: 0x35A81, offset: 0x35A81, size: 0x8, addend: 0x0, symName: __ZNSt3__19__advanceB8ue170006INS_21__tree_const_iteratorIiPNS_11__tree_nodeIiPvEElEEEEvRT_NS_15iterator_traitsIS7_E15difference_typeENS_26bidirectional_iterator_tagE, symObjAddr: 0x23400, symBinAddr: 0x1000269CC, symSize: 0xA4 }
  - { offsetInCU: 0x35AFE, offset: 0x35AFE, size: 0x8, addend: 0x0, symName: __ZNSt3__122__make_exception_guardB8ue170006INS_6vectorI4NodeNS_9allocatorIS2_EEE16__destroy_vectorEEENS_28__exception_guard_exceptionsIT_EES8_, symObjAddr: 0x23918, symBinAddr: 0x100026EE4, symSize: 0x40 }
  - { offsetInCU: 0x35B33, offset: 0x35B33, size: 0x8, addend: 0x0, symName: __ZNSt3__119__allocate_at_leastB8ue170006INS_9allocatorI4NodeEEEENS_19__allocation_resultINS_16allocator_traitsIT_E7pointerEEERS6_m, symObjAddr: 0x23BAC, symBinAddr: 0x100027178, symSize: 0x40 }
  - { offsetInCU: 0x35B76, offset: 0x35B76, size: 0x8, addend: 0x0, symName: __ZNSt3__130__uninitialized_allocator_copyB8ue170006INS_9allocatorI4NodeEEPS2_S4_S4_EET2_RT_T0_T1_S5_, symObjAddr: 0x23DC4, symBinAddr: 0x100027390, symSize: 0x80 }
  - { offsetInCU: 0x35C13, offset: 0x35C13, size: 0x8, addend: 0x0, symName: __ZNSt3__114__unwrap_rangeB8ue170006IP4NodeS2_EENS_4pairIT0_S4_EET_S6_, symObjAddr: 0x23EB4, symBinAddr: 0x100027480, symSize: 0x60 }
  - { offsetInCU: 0x35C5F, offset: 0x35C5F, size: 0x8, addend: 0x0, symName: __ZNSt3__135__uninitialized_allocator_copy_implB8ue170006INS_9allocatorI4NodeEEPS2_S4_S4_EET2_RT_T0_T1_S5_, symObjAddr: 0x23F14, symBinAddr: 0x1000274E0, symSize: 0xF4 }
  - { offsetInCU: 0x35CFD, offset: 0x35CFD, size: 0x8, addend: 0x0, symName: __ZNSt3__113__unwrap_iterB8ue170006IP4NodeNS_18__unwrap_iter_implIS2_Lb1EEELi0EEEDTclsrT0_8__unwrapclsr3stdE7declvalIT_EEEES6_, symObjAddr: 0x24008, symBinAddr: 0x1000275D4, symSize: 0x24 }
  - { offsetInCU: 0x35D41, offset: 0x35D41, size: 0x8, addend: 0x0, symName: __ZNSt3__113__rewrap_iterB8ue170006IP4NodeS2_NS_18__unwrap_iter_implIS2_Lb1EEEEET_S5_T0_, symObjAddr: 0x2402C, symBinAddr: 0x1000275F8, symSize: 0x3C }
  - { offsetInCU: 0x35D96, offset: 0x35D96, size: 0x8, addend: 0x0, symName: __ZNSt3__19make_pairB8ue170006IP4NodeS2_EENS_4pairINS_18__unwrap_ref_decayIT_E4typeENS4_IT0_E4typeEEEOS5_OS8_, symObjAddr: 0x24068, symBinAddr: 0x100027634, symSize: 0x38 }
  - { offsetInCU: 0x35EB9, offset: 0x35EB9, size: 0x8, addend: 0x0, symName: __ZNSt3__122__make_exception_guardB8ue170006INS_29_AllocatorDestroyRangeReverseINS_9allocatorI4NodeEEPS3_EEEENS_28__exception_guard_exceptionsIT_EES8_, symObjAddr: 0x24110, symBinAddr: 0x1000276DC, symSize: 0x4C }
  - { offsetInCU: 0x35EEF, offset: 0x35EEF, size: 0x8, addend: 0x0, symName: __ZNSt3__119__allocator_destroyB8ue170006INS_9allocatorI4NodeEENS_16reverse_iteratorIPS2_EES6_EEvRT_T0_T1_, symObjAddr: 0x243A0, symBinAddr: 0x10002796C, symSize: 0x70 }
  - { offsetInCU: 0x35F52, offset: 0x35F52, size: 0x8, addend: 0x0, symName: __ZNSt3__1neB8ue170006IP4NodeS2_EEbRKNS_16reverse_iteratorIT_EERKNS3_IT0_EE, symObjAddr: 0x24444, symBinAddr: 0x100027A10, symSize: 0x48 }
  - { offsetInCU: 0x35F9E, offset: 0x35F9E, size: 0x8, addend: 0x0, symName: __ZNSt3__112__to_addressB8ue170006INS_16reverse_iteratorIP4NodeEEvEEu7__decayIDTclsr19__to_address_helperIT_EE6__callclsr3stdE7declvalIRKS5_EEEEES7_, symObjAddr: 0x2448C, symBinAddr: 0x100027A58, symSize: 0x24 }
  - { offsetInCU: 0x36050, offset: 0x36050, size: 0x8, addend: 0x0, symName: __ZNSt3__1neB8ue170006ERKNS_14__map_iteratorINS_15__tree_iteratorINS_12__value_typeIi4NodeEEPNS_11__tree_nodeIS4_PvEElEEEESC_, symObjAddr: 0x246E0, symBinAddr: 0x100027CAC, symSize: 0x30 }
  - { offsetInCU: 0x3608D, offset: 0x3608D, size: 0x8, addend: 0x0, symName: __ZNSt3__1neB8ue170006ERKNS_15__tree_iteratorINS_12__value_typeIi4NodeEEPNS_11__tree_nodeIS3_PvEElEESA_, symObjAddr: 0x248D4, symBinAddr: 0x100027EA0, symSize: 0x34 }
  - { offsetInCU: 0x360CA, offset: 0x360CA, size: 0x8, addend: 0x0, symName: __ZNSt3__1eqB8ue170006ERKNS_15__tree_iteratorINS_12__value_typeIi4NodeEEPNS_11__tree_nodeIS3_PvEElEESA_, symObjAddr: 0x24908, symBinAddr: 0x100027ED4, symSize: 0x30 }
  - { offsetInCU: 0x36560, offset: 0x36560, size: 0x8, addend: 0x0, symName: __ZNSt3__14swapB8ue170006IPPiEENS_9enable_ifIXaasr21is_move_constructibleIT_EE5valuesr18is_move_assignableIS4_EE5valueEvE4typeERS4_S7_, symObjAddr: 0x261A0, symBinAddr: 0x10002976C, symSize: 0x3C }
  - { offsetInCU: 0x365B1, offset: 0x365B1, size: 0x8, addend: 0x0, symName: __ZNSt3__14moveB8ue170006IPPiS2_EET0_T_S4_S3_, symObjAddr: 0x262D0, symBinAddr: 0x10002989C, symSize: 0x40 }
  - { offsetInCU: 0x3660B, offset: 0x3660B, size: 0x8, addend: 0x0, symName: __ZNSt3__112__to_addressB8ue170006IPiEEPT_S3_, symObjAddr: 0x263D8, symBinAddr: 0x1000299A4, symSize: 0x14 }
  - { offsetInCU: 0x36640, offset: 0x36640, size: 0x8, addend: 0x0, symName: __ZNSt3__16__moveB8ue170006INS_17_ClassicAlgPolicyEPPiS3_S3_EENS_4pairIT0_T2_EES5_T1_S6_, symObjAddr: 0x263EC, symBinAddr: 0x1000299B8, symSize: 0x44 }
  - { offsetInCU: 0x366AC, offset: 0x366AC, size: 0x8, addend: 0x0, symName: __ZNSt3__123__dispatch_copy_or_moveB8ue170006INS_17_ClassicAlgPolicyENS_11__move_loopIS1_EENS_14__move_trivialEPPiS6_S6_EENS_4pairIT2_T4_EES8_T3_S9_, symObjAddr: 0x26430, symBinAddr: 0x1000299FC, symSize: 0x44 }
  - { offsetInCU: 0x3672A, offset: 0x3672A, size: 0x8, addend: 0x0, symName: __ZNSt3__121__unwrap_and_dispatchB8ue170006INS_10__overloadINS_11__move_loopINS_17_ClassicAlgPolicyEEENS_14__move_trivialEEEPPiS8_S8_Li0EEENS_4pairIT0_T2_EESA_T1_SB_, symObjAddr: 0x26474, symBinAddr: 0x100029A40, symSize: 0xB4 }
  - { offsetInCU: 0x367B8, offset: 0x367B8, size: 0x8, addend: 0x0, symName: __ZNSt3__114__unwrap_rangeB8ue170006IPPiS2_EENS_4pairIT0_S4_EET_S6_, symObjAddr: 0x26528, symBinAddr: 0x100029AF4, symSize: 0x60 }
  - { offsetInCU: 0x369B8, offset: 0x369B8, size: 0x8, addend: 0x0, symName: __ZNSt3__113__unwrap_iterB8ue170006IPPiNS_18__unwrap_iter_implIS2_Lb1EEELi0EEEDTclsrT0_8__unwrapclsr3stdE7declvalIT_EEEES6_, symObjAddr: 0x265D0, symBinAddr: 0x100029B9C, symSize: 0x24 }
  - { offsetInCU: 0x369FC, offset: 0x369FC, size: 0x8, addend: 0x0, symName: __ZNSt3__19make_pairB8ue170006IPPiS2_EENS_4pairINS_18__unwrap_ref_decayIT_E4typeENS4_IT0_E4typeEEEOS5_OS8_, symObjAddr: 0x265F4, symBinAddr: 0x100029BC0, symSize: 0x38 }
  - { offsetInCU: 0x36A4B, offset: 0x36A4B, size: 0x8, addend: 0x0, symName: __ZNSt3__114__rewrap_rangeB8ue170006IPPiS2_EET_S3_T0_, symObjAddr: 0x2662C, symBinAddr: 0x100029BF8, symSize: 0x2C }
  - { offsetInCU: 0x36A97, offset: 0x36A97, size: 0x8, addend: 0x0, symName: __ZNSt3__113__rewrap_iterB8ue170006IPPiS2_NS_18__unwrap_iter_implIS2_Lb1EEEEET_S5_T0_, symObjAddr: 0x26658, symBinAddr: 0x100029C24, symSize: 0x3C }
  - { offsetInCU: 0x36AEC, offset: 0x36AEC, size: 0x8, addend: 0x0, symName: __ZNSt3__119__copy_trivial_implB8ue170006IPiS1_EENS_4pairIPT_PT0_EES4_S4_S6_, symObjAddr: 0x26694, symBinAddr: 0x100029C60, symSize: 0x80 }
  - { offsetInCU: 0x36B54, offset: 0x36B54, size: 0x8, addend: 0x0, symName: __ZNSt3__119__constexpr_memmoveB8ue170006IPiS1_Li0EEEPT_S3_PT0_NS_15__element_countE, symObjAddr: 0x26714, symBinAddr: 0x100029CE0, symSize: 0x64 }
  - { offsetInCU: 0x36BC2, offset: 0x36BC2, size: 0x8, addend: 0x0, symName: __ZNSt3__19make_pairB8ue170006IRPPiS2_EENS_4pairINS_18__unwrap_ref_decayIT_E4typeENS5_IT0_E4typeEEEOS6_OS9_, symObjAddr: 0x26778, symBinAddr: 0x100029D44, symSize: 0x38 }
  - { offsetInCU: 0x36C64, offset: 0x36C64, size: 0x8, addend: 0x0, symName: __ZNSt3__18distanceB8ue170006INS_13move_iteratorIPPiEEEENS_15iterator_traitsIT_E15difference_typeES6_S6_, symObjAddr: 0x269E0, symBinAddr: 0x100029FAC, symSize: 0x3C }
  - { offsetInCU: 0x36CA7, offset: 0x36CA7, size: 0x8, addend: 0x0, symName: __ZNSt3__110__distanceB8ue170006INS_13move_iteratorIPPiEEEENS_15iterator_traitsIT_E15difference_typeES6_S6_NS_26random_access_iterator_tagE, symObjAddr: 0x26BE4, symBinAddr: 0x10002A1B0, symSize: 0x30 }
  - { offsetInCU: 0x36CF5, offset: 0x36CF5, size: 0x8, addend: 0x0, symName: __ZNSt3__1miB8ue170006IPPiS2_EEDTmicldtfp_4baseEcldtfp0_4baseEERKNS_13move_iteratorIT_EERKNS4_IT0_EE, symObjAddr: 0x26C14, symBinAddr: 0x10002A1E0, symSize: 0x48 }
  - { offsetInCU: 0x36D44, offset: 0x36D44, size: 0x8, addend: 0x0, symName: __ZNSt3__113move_backwardB8ue170006IPPiS2_EET0_T_S4_S3_, symObjAddr: 0x26DAC, symBinAddr: 0x10002A378, symSize: 0x40 }
  - { offsetInCU: 0x36D9E, offset: 0x36D9E, size: 0x8, addend: 0x0, symName: __ZNSt3__115__move_backwardB8ue170006INS_17_ClassicAlgPolicyEPPiS3_S3_EENS_4pairIT0_T2_EES5_T1_S6_, symObjAddr: 0x26DEC, symBinAddr: 0x10002A3B8, symSize: 0x44 }
  - { offsetInCU: 0x36E0A, offset: 0x36E0A, size: 0x8, addend: 0x0, symName: __ZNSt3__123__dispatch_copy_or_moveB8ue170006INS_17_ClassicAlgPolicyENS_20__move_backward_loopIS1_EENS_23__move_backward_trivialEPPiS6_S6_EENS_4pairIT2_T4_EES8_T3_S9_, symObjAddr: 0x26E30, symBinAddr: 0x10002A3FC, symSize: 0x44 }
  - { offsetInCU: 0x36E88, offset: 0x36E88, size: 0x8, addend: 0x0, symName: __ZNSt3__121__unwrap_and_dispatchB8ue170006INS_10__overloadINS_20__move_backward_loopINS_17_ClassicAlgPolicyEEENS_23__move_backward_trivialEEEPPiS8_S8_Li0EEENS_4pairIT0_T2_EESA_T1_SB_, symObjAddr: 0x26E74, symBinAddr: 0x10002A440, symSize: 0xB4 }
  - { offsetInCU: 0x36F98, offset: 0x36F98, size: 0x8, addend: 0x0, symName: __ZNSt3__128__copy_backward_trivial_implB8ue170006IPiS1_EENS_4pairIPT_PT0_EES4_S4_S6_, symObjAddr: 0x26F70, symBinAddr: 0x10002A53C, symSize: 0x90 }
  - { offsetInCU: 0x37000, offset: 0x37000, size: 0x8, addend: 0x0, symName: __ZNSt3__19make_pairB8ue170006IRPPiS3_EENS_4pairINS_18__unwrap_ref_decayIT_E4typeENS5_IT0_E4typeEEEOS6_OS9_, symObjAddr: 0x27000, symBinAddr: 0x10002A5CC, symSize: 0x38 }
  - { offsetInCU: 0x3704F, offset: 0x3704F, size: 0x8, addend: 0x0, symName: __ZNSt3__119__allocate_at_leastB8ue170006INS_9allocatorIPiEEEENS_19__allocation_resultINS_16allocator_traitsIT_E7pointerEEERS6_m, symObjAddr: 0x27234, symBinAddr: 0x10002A800, symSize: 0x40 }
  - { offsetInCU: 0x37092, offset: 0x37092, size: 0x8, addend: 0x0, symName: __ZNSt3__112__to_addressB8ue170006INS_3setIiNS_4lessIiEENS_9allocatorIiEEEEEEPT_S8_, symObjAddr: 0x28758, symBinAddr: 0x10002BD24, symSize: 0x14 }
  - { offsetInCU: 0x37520, offset: 0x37520, size: 0x8, addend: 0x0, symName: __ZNSt3__14swapB8ue170006IPPNS_3setIiNS_4lessIiEENS_9allocatorIiEEEEEENS_9enable_ifIXaasr21is_move_constructibleIT_EE5valuesr18is_move_assignableISA_EE5valueEvE4typeERSA_SD_, symObjAddr: 0x29E28, symBinAddr: 0x10002D3F4, symSize: 0x3C }
  - { offsetInCU: 0x37571, offset: 0x37571, size: 0x8, addend: 0x0, symName: __ZNSt3__14moveB8ue170006IPPNS_3setIiNS_4lessIiEENS_9allocatorIiEEEES8_EET0_T_SA_S9_, symObjAddr: 0x29F58, symBinAddr: 0x10002D524, symSize: 0x40 }
  - { offsetInCU: 0x375CB, offset: 0x375CB, size: 0x8, addend: 0x0, symName: __ZNSt3__112__to_addressB8ue170006IPNS_3setIiNS_4lessIiEENS_9allocatorIiEEEEEEPT_S9_, symObjAddr: 0x2A060, symBinAddr: 0x10002D62C, symSize: 0x14 }
  - { offsetInCU: 0x37600, offset: 0x37600, size: 0x8, addend: 0x0, symName: __ZNSt3__16__moveB8ue170006INS_17_ClassicAlgPolicyEPPNS_3setIiNS_4lessIiEENS_9allocatorIiEEEES9_S9_EENS_4pairIT0_T2_EESB_T1_SC_, symObjAddr: 0x2A074, symBinAddr: 0x10002D640, symSize: 0x44 }
  - { offsetInCU: 0x3766C, offset: 0x3766C, size: 0x8, addend: 0x0, symName: __ZNSt3__123__dispatch_copy_or_moveB8ue170006INS_17_ClassicAlgPolicyENS_11__move_loopIS1_EENS_14__move_trivialEPPNS_3setIiNS_4lessIiEENS_9allocatorIiEEEESC_SC_EENS_4pairIT2_T4_EESE_T3_SF_, symObjAddr: 0x2A0B8, symBinAddr: 0x10002D684, symSize: 0x44 }
  - { offsetInCU: 0x376EA, offset: 0x376EA, size: 0x8, addend: 0x0, symName: __ZNSt3__121__unwrap_and_dispatchB8ue170006INS_10__overloadINS_11__move_loopINS_17_ClassicAlgPolicyEEENS_14__move_trivialEEEPPNS_3setIiNS_4lessIiEENS_9allocatorIiEEEESE_SE_Li0EEENS_4pairIT0_T2_EESG_T1_SH_, symObjAddr: 0x2A0FC, symBinAddr: 0x10002D6C8, symSize: 0xB4 }
  - { offsetInCU: 0x37778, offset: 0x37778, size: 0x8, addend: 0x0, symName: __ZNSt3__114__unwrap_rangeB8ue170006IPPNS_3setIiNS_4lessIiEENS_9allocatorIiEEEES8_EENS_4pairIT0_SA_EET_SC_, symObjAddr: 0x2A1B0, symBinAddr: 0x10002D77C, symSize: 0x60 }
  - { offsetInCU: 0x378F6, offset: 0x378F6, size: 0x8, addend: 0x0, symName: __ZNSt3__113__unwrap_iterB8ue170006IPPNS_3setIiNS_4lessIiEENS_9allocatorIiEEEENS_18__unwrap_iter_implIS8_Lb1EEELi0EEEDTclsrT0_8__unwrapclsr3stdE7declvalIT_EEEESC_, symObjAddr: 0x2A258, symBinAddr: 0x10002D824, symSize: 0x24 }
  - { offsetInCU: 0x3793A, offset: 0x3793A, size: 0x8, addend: 0x0, symName: __ZNSt3__19make_pairB8ue170006IPPNS_3setIiNS_4lessIiEENS_9allocatorIiEEEES8_EENS_4pairINS_18__unwrap_ref_decayIT_E4typeENSA_IT0_E4typeEEEOSB_OSE_, symObjAddr: 0x2A27C, symBinAddr: 0x10002D848, symSize: 0x38 }
  - { offsetInCU: 0x37989, offset: 0x37989, size: 0x8, addend: 0x0, symName: __ZNSt3__114__rewrap_rangeB8ue170006IPPNS_3setIiNS_4lessIiEENS_9allocatorIiEEEES8_EET_S9_T0_, symObjAddr: 0x2A2B4, symBinAddr: 0x10002D880, symSize: 0x2C }
  - { offsetInCU: 0x379D5, offset: 0x379D5, size: 0x8, addend: 0x0, symName: __ZNSt3__113__rewrap_iterB8ue170006IPPNS_3setIiNS_4lessIiEENS_9allocatorIiEEEES8_NS_18__unwrap_iter_implIS8_Lb1EEEEET_SB_T0_, symObjAddr: 0x2A2E0, symBinAddr: 0x10002D8AC, symSize: 0x3C }
  - { offsetInCU: 0x37A2A, offset: 0x37A2A, size: 0x8, addend: 0x0, symName: __ZNSt3__119__copy_trivial_implB8ue170006IPNS_3setIiNS_4lessIiEENS_9allocatorIiEEEES7_EENS_4pairIPT_PT0_EESA_SA_SC_, symObjAddr: 0x2A31C, symBinAddr: 0x10002D8E8, symSize: 0x80 }
  - { offsetInCU: 0x37A92, offset: 0x37A92, size: 0x8, addend: 0x0, symName: __ZNSt3__119__constexpr_memmoveB8ue170006IPNS_3setIiNS_4lessIiEENS_9allocatorIiEEEES7_Li0EEEPT_S9_PT0_NS_15__element_countE, symObjAddr: 0x2A39C, symBinAddr: 0x10002D968, symSize: 0x64 }
  - { offsetInCU: 0x37B00, offset: 0x37B00, size: 0x8, addend: 0x0, symName: __ZNSt3__19make_pairB8ue170006IRPPNS_3setIiNS_4lessIiEENS_9allocatorIiEEEES8_EENS_4pairINS_18__unwrap_ref_decayIT_E4typeENSB_IT0_E4typeEEEOSC_OSF_, symObjAddr: 0x2A400, symBinAddr: 0x10002D9CC, symSize: 0x38 }
  - { offsetInCU: 0x37BA2, offset: 0x37BA2, size: 0x8, addend: 0x0, symName: __ZNSt3__18distanceB8ue170006INS_13move_iteratorIPPNS_3setIiNS_4lessIiEENS_9allocatorIiEEEEEEEENS_15iterator_traitsIT_E15difference_typeESC_SC_, symObjAddr: 0x2A668, symBinAddr: 0x10002DC34, symSize: 0x3C }
  - { offsetInCU: 0x37BE5, offset: 0x37BE5, size: 0x8, addend: 0x0, symName: __ZNSt3__110__distanceB8ue170006INS_13move_iteratorIPPNS_3setIiNS_4lessIiEENS_9allocatorIiEEEEEEEENS_15iterator_traitsIT_E15difference_typeESC_SC_NS_26random_access_iterator_tagE, symObjAddr: 0x2A86C, symBinAddr: 0x10002DE38, symSize: 0x30 }
  - { offsetInCU: 0x37C33, offset: 0x37C33, size: 0x8, addend: 0x0, symName: __ZNSt3__1miB8ue170006IPPNS_3setIiNS_4lessIiEENS_9allocatorIiEEEES8_EEDTmicldtfp_4baseEcldtfp0_4baseEERKNS_13move_iteratorIT_EERKNSA_IT0_EE, symObjAddr: 0x2A89C, symBinAddr: 0x10002DE68, symSize: 0x48 }
  - { offsetInCU: 0x37C82, offset: 0x37C82, size: 0x8, addend: 0x0, symName: __ZNSt3__113move_backwardB8ue170006IPPNS_3setIiNS_4lessIiEENS_9allocatorIiEEEES8_EET0_T_SA_S9_, symObjAddr: 0x2AA3C, symBinAddr: 0x10002E008, symSize: 0x40 }
  - { offsetInCU: 0x37CDC, offset: 0x37CDC, size: 0x8, addend: 0x0, symName: __ZNSt3__115__move_backwardB8ue170006INS_17_ClassicAlgPolicyEPPNS_3setIiNS_4lessIiEENS_9allocatorIiEEEES9_S9_EENS_4pairIT0_T2_EESB_T1_SC_, symObjAddr: 0x2AA7C, symBinAddr: 0x10002E048, symSize: 0x44 }
  - { offsetInCU: 0x37D48, offset: 0x37D48, size: 0x8, addend: 0x0, symName: __ZNSt3__123__dispatch_copy_or_moveB8ue170006INS_17_ClassicAlgPolicyENS_20__move_backward_loopIS1_EENS_23__move_backward_trivialEPPNS_3setIiNS_4lessIiEENS_9allocatorIiEEEESC_SC_EENS_4pairIT2_T4_EESE_T3_SF_, symObjAddr: 0x2AAC0, symBinAddr: 0x10002E08C, symSize: 0x44 }
  - { offsetInCU: 0x37DC6, offset: 0x37DC6, size: 0x8, addend: 0x0, symName: __ZNSt3__121__unwrap_and_dispatchB8ue170006INS_10__overloadINS_20__move_backward_loopINS_17_ClassicAlgPolicyEEENS_23__move_backward_trivialEEEPPNS_3setIiNS_4lessIiEENS_9allocatorIiEEEESE_SE_Li0EEENS_4pairIT0_T2_EESG_T1_SH_, symObjAddr: 0x2AB04, symBinAddr: 0x10002E0D0, symSize: 0xB4 }
  - { offsetInCU: 0x37E54, offset: 0x37E54, size: 0x8, addend: 0x0, symName: __ZNSt3__128__copy_backward_trivial_implB8ue170006IPNS_3setIiNS_4lessIiEENS_9allocatorIiEEEES7_EENS_4pairIPT_PT0_EESA_SA_SC_, symObjAddr: 0x2AC00, symBinAddr: 0x10002E1CC, symSize: 0x90 }
  - { offsetInCU: 0x37EBC, offset: 0x37EBC, size: 0x8, addend: 0x0, symName: __ZNSt3__19make_pairB8ue170006IRPPNS_3setIiNS_4lessIiEENS_9allocatorIiEEEES9_EENS_4pairINS_18__unwrap_ref_decayIT_E4typeENSB_IT0_E4typeEEEOSC_OSF_, symObjAddr: 0x2AC90, symBinAddr: 0x10002E25C, symSize: 0x38 }
  - { offsetInCU: 0x37F0B, offset: 0x37F0B, size: 0x8, addend: 0x0, symName: __ZNSt3__119__allocate_at_leastB8ue170006INS_9allocatorIPNS_3setIiNS_4lessIiEENS1_IiEEEEEEEENS_19__allocation_resultINS_16allocator_traitsIT_E7pointerEEERSB_m, symObjAddr: 0x2AEC4, symBinAddr: 0x10002E490, symSize: 0x40 }
  - { offsetInCU: 0x37F4E, offset: 0x37F4E, size: 0x8, addend: 0x0, symName: __ZNSt3__1neB8ue170006ERKNS_16__deque_iteratorIiPiRiPS1_lLl1024EEES6_, symObjAddr: 0x2BECC, symBinAddr: 0x10002F498, symSize: 0x34 }
  - { offsetInCU: 0x37F8B, offset: 0x37F8B, size: 0x8, addend: 0x0, symName: __ZNSt3__1eqB8ue170006ERKNS_16__deque_iteratorIiPiRiPS1_lLl1024EEES6_, symObjAddr: 0x2BF70, symBinAddr: 0x10002F53C, symSize: 0x30 }
  - { offsetInCU: 0x37FC8, offset: 0x37FC8, size: 0x8, addend: 0x0, symName: __ZNSt3__1neB8ue170006ERKNS_15__tree_iteratorIiPNS_11__tree_nodeIiPvEElEES7_, symObjAddr: 0x2CDD0, symBinAddr: 0x10003039C, symSize: 0x34 }
  - { offsetInCU: 0x38005, offset: 0x38005, size: 0x8, addend: 0x0, symName: __ZNSt3__1eqB8ue170006ERKNS_15__tree_iteratorIiPNS_11__tree_nodeIiPvEElEES7_, symObjAddr: 0x2CE2C, symBinAddr: 0x1000303F8, symSize: 0x30 }
  - { offsetInCU: 0x38042, offset: 0x38042, size: 0x8, addend: 0x0, symName: __ZNSt3__1lsB8ue170006INS_11char_traitsIcEEEERNS_13basic_ostreamIcT_EES6_c, symObjAddr: 0x2D080, symBinAddr: 0x10003064C, symSize: 0x34 }
  - { offsetInCU: 0x38088, offset: 0x38088, size: 0x8, addend: 0x0, symName: __ZNSt3__116__pad_and_outputB8ue170006IcNS_11char_traitsIcEEEENS_19ostreambuf_iteratorIT_T0_EES6_PKS4_S8_S8_RNS_8ios_baseES4_, symObjAddr: 0x2D2BC, symBinAddr: 0x100030888, symSize: 0x240 }
  - { offsetInCU: 0x38157, offset: 0x38157, size: 0x8, addend: 0x0, symName: __ZNSt3__112__to_addressB8ue170006IcEEPT_S2_, symObjAddr: 0x2D6A4, symBinAddr: 0x100030C70, symSize: 0x14 }
  - { offsetInCU: 0x3818C, offset: 0x3818C, size: 0x8, addend: 0x0, symName: __ZNSt3__19use_facetB8ue170006INS_5ctypeIcEEEERKT_RKNS_6localeE, symObjAddr: 0x2D850, symBinAddr: 0x100030E1C, symSize: 0x2C }
  - { offsetInCU: 0x38767, offset: 0x38767, size: 0x8, addend: 0x0, symName: __ZNSt3__1neB8ue170006ERKNS_14__map_iteratorINS_15__tree_iteratorINS_12__value_typeINS_12basic_stringIcNS_11char_traitsIcEENS_9allocatorIcEEEEiEEPNS_11__tree_nodeIS9_PvEElEEEESH_, symObjAddr: 0x2F0D0, symBinAddr: 0x10003269C, symSize: 0x30 }
  - { offsetInCU: 0x387A4, offset: 0x387A4, size: 0x8, addend: 0x0, symName: __ZNSt3__1neB8ue170006ERKNS_15__tree_iteratorINS_12__value_typeINS_12basic_stringIcNS_11char_traitsIcEENS_9allocatorIcEEEEiEEPNS_11__tree_nodeIS8_PvEElEESF_, symObjAddr: 0x2F414, symBinAddr: 0x1000329E0, symSize: 0x34 }
  - { offsetInCU: 0x387E1, offset: 0x387E1, size: 0x8, addend: 0x0, symName: __ZNSt3__1eqB8ue170006ERKNS_15__tree_iteratorINS_12__value_typeINS_12basic_stringIcNS_11char_traitsIcEENS_9allocatorIcEEEEiEEPNS_11__tree_nodeIS8_PvEElEESF_, symObjAddr: 0x2F448, symBinAddr: 0x100032A14, symSize: 0x30 }
  - { offsetInCU: 0x3881E, offset: 0x3881E, size: 0x8, addend: 0x0, symName: __ZNSt3__17launderB8ue170006IKNS_4pairIKNS_12basic_stringIcNS_11char_traitsIcEENS_9allocatorIcEEEEiEEEEPT_SC_, symObjAddr: 0x2F7E4, symBinAddr: 0x100032DB0, symSize: 0x24 }
  - { offsetInCU: 0x38855, offset: 0x38855, size: 0x8, addend: 0x0, symName: __ZNSt3__19__launderB8ue170006IKNS_4pairIKNS_12basic_stringIcNS_11char_traitsIcEENS_9allocatorIcEEEEiEEEEPT_SC_, symObjAddr: 0x2F808, symBinAddr: 0x100032DD4, symSize: 0x14 }
  - { offsetInCU: 0x3888C, offset: 0x3888C, size: 0x8, addend: 0x0, symName: __ZNSt3__17launderB8ue170006INS_4pairIKNS_12basic_stringIcNS_11char_traitsIcEENS_9allocatorIcEEEEiEEEEPT_SB_, symObjAddr: 0x2FB4C, symBinAddr: 0x100033118, symSize: 0x24 }
  - { offsetInCU: 0x388C3, offset: 0x388C3, size: 0x8, addend: 0x0, symName: __ZNSt3__19__launderB8ue170006INS_4pairIKNS_12basic_stringIcNS_11char_traitsIcEENS_9allocatorIcEEEEiEEEEPT_SB_, symObjAddr: 0x2FB70, symBinAddr: 0x10003313C, symSize: 0x14 }
  - { offsetInCU: 0x388FA, offset: 0x388FA, size: 0x8, addend: 0x0, symName: __ZNSt3__112__to_addressB8ue170006I8RelationEEPT_S3_, symObjAddr: 0x2FF90, symBinAddr: 0x10003355C, symSize: 0x14 }
  - { offsetInCU: 0x3892F, offset: 0x3892F, size: 0x8, addend: 0x0, symName: __ZNSt3__119__allocate_at_leastB8ue170006INS_9allocatorI8RelationEEEENS_19__allocation_resultINS_16allocator_traitsIT_E7pointerEEERS6_m, symObjAddr: 0x305B4, symBinAddr: 0x100033B80, symSize: 0x40 }
  - { offsetInCU: 0x38972, offset: 0x38972, size: 0x8, addend: 0x0, symName: __ZNSt3__142__uninitialized_allocator_move_if_noexceptB8ue170006INS_9allocatorI8RelationEENS_16reverse_iteratorIPS2_EES6_S6_EET2_RT_T0_T1_S7_, symObjAddr: 0x30840, symBinAddr: 0x100033E0C, symSize: 0x12C }
  - { offsetInCU: 0x38A12, offset: 0x38A12, size: 0x8, addend: 0x0, symName: __ZNSt3__14swapB8ue170006IP8RelationEENS_9enable_ifIXaasr21is_move_constructibleIT_EE5valuesr18is_move_assignableIS4_EE5valueEvE4typeERS4_S7_, symObjAddr: 0x309B8, symBinAddr: 0x100033F84, symSize: 0x3C }
  - { offsetInCU: 0x38A63, offset: 0x38A63, size: 0x8, addend: 0x0, symName: __ZNSt3__122__make_exception_guardB8ue170006INS_29_AllocatorDestroyRangeReverseINS_9allocatorI8RelationEENS_16reverse_iteratorIPS3_EEEEEENS_28__exception_guard_exceptionsIT_EESA_, symObjAddr: 0x30B04, symBinAddr: 0x1000340D0, symSize: 0x4C }
  - { offsetInCU: 0x38A99, offset: 0x38A99, size: 0x8, addend: 0x0, symName: __ZNSt3__1neB8ue170006IP8RelationS2_EEbRKNS_16reverse_iteratorIT_EERKNS3_IT0_EE, symObjAddr: 0x30B94, symBinAddr: 0x100034160, symSize: 0x48 }
  - { offsetInCU: 0x38AE5, offset: 0x38AE5, size: 0x8, addend: 0x0, symName: __ZNSt3__112__to_addressB8ue170006INS_16reverse_iteratorIP8RelationEEvEEu7__decayIDTclsr19__to_address_helperIT_EE6__callclsr3stdE7declvalIRKS5_EEEEES7_, symObjAddr: 0x30C10, symBinAddr: 0x1000341DC, symSize: 0x24 }
  - { offsetInCU: 0x38B44, offset: 0x38B44, size: 0x8, addend: 0x0, symName: __ZNSt3__119__allocator_destroyB8ue170006INS_9allocatorI8RelationEENS_16reverse_iteratorINS4_IPS2_EEEES7_EEvRT_T0_T1_, symObjAddr: 0x30EF0, symBinAddr: 0x1000344BC, symSize: 0x70 }
  - { offsetInCU: 0x38BA9, offset: 0x38BA9, size: 0x8, addend: 0x0, symName: __ZNSt3__1neB8ue170006INS_16reverse_iteratorIP8RelationEES4_EEbRKNS1_IT_EERKNS1_IT0_EE, symObjAddr: 0x30F9C, symBinAddr: 0x100034568, symSize: 0x60 }
  - { offsetInCU: 0x38BF5, offset: 0x38BF5, size: 0x8, addend: 0x0, symName: __ZNSt3__112__to_addressB8ue170006INS_16reverse_iteratorINS1_IP8RelationEEEEvEEu7__decayIDTclsr19__to_address_helperIT_EE6__callclsr3stdE7declvalIRKS6_EEEEES8_, symObjAddr: 0x31028, symBinAddr: 0x1000345F4, symSize: 0x24 }
  - { offsetInCU: 0x38C54, offset: 0x38C54, size: 0x8, addend: 0x0, symName: __ZNSt3__14findB8ue170006INS_11__wrap_iterIPKNS_12basic_stringIcNS_11char_traitsIcEENS_9allocatorIcEEEEEES7_EET_SB_SB_RKT0_, symObjAddr: 0x31A28, symBinAddr: 0x100034FF4, symSize: 0x78 }
  - { offsetInCU: 0x38CBC, offset: 0x38CBC, size: 0x8, addend: 0x0, symName: __ZNSt3__113__rewrap_iterB8ue170006INS_11__wrap_iterIPKNS_12basic_stringIcNS_11char_traitsIcEENS_9allocatorIcEEEEEES9_NS_18__unwrap_iter_implISA_Lb1EEEEET_SD_T0_, symObjAddr: 0x31AA0, symBinAddr: 0x10003506C, symSize: 0x4C }
  - { offsetInCU: 0x38D11, offset: 0x38D11, size: 0x8, addend: 0x0, symName: __ZNSt3__111__find_implB8ue170006IPKNS_12basic_stringIcNS_11char_traitsIcEENS_9allocatorIcEEEES8_S6_NS_10__identityEEET_SA_T0_RKT1_RT2_, symObjAddr: 0x31AEC, symBinAddr: 0x1000350B8, symSize: 0x7C }
  - { offsetInCU: 0x38D8B, offset: 0x38D8B, size: 0x8, addend: 0x0, symName: __ZNSt3__113__unwrap_iterB8ue170006INS_11__wrap_iterIPKNS_12basic_stringIcNS_11char_traitsIcEENS_9allocatorIcEEEEEENS_18__unwrap_iter_implISA_Lb1EEELi0EEEDTclsrT0_8__unwrapclsr3stdE7declvalIT_EEEESE_, symObjAddr: 0x31B68, symBinAddr: 0x100035134, symSize: 0x2C }
  - { offsetInCU: 0x38E22, offset: 0x38E22, size: 0x8, addend: 0x0, symName: __ZNSt3__112__to_addressB8ue170006INS_11__wrap_iterIPKNS_12basic_stringIcNS_11char_traitsIcEENS_9allocatorIcEEEEEEvEEu7__decayIDTclsr19__to_address_helperIT_EE6__callclsr3stdE7declvalIRKSB_EEEEESD_, symObjAddr: 0x31C2C, symBinAddr: 0x1000351F8, symSize: 0x24 }
  - { offsetInCU: 0x38EFD, offset: 0x38EFD, size: 0x8, addend: 0x0, symName: __ZNSt3__112__to_addressB8ue170006IKNS_12basic_stringIcNS_11char_traitsIcEENS_9allocatorIcEEEEEEPT_S9_, symObjAddr: 0x31CDC, symBinAddr: 0x1000352A8, symSize: 0x14 }
  - { offsetInCU: 0x38F32, offset: 0x38F32, size: 0x8, addend: 0x0, symName: __ZNSt3__18__invokeB8ue170006IRNS_10__identityEJRKNS_12basic_stringIcNS_11char_traitsIcEENS_9allocatorIcEEEEEEEDTclclsr3stdE7declvalIT_EEspclsr3stdE7declvalIT0_EEEEOSB_DpOSC_, symObjAddr: 0x31CF0, symBinAddr: 0x1000352BC, symSize: 0x2C }
  - { offsetInCU: 0x38FB0, offset: 0x38FB0, size: 0x8, addend: 0x0, symName: __ZNSt3__1neB8ue170006IcNS_11char_traitsIcEENS_9allocatorIcEEEEbRKNS_12basic_stringIT_T0_T1_EESB_, symObjAddr: 0x31D5C, symBinAddr: 0x100035328, symSize: 0x34 }
  - { offsetInCU: 0x39026, offset: 0x39026, size: 0x8, addend: 0x0, symName: __ZNSt3__1neB8ue170006ERKNS_20__map_const_iteratorINS_21__tree_const_iteratorINS_12__value_typeINS_12basic_stringIcNS_11char_traitsIcEENS_9allocatorIcEEEEiEEPNS_11__tree_nodeIS9_PvEElEEEESH_, symObjAddr: 0x3351C, symBinAddr: 0x100036AE8, symSize: 0x30 }
  - { offsetInCU: 0x39063, offset: 0x39063, size: 0x8, addend: 0x0, symName: __ZNSt3__1neB8ue170006ERKNS_21__tree_const_iteratorINS_12__value_typeINS_12basic_stringIcNS_11char_traitsIcEENS_9allocatorIcEEEEiEEPNS_11__tree_nodeIS8_PvEElEESF_, symObjAddr: 0x33624, symBinAddr: 0x100036BF0, symSize: 0x34 }
  - { offsetInCU: 0x390A0, offset: 0x390A0, size: 0x8, addend: 0x0, symName: __ZNSt3__1eqB8ue170006ERKNS_21__tree_const_iteratorINS_12__value_typeINS_12basic_stringIcNS_11char_traitsIcEENS_9allocatorIcEEEEiEEPNS_11__tree_nodeIS8_PvEElEESF_, symObjAddr: 0x33658, symBinAddr: 0x100036C24, symSize: 0x30 }
  - { offsetInCU: 0x39101, offset: 0x39101, size: 0x8, addend: 0x0, symName: __ZNSt3__14nextB8ue170006INS_21__tree_const_iteratorINS_12__value_typeINS_12basic_stringIcNS_11char_traitsIcEENS_9allocatorIcEEEEiEEPNS_11__tree_nodeIS9_PvEElEEEENS_9enable_ifIXsr29__has_input_iterator_categoryIT_EE5valueESG_E4typeESG_NS_15iterator_traitsISG_E15difference_typeE, symObjAddr: 0x33CD8, symBinAddr: 0x1000372A4, symSize: 0x3C }
  - { offsetInCU: 0x39144, offset: 0x39144, size: 0x8, addend: 0x0, symName: __ZNSt3__19__advanceB8ue170006INS_21__tree_const_iteratorINS_12__value_typeINS_12basic_stringIcNS_11char_traitsIcEENS_9allocatorIcEEEEiEEPNS_11__tree_nodeIS9_PvEElEEEEvRT_NS_15iterator_traitsISF_E15difference_typeENS_26bidirectional_iterator_tagE, symObjAddr: 0x33D84, symBinAddr: 0x100037350, symSize: 0xA4 }
  - { offsetInCU: 0x391C1, offset: 0x391C1, size: 0x8, addend: 0x0, symName: __ZNSt3__18distanceB8ue170006IPNS_12basic_stringIcNS_11char_traitsIcEENS_9allocatorIcEEEEEENS_15iterator_traitsIT_E15difference_typeES9_S9_, symObjAddr: 0x348E8, symBinAddr: 0x100037EB4, symSize: 0x2C }
  - { offsetInCU: 0x39204, offset: 0x39204, size: 0x8, addend: 0x0, symName: __ZNSt3__14nextB8ue170006IPNS_12basic_stringIcNS_11char_traitsIcEENS_9allocatorIcEEEEEENS_9enable_ifIXsr29__has_input_iterator_categoryIT_EE5valueES9_E4typeES9_NS_15iterator_traitsIS9_E15difference_typeE, symObjAddr: 0x34914, symBinAddr: 0x100037EE0, symSize: 0x34 }
  - { offsetInCU: 0x39247, offset: 0x39247, size: 0x8, addend: 0x0, symName: __ZNSt3__14copyB8ue170006IPNS_12basic_stringIcNS_11char_traitsIcEENS_9allocatorIcEEEES7_EET0_T_S9_S8_, symObjAddr: 0x34948, symBinAddr: 0x100037F14, symSize: 0x40 }
  - { offsetInCU: 0x392A1, offset: 0x392A1, size: 0x8, addend: 0x0, symName: __ZNSt3__16__copyB8ue170006INS_17_ClassicAlgPolicyEPNS_12basic_stringIcNS_11char_traitsIcEENS_9allocatorIcEEEES8_S8_EENS_4pairIT0_T2_EESA_T1_SB_, symObjAddr: 0x34988, symBinAddr: 0x100037F54, symSize: 0x44 }
  - { offsetInCU: 0x3930E, offset: 0x3930E, size: 0x8, addend: 0x0, symName: __ZNSt3__19__advanceB8ue170006IPNS_12basic_stringIcNS_11char_traitsIcEENS_9allocatorIcEEEEEEvRT_NS_15iterator_traitsIS8_E15difference_typeENS_26random_access_iterator_tagE, symObjAddr: 0x34A50, symBinAddr: 0x10003801C, symSize: 0x30 }
  - { offsetInCU: 0x39357, offset: 0x39357, size: 0x8, addend: 0x0, symName: __ZNSt3__123__dispatch_copy_or_moveB8ue170006INS_17_ClassicAlgPolicyENS_11__copy_loopIS1_EENS_14__copy_trivialEPNS_12basic_stringIcNS_11char_traitsIcEENS_9allocatorIcEEEESB_SB_EENS_4pairIT2_T4_EESD_T3_SE_, symObjAddr: 0x34A80, symBinAddr: 0x10003804C, symSize: 0x44 }
  - { offsetInCU: 0x393D5, offset: 0x393D5, size: 0x8, addend: 0x0, symName: __ZNSt3__121__unwrap_and_dispatchB8ue170006INS_10__overloadINS_11__copy_loopINS_17_ClassicAlgPolicyEEENS_14__copy_trivialEEEPNS_12basic_stringIcNS_11char_traitsIcEENS_9allocatorIcEEEESD_SD_Li0EEENS_4pairIT0_T2_EESF_T1_SG_, symObjAddr: 0x34AC4, symBinAddr: 0x100038090, symSize: 0xB4 }
  - { offsetInCU: 0x39463, offset: 0x39463, size: 0x8, addend: 0x0, symName: __ZNSt3__114__rewrap_rangeB8ue170006IPNS_12basic_stringIcNS_11char_traitsIcEENS_9allocatorIcEEEES7_EET_S8_T0_, symObjAddr: 0x34C00, symBinAddr: 0x1000381CC, symSize: 0x2C }
  - { offsetInCU: 0x394AF, offset: 0x394AF, size: 0x8, addend: 0x0, symName: __ZNSt3__110__distanceB8ue170006IPNS_12basic_stringIcNS_11char_traitsIcEENS_9allocatorIcEEEEEENS_15iterator_traitsIT_E15difference_typeES9_S9_NS_26random_access_iterator_tagE, symObjAddr: 0x34C2C, symBinAddr: 0x1000381F8, symSize: 0x28 }
  - { offsetInCU: 0x394FD, offset: 0x394FD, size: 0x8, addend: 0x0, symName: __ZNSt3__1neB8ue170006ERKNS_15__tree_iteratorI5TuplePNS_11__tree_nodeIS1_PvEElEES8_, symObjAddr: 0x35344, symBinAddr: 0x100038910, symSize: 0x34 }
  - { offsetInCU: 0x3953A, offset: 0x3953A, size: 0x8, addend: 0x0, symName: __ZNSt3__1eqB8ue170006ERKNS_15__tree_iteratorI5TuplePNS_11__tree_nodeIS1_PvEElEES8_, symObjAddr: 0x353A0, symBinAddr: 0x10003896C, symSize: 0x30 }
  - { offsetInCU: 0x39577, offset: 0x39577, size: 0x8, addend: 0x0, symName: __ZNSt3__1neB8ue170006ERKNS_14__map_iteratorINS_15__tree_iteratorINS_12__value_typeINS_12basic_stringIcNS_11char_traitsIcEENS_9allocatorIcEEEE8RelationEEPNS_11__tree_nodeISA_PvEElEEEESI_, symObjAddr: 0x35630, symBinAddr: 0x100038BFC, symSize: 0x30 }
  - { offsetInCU: 0x395B4, offset: 0x395B4, size: 0x8, addend: 0x0, symName: __ZNSt3__1neB8ue170006ERKNS_20__map_const_iteratorINS_21__tree_const_iteratorINS_12__value_typeINS_12basic_stringIcNS_11char_traitsIcEENS_9allocatorIcEEEE8RelationEEPNS_11__tree_nodeISA_PvEElEEEESI_, symObjAddr: 0x35B4C, symBinAddr: 0x100039118, symSize: 0x30 }
  - { offsetInCU: 0x395F1, offset: 0x395F1, size: 0x8, addend: 0x0, symName: __ZNSt3__1neB8ue170006ERKNS_21__tree_const_iteratorINS_12__value_typeINS_12basic_stringIcNS_11char_traitsIcEENS_9allocatorIcEEEE8RelationEEPNS_11__tree_nodeIS9_PvEElEESG_, symObjAddr: 0x35C54, symBinAddr: 0x100039220, symSize: 0x34 }
  - { offsetInCU: 0x3962E, offset: 0x3962E, size: 0x8, addend: 0x0, symName: __ZNSt3__1eqB8ue170006ERKNS_21__tree_const_iteratorINS_12__value_typeINS_12basic_stringIcNS_11char_traitsIcEENS_9allocatorIcEEEE8RelationEEPNS_11__tree_nodeIS9_PvEElEESG_, symObjAddr: 0x35C88, symBinAddr: 0x100039254, symSize: 0x30 }
  - { offsetInCU: 0x3966B, offset: 0x3966B, size: 0x8, addend: 0x0, symName: __ZNSt3__14nextB8ue170006INS_21__tree_const_iteratorINS_12__value_typeINS_12basic_stringIcNS_11char_traitsIcEENS_9allocatorIcEEEE8RelationEEPNS_11__tree_nodeISA_PvEElEEEENS_9enable_ifIXsr29__has_input_iterator_categoryIT_EE5valueESH_E4typeESH_NS_15iterator_traitsISH_E15difference_typeE, symObjAddr: 0x36344, symBinAddr: 0x100039910, symSize: 0x3C }
  - { offsetInCU: 0x396AE, offset: 0x396AE, size: 0x8, addend: 0x0, symName: __ZNSt3__19__advanceB8ue170006INS_21__tree_const_iteratorINS_12__value_typeINS_12basic_stringIcNS_11char_traitsIcEENS_9allocatorIcEEEE8RelationEEPNS_11__tree_nodeISA_PvEElEEEEvRT_NS_15iterator_traitsISG_E15difference_typeENS_26bidirectional_iterator_tagE, symObjAddr: 0x36444, symBinAddr: 0x100039A10, symSize: 0xA4 }
  - { offsetInCU: 0x3972B, offset: 0x3972B, size: 0x8, addend: 0x0, symName: __ZNSt3__1neB8ue170006ERKNS_15__tree_iteratorINS_12__value_typeINS_12basic_stringIcNS_11char_traitsIcEENS_9allocatorIcEEEE8RelationEEPNS_11__tree_nodeIS9_PvEElEESG_, symObjAddr: 0x36758, symBinAddr: 0x100039D24, symSize: 0x34 }
  - { offsetInCU: 0x39768, offset: 0x39768, size: 0x8, addend: 0x0, symName: __ZNSt3__1eqB8ue170006ERKNS_15__tree_iteratorINS_12__value_typeINS_12basic_stringIcNS_11char_traitsIcEENS_9allocatorIcEEEE8RelationEEPNS_11__tree_nodeIS9_PvEElEESG_, symObjAddr: 0x3678C, symBinAddr: 0x100039D58, symSize: 0x30 }
  - { offsetInCU: 0x3980B, offset: 0x3980B, size: 0x8, addend: 0x0, symName: __ZNSt3__1neB8ue170006ERKNS_16__deque_iteratorINS_3setIiNS_4lessIiEENS_9allocatorIiEEEEPS6_RS6_PS7_lLl170EEESC_, symObjAddr: 0x36F78, symBinAddr: 0x10003A544, symSize: 0x34 }
  - { offsetInCU: 0x39848, offset: 0x39848, size: 0x8, addend: 0x0, symName: __ZNSt3__1eqB8ue170006ERKNS_16__deque_iteratorINS_3setIiNS_4lessIiEENS_9allocatorIiEEEEPS6_RS6_PS7_lLl170EEESC_, symObjAddr: 0x3701C, symBinAddr: 0x10003A5E8, symSize: 0x30 }
  - { offsetInCU: 0x39885, offset: 0x39885, size: 0x8, addend: 0x0, symName: __ZNSt3__1neB8ue170006IP9ParameterEEbRKNS_11__wrap_iterIT_EES7_, symObjAddr: 0x378CC, symBinAddr: 0x10003AE98, symSize: 0x34 }
  - { offsetInCU: 0x398C8, offset: 0x398C8, size: 0x8, addend: 0x0, symName: __ZNSt3__1eqB8ue170006IP9ParameterEEbRKNS_11__wrap_iterIT_EES7_, symObjAddr: 0x379BC, symBinAddr: 0x10003AF88, symSize: 0x48 }
  - { offsetInCU: 0x399EA, offset: 0x399EA, size: 0x8, addend: 0x0, symName: __ZNSt3__19make_pairB8ue170006IRNS_12basic_stringIcNS_11char_traitsIcEENS_9allocatorIcEEEERjEENS_4pairINS_18__unwrap_ref_decayIT_E4typeENSA_IT0_E4typeEEEOSB_OSE_, symObjAddr: 0x37A68, symBinAddr: 0x10003B034, symSize: 0x40 }
  - { offsetInCU: 0x39A39, offset: 0x39A39, size: 0x8, addend: 0x0, symName: __ZNSt3__18distanceB8ue170006INS_16__deque_iteratorIiPKiRS2_PKS3_lLl1024EEEEENS_15iterator_traitsIT_E15difference_typeES9_S9_, symObjAddr: 0x39020, symBinAddr: 0x10003C5EC, symSize: 0x4C }
  - { offsetInCU: 0x39A7C, offset: 0x39A7C, size: 0x8, addend: 0x0, symName: __ZNSt3__1neB8ue170006ERKNS_5dequeIiNS_9allocatorIiEEE13__deque_rangeES6_, symObjAddr: 0x397A8, symBinAddr: 0x10003CD74, symSize: 0x34 }
  - { offsetInCU: 0x39AB9, offset: 0x39AB9, size: 0x8, addend: 0x0, symName: __ZNSt3__1eqB8ue170006ERKNS_5dequeIiNS_9allocatorIiEEE13__deque_rangeES6_, symObjAddr: 0x39DDC, symBinAddr: 0x10003D3A8, symSize: 0x30 }
  - { offsetInCU: 0x39AF6, offset: 0x39AF6, size: 0x8, addend: 0x0, symName: __ZNSt3__110__distanceB8ue170006INS_16__deque_iteratorIiPKiRS2_PKS3_lLl1024EEEEENS_15iterator_traitsIT_E15difference_typeES9_S9_NS_26random_access_iterator_tagE, symObjAddr: 0x39F18, symBinAddr: 0x10003D4E4, symSize: 0x38 }
  - { offsetInCU: 0x39B44, offset: 0x39B44, size: 0x8, addend: 0x0, symName: __ZNSt3__1miB8ue170006ERKNS_16__deque_iteratorIiPKiRS1_PKS2_lLl1024EEES8_, symObjAddr: 0x39F50, symBinAddr: 0x10003D51C, symSize: 0xA8 }
  - { offsetInCU: 0x39B81, offset: 0x39B81, size: 0x8, addend: 0x0, symName: __ZNSt3__1neB8ue170006ERKNS_16__deque_iteratorIiPKiRS1_PKS2_lLl1024EEES8_, symObjAddr: 0x39FF8, symBinAddr: 0x10003D5C4, symSize: 0x34 }
  - { offsetInCU: 0x39BBE, offset: 0x39BBE, size: 0x8, addend: 0x0, symName: __ZNSt3__1eqB8ue170006ERKNS_16__deque_iteratorIiPKiRS1_PKS2_lLl1024EEES8_, symObjAddr: 0x3A02C, symBinAddr: 0x10003D5F8, symSize: 0x30 }
  - { offsetInCU: 0x39BFB, offset: 0x39BFB, size: 0x8, addend: 0x0, symName: __ZNSt3__18distanceB8ue170006INS_16__deque_iteratorINS_3setIiNS_4lessIiEENS_9allocatorIiEEEEPKS7_RS8_PKS9_lLl170EEEEENS_15iterator_traitsIT_E15difference_typeESF_SF_, symObjAddr: 0x3A8FC, symBinAddr: 0x10003DEC8, symSize: 0x4C }
  - { offsetInCU: 0x39C3E, offset: 0x39C3E, size: 0x8, addend: 0x0, symName: __ZNSt3__1neB8ue170006ERKNS_5dequeINS_3setIiNS_4lessIiEENS_9allocatorIiEEEENS4_IS6_EEE13__deque_rangeESB_, symObjAddr: 0x3B088, symBinAddr: 0x10003E654, symSize: 0x34 }
  - { offsetInCU: 0x39C7B, offset: 0x39C7B, size: 0x8, addend: 0x0, symName: __ZNSt3__1eqB8ue170006ERKNS_5dequeINS_3setIiNS_4lessIiEENS_9allocatorIiEEEENS4_IS6_EEE13__deque_rangeESB_, symObjAddr: 0x3B6CC, symBinAddr: 0x10003EC98, symSize: 0x30 }
  - { offsetInCU: 0x39CB8, offset: 0x39CB8, size: 0x8, addend: 0x0, symName: __ZNSt3__110__distanceB8ue170006INS_16__deque_iteratorINS_3setIiNS_4lessIiEENS_9allocatorIiEEEEPKS7_RS8_PKS9_lLl170EEEEENS_15iterator_traitsIT_E15difference_typeESF_SF_NS_26random_access_iterator_tagE, symObjAddr: 0x3B808, symBinAddr: 0x10003EDD4, symSize: 0x38 }
  - { offsetInCU: 0x39D06, offset: 0x39D06, size: 0x8, addend: 0x0, symName: __ZNSt3__1miB8ue170006ERKNS_16__deque_iteratorINS_3setIiNS_4lessIiEENS_9allocatorIiEEEEPKS6_RS7_PKS8_lLl170EEESE_, symObjAddr: 0x3B840, symBinAddr: 0x10003EE0C, symSize: 0xB0 }
  - { offsetInCU: 0x39D43, offset: 0x39D43, size: 0x8, addend: 0x0, symName: __ZNSt3__1neB8ue170006ERKNS_16__deque_iteratorINS_3setIiNS_4lessIiEENS_9allocatorIiEEEEPKS6_RS7_PKS8_lLl170EEESE_, symObjAddr: 0x3B8F0, symBinAddr: 0x10003EEBC, symSize: 0x34 }
  - { offsetInCU: 0x39D80, offset: 0x39D80, size: 0x8, addend: 0x0, symName: __ZNSt3__1eqB8ue170006ERKNS_16__deque_iteratorINS_3setIiNS_4lessIiEENS_9allocatorIiEEEEPKS6_RS7_PKS8_lLl170EEESE_, symObjAddr: 0x3B924, symBinAddr: 0x10003EEF0, symSize: 0x30 }
  - { offsetInCU: 0x3AD55, offset: 0x3AD55, size: 0x8, addend: 0x0, symName: __ZSt28__throw_bad_array_new_lengthB8ue170006v, symObjAddr: 0x54E0, symBinAddr: 0x100008AAC, symSize: 0x34 }
  - { offsetInCU: 0x3C279, offset: 0x3C279, size: 0x8, addend: 0x0, symName: __ZNSt3__16vectorI5TokenNS_9allocatorIS1_EEE26__swap_out_circular_bufferERNS_14__split_bufferIS1_RS3_EE, symObjAddr: 0x4D48, symBinAddr: 0x100008314, symSize: 0x110 }
  - { offsetInCU: 0x3C8BB, offset: 0x3C8BB, size: 0x8, addend: 0x0, symName: __ZNSt3__16vectorI9ParameterNS_9allocatorIS1_EEE26__swap_out_circular_bufferERNS_14__split_bufferIS1_RS3_EE, symObjAddr: 0x93B8, symBinAddr: 0x10000C984, symSize: 0x110 }
  - { offsetInCU: 0x3CDC0, offset: 0x3CDC0, size: 0x8, addend: 0x0, symName: __ZNSt3__16vectorI9PredicateNS_9allocatorIS1_EEE26__swap_out_circular_bufferERNS_14__split_bufferIS1_RS3_EE, symObjAddr: 0xAC0C, symBinAddr: 0x10000E1D8, symSize: 0x110 }
  - { offsetInCU: 0x3D198, offset: 0x3D198, size: 0x8, addend: 0x0, symName: __ZNSt3__16vectorI4RuleNS_9allocatorIS1_EEE26__swap_out_circular_bufferERNS_14__split_bufferIS1_RS3_EE, symObjAddr: 0x101D0, symBinAddr: 0x10001379C, symSize: 0x110 }
  - { offsetInCU: 0x3E476, offset: 0x3E476, size: 0x8, addend: 0x0, symName: __ZNSt3__16vectorINS_12basic_stringIcNS_11char_traitsIcEENS_9allocatorIcEEEENS4_IS6_EEE26__swap_out_circular_bufferERNS_14__split_bufferIS6_RS7_EE, symObjAddr: 0x178F0, symBinAddr: 0x10001AEBC, symSize: 0x110 }
  - { offsetInCU: 0x3F105, offset: 0x3F105, size: 0x8, addend: 0x0, symName: __ZNSt3__16vectorI8RelationNS_9allocatorIS1_EEE26__swap_out_circular_bufferERNS_14__split_bufferIS1_RS3_EE, symObjAddr: 0x3019C, symBinAddr: 0x100033768, symSize: 0x110 }
  - { offsetInCU: 0x3F9B6, offset: 0x3F9B6, size: 0x8, addend: 0x0, symName: __Z7isalphai, symObjAddr: 0x3B30, symBinAddr: 0x1000070FC, symSize: 0x28 }
  - { offsetInCU: 0x3FA0C, offset: 0x3FA0C, size: 0x8, addend: 0x0, symName: __Z7isdigiti, symObjAddr: 0x3BAC, symBinAddr: 0x100007178, symSize: 0x28 }
  - { offsetInCU: 0x3FA8D, offset: 0x3FA8D, size: 0x8, addend: 0x0, symName: __Z7isspacei, symObjAddr: 0x3B84, symBinAddr: 0x100007150, symSize: 0x28 }
  - { offsetInCU: 0x41670, offset: 0x41670, size: 0x8, addend: 0x0, symName: _main, symObjAddr: 0x0, symBinAddr: 0x1000035CC, symSize: 0x570 }
  - { offsetInCU: 0x4182D, offset: 0x4182D, size: 0x8, addend: 0x0, symName: __ZNSt3__114basic_ifstreamIcNS_11char_traitsIcEEEC1Ev, symObjAddr: 0x570, symBinAddr: 0x100003B3C, symSize: 0xE8 }
  - { offsetInCU: 0x418C7, offset: 0x418C7, size: 0x8, addend: 0x0, symName: __ZNSt3__118basic_stringstreamIcNS_11char_traitsIcEENS_9allocatorIcEEEC1B8ue170006Ev, symObjAddr: 0x658, symBinAddr: 0x100003C24, symSize: 0x104 }
  - { offsetInCU: 0x418F1, offset: 0x418F1, size: 0x8, addend: 0x0, symName: __ZNKSt3__114basic_ifstreamIcNS_11char_traitsIcEEE5rdbufEv, symObjAddr: 0x75C, symBinAddr: 0x100003D28, symSize: 0x18 }
  - { offsetInCU: 0x41919, offset: 0x41919, size: 0x8, addend: 0x0, symName: __ZNKSt3__118basic_stringstreamIcNS_11char_traitsIcEENS_9allocatorIcEEE3strB8ue170006Ev, symObjAddr: 0x774, symBinAddr: 0x100003D40, symSize: 0x30 }
  - { offsetInCU: 0x4193F, offset: 0x4193F, size: 0x8, addend: 0x0, symName: __ZNSt3__114basic_ifstreamIcNS_11char_traitsIcEEE5closeEv, symObjAddr: 0x7A4, symBinAddr: 0x100003D70, symSize: 0x58 }
  - { offsetInCU: 0x41A0B, offset: 0x41A0B, size: 0x8, addend: 0x0, symName: __ZN7ScannerC1ERKNSt3__112basic_stringIcNS0_11char_traitsIcEENS0_9allocatorIcEEEE, symObjAddr: 0x7FC, symBinAddr: 0x100003DC8, symSize: 0x34 }
  - { offsetInCU: 0x41A43, offset: 0x41A43, size: 0x8, addend: 0x0, symName: __ZN7Scanner9scanTokenEv, symObjAddr: 0x830, symBinAddr: 0x100003DFC, symSize: 0x1260 }
  - { offsetInCU: 0x4205F, offset: 0x4205F, size: 0x8, addend: 0x0, symName: __ZN6ParserC1ERKNSt3__16vectorI5TokenNS0_9allocatorIS2_EEEE, symObjAddr: 0x1BB8, symBinAddr: 0x100005184, symSize: 0x34 }
  - { offsetInCU: 0x42097, offset: 0x42097, size: 0x8, addend: 0x0, symName: __ZN6Parser5parseEv, symObjAddr: 0x1BEC, symBinAddr: 0x1000051B8, symSize: 0xF8 }
  - { offsetInCU: 0x420CC, offset: 0x420CC, size: 0x8, addend: 0x0, symName: __ZN6Parser10getDatalogEv, symObjAddr: 0x1CE4, symBinAddr: 0x1000052B0, symSize: 0x3C }
  - { offsetInCU: 0x420FD, offset: 0x420FD, size: 0x8, addend: 0x0, symName: __ZN14DatalogProgramC1ERKS_, symObjAddr: 0x1D20, symBinAddr: 0x1000052EC, symSize: 0x34 }
  - { offsetInCU: 0x424D2, offset: 0x424D2, size: 0x8, addend: 0x0, symName: __ZN11InterpreterC1E14DatalogProgram, symObjAddr: 0x1D54, symBinAddr: 0x100005320, symSize: 0x34 }
  - { offsetInCU: 0x4250B, offset: 0x4250B, size: 0x8, addend: 0x0, symName: __ZN14DatalogProgramD1Ev, symObjAddr: 0x1D88, symBinAddr: 0x100005354, symSize: 0x2C }
  - { offsetInCU: 0x42537, offset: 0x42537, size: 0x8, addend: 0x0, symName: __ZN14DatalogProgram8getRulesEv, symObjAddr: 0x1DB4, symBinAddr: 0x100005380, symSize: 0x3C }
  - { offsetInCU: 0x4255D, offset: 0x4255D, size: 0x8, addend: 0x0, symName: __ZN11Interpreter9makeGraphERKNSt3__16vectorI4RuleNS0_9allocatorIS2_EEEE, symObjAddr: 0x1DF0, symBinAddr: 0x1000053BC, symSize: 0x318 }
  - { offsetInCU: 0x42627, offset: 0x42627, size: 0x8, addend: 0x0, symName: __ZN5GraphC1ERKS_, symObjAddr: 0x2108, symBinAddr: 0x1000056D4, symSize: 0x34 }
  - { offsetInCU: 0x4265C, offset: 0x4265C, size: 0x8, addend: 0x0, symName: __ZNSt3__113basic_ostreamIcNS_11char_traitsIcEEElsB8ue170006EPFRS3_S4_E, symObjAddr: 0x21D0, symBinAddr: 0x10000579C, symSize: 0x2C }
  - { offsetInCU: 0x42690, offset: 0x42690, size: 0x8, addend: 0x0, symName: __ZN5Graph8toStringEv, symObjAddr: 0x2254, symBinAddr: 0x100005820, symSize: 0x1B8 }
  - { offsetInCU: 0x42712, offset: 0x42712, size: 0x8, addend: 0x0, symName: __ZN5Graph11doDFSforestEv, symObjAddr: 0x240C, symBinAddr: 0x1000059D8, symSize: 0x10C }
  - { offsetInCU: 0x427DA, offset: 0x427DA, size: 0x8, addend: 0x0, symName: __ZN5Graph12getPostorderEv, symObjAddr: 0x2518, symBinAddr: 0x100005AE4, symSize: 0x3C }
  - { offsetInCU: 0x42800, offset: 0x42800, size: 0x8, addend: 0x0, symName: __ZN5Graph11doSCCforestENSt3__15stackIiNS0_5dequeIiNS0_9allocatorIiEEEEEE, symObjAddr: 0x2554, symBinAddr: 0x100005B20, symSize: 0x284 }
  - { offsetInCU: 0x42901, offset: 0x42901, size: 0x8, addend: 0x0, symName: __ZNSt3__15stackIiNS_5dequeIiNS_9allocatorIiEEEEEC1B8ue170006ERKS5_, symObjAddr: 0x27D8, symBinAddr: 0x100005DA4, symSize: 0x34 }
  - { offsetInCU: 0x42939, offset: 0x42939, size: 0x8, addend: 0x0, symName: __ZNSt3__15stackIiNS_5dequeIiNS_9allocatorIiEEEEED1Ev, symObjAddr: 0x280C, symBinAddr: 0x100005DD8, symSize: 0x2C }
  - { offsetInCU: 0x42965, offset: 0x42965, size: 0x8, addend: 0x0, symName: __ZN11Interpreter13evaluateRulesE5GraphNSt3__15queueINS1_3setIiNS1_4lessIiEENS1_9allocatorIiEEEENS1_5dequeIS8_NS6_IS8_EEEEEE, symObjAddr: 0x2838, symBinAddr: 0x100005E04, symSize: 0x74C }
  - { offsetInCU: 0x42AFB, offset: 0x42AFB, size: 0x8, addend: 0x0, symName: __ZNSt3__15queueINS_3setIiNS_4lessIiEENS_9allocatorIiEEEENS_5dequeIS6_NS4_IS6_EEEEEC1B8ue170006ERKSA_, symObjAddr: 0x2F84, symBinAddr: 0x100006550, symSize: 0x34 }
  - { offsetInCU: 0x42B34, offset: 0x42B34, size: 0x8, addend: 0x0, symName: __ZNSt3__15queueINS_3setIiNS_4lessIiEENS_9allocatorIiEEEENS_5dequeIS6_NS4_IS6_EEEEED1Ev, symObjAddr: 0x2FB8, symBinAddr: 0x100006584, symSize: 0x2C }
  - { offsetInCU: 0x42B61, offset: 0x42B61, size: 0x8, addend: 0x0, symName: __ZN5GraphD1Ev, symObjAddr: 0x2FE4, symBinAddr: 0x1000065B0, symSize: 0x2C }
  - { offsetInCU: 0x42B8D, offset: 0x42B8D, size: 0x8, addend: 0x0, symName: __ZN11Interpreter15evaluateQueriesEv, symObjAddr: 0x3010, symBinAddr: 0x1000065DC, symSize: 0x2E0 }
  - { offsetInCU: 0x42BFF, offset: 0x42BFF, size: 0x8, addend: 0x0, symName: __ZNSt3__14pairI5GraphS1_ED1Ev, symObjAddr: 0x32F0, symBinAddr: 0x1000068BC, symSize: 0x2C }
  - { offsetInCU: 0x42C2B, offset: 0x42C2B, size: 0x8, addend: 0x0, symName: __ZNSt3__16vectorI4RuleNS_9allocatorIS1_EEED1B8ue170006Ev, symObjAddr: 0x331C, symBinAddr: 0x1000068E8, symSize: 0x2C }
  - { offsetInCU: 0x42C55, offset: 0x42C55, size: 0x8, addend: 0x0, symName: __ZN11InterpreterD1Ev, symObjAddr: 0x3348, symBinAddr: 0x100006914, symSize: 0x2C }
  - { offsetInCU: 0x42C81, offset: 0x42C81, size: 0x8, addend: 0x0, symName: __ZN6ParserD1Ev, symObjAddr: 0x3374, symBinAddr: 0x100006940, symSize: 0x2C }
  - { offsetInCU: 0x42CAD, offset: 0x42CAD, size: 0x8, addend: 0x0, symName: __ZNSt3__16vectorI5TokenNS_9allocatorIS1_EEED1B8ue170006Ev, symObjAddr: 0x33A0, symBinAddr: 0x10000696C, symSize: 0x2C }
  - { offsetInCU: 0x42CD7, offset: 0x42CD7, size: 0x8, addend: 0x0, symName: __ZN7ScannerD1Ev, symObjAddr: 0x33CC, symBinAddr: 0x100006998, symSize: 0x2C }
  - { offsetInCU: 0x42D09, offset: 0x42D09, size: 0x8, addend: 0x0, symName: __ZNSt3__118basic_stringstreamIcNS_11char_traitsIcEENS_9allocatorIcEEED1Ev, symObjAddr: 0x33F8, symBinAddr: 0x1000069C4, symSize: 0x40 }
  - { offsetInCU: 0x42D3C, offset: 0x42D3C, size: 0x8, addend: 0x0, symName: __ZNSt3__114basic_ifstreamIcNS_11char_traitsIcEEED1Ev, symObjAddr: 0x3438, symBinAddr: 0x100006A04, symSize: 0x40 }
  - { offsetInCU: 0x42D69, offset: 0x42D69, size: 0x8, addend: 0x0, symName: __ZN7ScannerC2ERKNSt3__112basic_stringIcNS0_11char_traitsIcEENS0_9allocatorIcEEEE, symObjAddr: 0x3478, symBinAddr: 0x100006A44, symSize: 0x48 }
  - { offsetInCU: 0x42DA1, offset: 0x42DA1, size: 0x8, addend: 0x0, symName: __ZNSt3__16vectorI5TokenNS_9allocatorIS1_EEEC1B8ue170006Ev, symObjAddr: 0x34C0, symBinAddr: 0x100006A8C, symSize: 0x2C }
  - { offsetInCU: 0x42DCB, offset: 0x42DCB, size: 0x8, addend: 0x0, symName: __ZNSt3__16vectorI5TokenNS_9allocatorIS1_EEEC2B8ue170006Ev, symObjAddr: 0x34EC, symBinAddr: 0x100006AB8, symSize: 0x4C }
  - { offsetInCU: 0x42E01, offset: 0x42E01, size: 0x8, addend: 0x0, symName: __ZNSt3__117__compressed_pairIP5TokenNS_9allocatorIS1_EEEC1B8ue170006IDnNS_18__default_init_tagEEEOT_OT0_, symObjAddr: 0x3538, symBinAddr: 0x100006B04, symSize: 0x3C }
  - { offsetInCU: 0x42E59, offset: 0x42E59, size: 0x8, addend: 0x0, symName: __ZNSt3__117__compressed_pairIP5TokenNS_9allocatorIS1_EEEC2B8ue170006IDnNS_18__default_init_tagEEEOT_OT0_, symObjAddr: 0x3580, symBinAddr: 0x100006B4C, symSize: 0x40 }
  - { offsetInCU: 0x42EB1, offset: 0x42EB1, size: 0x8, addend: 0x0, symName: __ZNSt3__122__compressed_pair_elemIP5TokenLi0ELb0EEC2B8ue170006IDnvEEOT_, symObjAddr: 0x35C0, symBinAddr: 0x100006B8C, symSize: 0x1C }
  - { offsetInCU: 0x42EF3, offset: 0x42EF3, size: 0x8, addend: 0x0, symName: __ZNSt3__122__compressed_pair_elemINS_9allocatorI5TokenEELi1ELb1EEC2B8ue170006ENS_18__default_init_tagE, symObjAddr: 0x35DC, symBinAddr: 0x100006BA8, symSize: 0x2C }
  - { offsetInCU: 0x42F28, offset: 0x42F28, size: 0x8, addend: 0x0, symName: __ZNSt3__19allocatorI5TokenEC2B8ue170006Ev, symObjAddr: 0x3608, symBinAddr: 0x100006BD4, symSize: 0x2C }
  - { offsetInCU: 0x42F52, offset: 0x42F52, size: 0x8, addend: 0x0, symName: __ZNSt3__116__non_trivial_ifILb1ENS_9allocatorI5TokenEEEC2B8ue170006Ev, symObjAddr: 0x3634, symBinAddr: 0x100006C00, symSize: 0x14 }
  - { offsetInCU: 0x42F7C, offset: 0x42F7C, size: 0x8, addend: 0x0, symName: __ZNKSt3__112basic_stringIcNS_11char_traitsIcEENS_9allocatorIcEEE5emptyB8ue170006Ev, symObjAddr: 0x3648, symBinAddr: 0x100006C14, symSize: 0x30 }
  - { offsetInCU: 0x42FA2, offset: 0x42FA2, size: 0x8, addend: 0x0, symName: __ZN5TokenC1Ev, symObjAddr: 0x3678, symBinAddr: 0x100006C44, symSize: 0x2C }
  - { offsetInCU: 0x42FD2, offset: 0x42FD2, size: 0x8, addend: 0x0, symName: __ZNSt3__112basic_stringIcNS_11char_traitsIcEENS_9allocatorIcEEEC1B8ue170006ILi0EEEPKc, symObjAddr: 0x36A4, symBinAddr: 0x100006C70, symSize: 0x34 }
  - { offsetInCU: 0x43011, offset: 0x43011, size: 0x8, addend: 0x0, symName: __ZN5TokenC1E9TokenTypeNSt3__112basic_stringIcNS1_11char_traitsIcEENS1_9allocatorIcEEEEi, symObjAddr: 0x36D8, symBinAddr: 0x100006CA4, symSize: 0x44 }
  - { offsetInCU: 0x4306C, offset: 0x4306C, size: 0x8, addend: 0x0, symName: __ZN5TokenaSEOS_, symObjAddr: 0x371C, symBinAddr: 0x100006CE8, symSize: 0x54 }
  - { offsetInCU: 0x4309D, offset: 0x4309D, size: 0x8, addend: 0x0, symName: __ZN5TokenD1Ev, symObjAddr: 0x3770, symBinAddr: 0x100006D3C, symSize: 0x2C }
  - { offsetInCU: 0x430C9, offset: 0x430C9, size: 0x8, addend: 0x0, symName: __ZNKSt3__112basic_stringIcNS_11char_traitsIcEENS_9allocatorIcEEE6substrB8ue170006Emm, symObjAddr: 0x379C, symBinAddr: 0x100006D68, symSize: 0x68 }
  - { offsetInCU: 0x4310D, offset: 0x4310D, size: 0x8, addend: 0x0, symName: __ZNSt3__112basic_stringIcNS_11char_traitsIcEENS_9allocatorIcEEEaSB8ue170006EOS5_, symObjAddr: 0x3804, symBinAddr: 0x100006DD0, symSize: 0x34 }
  - { offsetInCU: 0x43142, offset: 0x43142, size: 0x8, addend: 0x0, symName: __ZN7Scanner9isKeyWordENSt3__112basic_stringIcNS0_11char_traitsIcEENS0_9allocatorIcEEEES6_, symObjAddr: 0x3838, symBinAddr: 0x100006E04, symSize: 0x1CC }
  - { offsetInCU: 0x43186, offset: 0x43186, size: 0x8, addend: 0x0, symName: __ZN7Scanner11checkStringENSt3__112basic_stringIcNS0_11char_traitsIcEENS0_9allocatorIcEEEE, symObjAddr: 0x3A04, symBinAddr: 0x100006FD0, symSize: 0x78 }
  - { offsetInCU: 0x431BB, offset: 0x431BB, size: 0x8, addend: 0x0, symName: __ZNSt3__112basic_stringIcNS_11char_traitsIcEENS_9allocatorIcEEEaSB8ue170006EPKc, symObjAddr: 0x3A7C, symBinAddr: 0x100007048, symSize: 0x2C }
  - { offsetInCU: 0x431F0, offset: 0x431F0, size: 0x8, addend: 0x0, symName: __ZNSt3__112basic_stringIcNS_11char_traitsIcEENS_9allocatorIcEEEC1B8ue170006Emc, symObjAddr: 0x3AA8, symBinAddr: 0x100007074, symSize: 0x3C }
  - { offsetInCU: 0x43238, offset: 0x43238, size: 0x8, addend: 0x0, symName: __ZNSt3__112basic_stringIcNS_11char_traitsIcEENS_9allocatorIcEEE6appendB8ue170006ERKS5_, symObjAddr: 0x3AE4, symBinAddr: 0x1000070B0, symSize: 0x4C }
  - { offsetInCU: 0x4326D, offset: 0x4326D, size: 0x8, addend: 0x0, symName: __ZNSt3__112basic_stringIcNS_11char_traitsIcEENS_9allocatorIcEEEC1B8ue170006Ev, symObjAddr: 0x3B58, symBinAddr: 0x100007124, symSize: 0x2C }
  - { offsetInCU: 0x43297, offset: 0x43297, size: 0x8, addend: 0x0, symName: __ZNK5Token7getTypeEv, symObjAddr: 0x3BD4, symBinAddr: 0x1000071A0, symSize: 0x18 }
  - { offsetInCU: 0x432BD, offset: 0x432BD, size: 0x8, addend: 0x0, symName: __ZNSt3__16vectorI5TokenNS_9allocatorIS1_EEE9push_backB8ue170006ERKS1_, symObjAddr: 0x3BEC, symBinAddr: 0x1000071B8, symSize: 0x6C }
  - { offsetInCU: 0x432F4, offset: 0x432F4, size: 0x8, addend: 0x0, symName: __ZNKSt3__112basic_stringIcNS_11char_traitsIcEENS_9allocatorIcEEE6lengthB8ue170006Ev, symObjAddr: 0x3C58, symBinAddr: 0x100007224, symSize: 0x24 }
  - { offsetInCU: 0x4331A, offset: 0x4331A, size: 0x8, addend: 0x0, symName: __ZNSt3__16vectorI5TokenNS_9allocatorIS1_EEEC1ERKS4_, symObjAddr: 0x3C7C, symBinAddr: 0x100007248, symSize: 0x34 }
  - { offsetInCU: 0x43355, offset: 0x43355, size: 0x8, addend: 0x0, symName: __ZNKSt3__112basic_stringIcNS_11char_traitsIcEENS_9allocatorIcEEE4sizeB8ue170006Ev, symObjAddr: 0x3CB0, symBinAddr: 0x10000727C, symSize: 0x54 }
  - { offsetInCU: 0x4337B, offset: 0x4337B, size: 0x8, addend: 0x0, symName: __ZNKSt3__112basic_stringIcNS_11char_traitsIcEENS_9allocatorIcEEE9__is_longB8ue170006Ev, symObjAddr: 0x3D04, symBinAddr: 0x1000072D0, symSize: 0x38 }
  - { offsetInCU: 0x433A1, offset: 0x433A1, size: 0x8, addend: 0x0, symName: __ZNKSt3__112basic_stringIcNS_11char_traitsIcEENS_9allocatorIcEEE15__get_long_sizeB8ue170006Ev, symObjAddr: 0x3D3C, symBinAddr: 0x100007308, symSize: 0x28 }
  - { offsetInCU: 0x433C7, offset: 0x433C7, size: 0x8, addend: 0x0, symName: __ZNKSt3__112basic_stringIcNS_11char_traitsIcEENS_9allocatorIcEEE16__get_short_sizeB8ue170006Ev, symObjAddr: 0x3D64, symBinAddr: 0x100007330, symSize: 0x34 }
  - { offsetInCU: 0x433ED, offset: 0x433ED, size: 0x8, addend: 0x0, symName: __ZNKSt3__117__compressed_pairINS_12basic_stringIcNS_11char_traitsIcEENS_9allocatorIcEEE5__repES5_E5firstB8ue170006Ev, symObjAddr: 0x3D98, symBinAddr: 0x100007364, symSize: 0x24 }
  - { offsetInCU: 0x43413, offset: 0x43413, size: 0x8, addend: 0x0, symName: __ZNKSt3__122__compressed_pair_elemINS_12basic_stringIcNS_11char_traitsIcEENS_9allocatorIcEEE5__repELi0ELb0EE5__getB8ue170006Ev, symObjAddr: 0x3DBC, symBinAddr: 0x100007388, symSize: 0x14 }
  - { offsetInCU: 0x43439, offset: 0x43439, size: 0x8, addend: 0x0, symName: __ZN5TokenC2Ev, symObjAddr: 0x3DD0, symBinAddr: 0x10000739C, symSize: 0x7C }
  - { offsetInCU: 0x43463, offset: 0x43463, size: 0x8, addend: 0x0, symName: __ZNSt3__112basic_stringIcNS_11char_traitsIcEENS_9allocatorIcEEEC2B8ue170006ILi0EEEPKc, symObjAddr: 0x3E4C, symBinAddr: 0x100007418, symSize: 0x58 }
  - { offsetInCU: 0x434A2, offset: 0x434A2, size: 0x8, addend: 0x0, symName: __ZNSt3__117__compressed_pairINS_12basic_stringIcNS_11char_traitsIcEENS_9allocatorIcEEE5__repES5_EC1B8ue170006INS_18__default_init_tagESA_EEOT_OT0_, symObjAddr: 0x3EA4, symBinAddr: 0x100007470, symSize: 0x3C }
  - { offsetInCU: 0x434FA, offset: 0x434FA, size: 0x8, addend: 0x0, symName: __ZNSt3__111char_traitsIcE6lengthB8ue170006EPKc, symObjAddr: 0x3EE0, symBinAddr: 0x1000074AC, symSize: 0x34 }
  - { offsetInCU: 0x4351D, offset: 0x4351D, size: 0x8, addend: 0x0, symName: __ZNSt3__117__compressed_pairINS_12basic_stringIcNS_11char_traitsIcEENS_9allocatorIcEEE5__repES5_EC2B8ue170006INS_18__default_init_tagESA_EEOT_OT0_, symObjAddr: 0x3F14, symBinAddr: 0x1000074E0, symSize: 0x3C }
  - { offsetInCU: 0x43575, offset: 0x43575, size: 0x8, addend: 0x0, symName: __ZNSt3__122__compressed_pair_elemINS_12basic_stringIcNS_11char_traitsIcEENS_9allocatorIcEEE5__repELi0ELb0EEC2B8ue170006ENS_18__default_init_tagE, symObjAddr: 0x3F50, symBinAddr: 0x10000751C, symSize: 0x14 }
  - { offsetInCU: 0x435AA, offset: 0x435AA, size: 0x8, addend: 0x0, symName: __ZNSt3__122__compressed_pair_elemINS_9allocatorIcEELi1ELb1EEC2B8ue170006ENS_18__default_init_tagE, symObjAddr: 0x3F64, symBinAddr: 0x100007530, symSize: 0x2C }
  - { offsetInCU: 0x435DF, offset: 0x435DF, size: 0x8, addend: 0x0, symName: __ZNSt3__19allocatorIcEC2B8ue170006Ev, symObjAddr: 0x3F90, symBinAddr: 0x10000755C, symSize: 0x2C }
  - { offsetInCU: 0x43609, offset: 0x43609, size: 0x8, addend: 0x0, symName: __ZNSt3__116__non_trivial_ifILb1ENS_9allocatorIcEEEC2B8ue170006Ev, symObjAddr: 0x3FBC, symBinAddr: 0x100007588, symSize: 0x14 }
  - { offsetInCU: 0x43633, offset: 0x43633, size: 0x8, addend: 0x0, symName: __ZN5TokenC2E9TokenTypeNSt3__112basic_stringIcNS1_11char_traitsIcEENS1_9allocatorIcEEEEi, symObjAddr: 0x3FF4, symBinAddr: 0x1000075C0, symSize: 0x58 }
  - { offsetInCU: 0x43688, offset: 0x43688, size: 0x8, addend: 0x0, symName: __ZN5TokenD2Ev, symObjAddr: 0x404C, symBinAddr: 0x100007618, symSize: 0x30 }
  - { offsetInCU: 0x436B4, offset: 0x436B4, size: 0x8, addend: 0x0, symName: __ZNSt3__19allocatorIcEC1B8ue170006Ev, symObjAddr: 0x407C, symBinAddr: 0x100007648, symSize: 0x2C }
  - { offsetInCU: 0x436DE, offset: 0x436DE, size: 0x8, addend: 0x0, symName: __ZNSt3__112basic_stringIcNS_11char_traitsIcEENS_9allocatorIcEEE13__move_assignB8ue170006ERS5_NS_17integral_constantIbLb1EEE, symObjAddr: 0x40A8, symBinAddr: 0x100007674, symSize: 0xC8 }
  - { offsetInCU: 0x43721, offset: 0x43721, size: 0x8, addend: 0x0, symName: __ZNSt3__116allocator_traitsINS_9allocatorIcEEE10deallocateB8ue170006ERS2_Pcm, symObjAddr: 0x4170, symBinAddr: 0x10000773C, symSize: 0x34 }
  - { offsetInCU: 0x43763, offset: 0x43763, size: 0x8, addend: 0x0, symName: __ZNSt3__112basic_stringIcNS_11char_traitsIcEENS_9allocatorIcEEE7__allocB8ue170006Ev, symObjAddr: 0x41A4, symBinAddr: 0x100007770, symSize: 0x24 }
  - { offsetInCU: 0x43789, offset: 0x43789, size: 0x8, addend: 0x0, symName: __ZNSt3__112basic_stringIcNS_11char_traitsIcEENS_9allocatorIcEEE18__get_long_pointerB8ue170006Ev, symObjAddr: 0x41C8, symBinAddr: 0x100007794, symSize: 0x28 }
  - { offsetInCU: 0x437AF, offset: 0x437AF, size: 0x8, addend: 0x0, symName: __ZNKSt3__112basic_stringIcNS_11char_traitsIcEENS_9allocatorIcEEE14__get_long_capB8ue170006Ev, symObjAddr: 0x41F0, symBinAddr: 0x1000077BC, symSize: 0x30 }
  - { offsetInCU: 0x437D5, offset: 0x437D5, size: 0x8, addend: 0x0, symName: __ZNSt3__112basic_stringIcNS_11char_traitsIcEENS_9allocatorIcEEE19__move_assign_allocB8ue170006ERS5_, symObjAddr: 0x4220, symBinAddr: 0x1000077EC, symSize: 0x2C }
  - { offsetInCU: 0x4380A, offset: 0x4380A, size: 0x8, addend: 0x0, symName: __ZNSt3__117__compressed_pairINS_12basic_stringIcNS_11char_traitsIcEENS_9allocatorIcEEE5__repES5_E5firstB8ue170006Ev, symObjAddr: 0x424C, symBinAddr: 0x100007818, symSize: 0x24 }
  - { offsetInCU: 0x43830, offset: 0x43830, size: 0x8, addend: 0x0, symName: __ZNSt3__112basic_stringIcNS_11char_traitsIcEENS_9allocatorIcEEE16__set_short_sizeB8ue170006Em, symObjAddr: 0x4270, symBinAddr: 0x10000783C, symSize: 0x78 }
  - { offsetInCU: 0x43865, offset: 0x43865, size: 0x8, addend: 0x0, symName: __ZNSt3__111char_traitsIcE6assignB8ue170006ERcRKc, symObjAddr: 0x42E8, symBinAddr: 0x1000078B4, symSize: 0x24 }
  - { offsetInCU: 0x43896, offset: 0x43896, size: 0x8, addend: 0x0, symName: __ZNSt3__112basic_stringIcNS_11char_traitsIcEENS_9allocatorIcEEE19__get_short_pointerB8ue170006Ev, symObjAddr: 0x430C, symBinAddr: 0x1000078D8, symSize: 0x28 }
  - { offsetInCU: 0x438BC, offset: 0x438BC, size: 0x8, addend: 0x0, symName: __ZNSt3__19allocatorIcE10deallocateB8ue170006EPcm, symObjAddr: 0x4334, symBinAddr: 0x100007900, symSize: 0x40 }
  - { offsetInCU: 0x438FE, offset: 0x438FE, size: 0x8, addend: 0x0, symName: __ZNSt3__117__compressed_pairINS_12basic_stringIcNS_11char_traitsIcEENS_9allocatorIcEEE5__repES5_E6secondB8ue170006Ev, symObjAddr: 0x449C, symBinAddr: 0x100007A68, symSize: 0x24 }
  - { offsetInCU: 0x43924, offset: 0x43924, size: 0x8, addend: 0x0, symName: __ZNSt3__122__compressed_pair_elemINS_9allocatorIcEELi1ELb1EE5__getB8ue170006Ev, symObjAddr: 0x44C0, symBinAddr: 0x100007A8C, symSize: 0x14 }
  - { offsetInCU: 0x4394A, offset: 0x4394A, size: 0x8, addend: 0x0, symName: __ZNSt3__112basic_stringIcNS_11char_traitsIcEENS_9allocatorIcEEE19__move_assign_allocB8ue170006ERS5_NS_17integral_constantIbLb1EEE, symObjAddr: 0x44D4, symBinAddr: 0x100007AA0, symSize: 0x38 }
  - { offsetInCU: 0x4398B, offset: 0x4398B, size: 0x8, addend: 0x0, symName: __ZNSt3__122__compressed_pair_elemINS_12basic_stringIcNS_11char_traitsIcEENS_9allocatorIcEEE5__repELi0ELb0EE5__getB8ue170006Ev, symObjAddr: 0x450C, symBinAddr: 0x100007AD8, symSize: 0x14 }
  - { offsetInCU: 0x439B1, offset: 0x439B1, size: 0x8, addend: 0x0, symName: __ZNSt3__114pointer_traitsIPcE10pointer_toB8ue170006ERc, symObjAddr: 0x4520, symBinAddr: 0x100007AEC, symSize: 0x14 }
  - { offsetInCU: 0x439D4, offset: 0x439D4, size: 0x8, addend: 0x0, symName: __ZNSt3__112basic_stringIcNS_11char_traitsIcEENS_9allocatorIcEEEC2B8ue170006Emc, symObjAddr: 0x4534, symBinAddr: 0x100007B00, symSize: 0x4C }
  - { offsetInCU: 0x43A1C, offset: 0x43A1C, size: 0x8, addend: 0x0, symName: __ZNKSt3__112basic_stringIcNS_11char_traitsIcEENS_9allocatorIcEEE4dataB8ue170006Ev, symObjAddr: 0x4580, symBinAddr: 0x100007B4C, symSize: 0x28 }
  - { offsetInCU: 0x43A42, offset: 0x43A42, size: 0x8, addend: 0x0, symName: __ZNKSt3__112basic_stringIcNS_11char_traitsIcEENS_9allocatorIcEEE13__get_pointerB8ue170006Ev, symObjAddr: 0x45BC, symBinAddr: 0x100007B88, symSize: 0x54 }
  - { offsetInCU: 0x43A68, offset: 0x43A68, size: 0x8, addend: 0x0, symName: __ZNKSt3__112basic_stringIcNS_11char_traitsIcEENS_9allocatorIcEEE18__get_long_pointerB8ue170006Ev, symObjAddr: 0x4610, symBinAddr: 0x100007BDC, symSize: 0x28 }
  - { offsetInCU: 0x43A8E, offset: 0x43A8E, size: 0x8, addend: 0x0, symName: __ZNKSt3__112basic_stringIcNS_11char_traitsIcEENS_9allocatorIcEEE19__get_short_pointerB8ue170006Ev, symObjAddr: 0x4638, symBinAddr: 0x100007C04, symSize: 0x28 }
  - { offsetInCU: 0x43AB4, offset: 0x43AB4, size: 0x8, addend: 0x0, symName: __ZNSt3__114pointer_traitsIPKcE10pointer_toB8ue170006ERS1_, symObjAddr: 0x4660, symBinAddr: 0x100007C2C, symSize: 0x14 }
  - { offsetInCU: 0x43AD6, offset: 0x43AD6, size: 0x8, addend: 0x0, symName: __Z8__istypeim, symObjAddr: 0x4674, symBinAddr: 0x100007C40, symSize: 0x8C }
  - { offsetInCU: 0x43B10, offset: 0x43B10, size: 0x8, addend: 0x0, symName: __Z7isasciii, symObjAddr: 0x4700, symBinAddr: 0x100007CCC, symSize: 0x24 }
  - { offsetInCU: 0x43B3D, offset: 0x43B3D, size: 0x8, addend: 0x0, symName: __ZNSt3__112basic_stringIcNS_11char_traitsIcEENS_9allocatorIcEEEC2B8ue170006Ev, symObjAddr: 0x4724, symBinAddr: 0x100007CF0, symSize: 0x48 }
  - { offsetInCU: 0x43B67, offset: 0x43B67, size: 0x8, addend: 0x0, symName: __ZNSt3__112basic_stringIcNS_11char_traitsIcEENS_9allocatorIcEEE14__default_initB8ue170006Ev, symObjAddr: 0x476C, symBinAddr: 0x100007D38, symSize: 0x40 }
  - { offsetInCU: 0x43B8C, offset: 0x43B8C, size: 0x8, addend: 0x0, symName: __Z9__isctypeim, symObjAddr: 0x47AC, symBinAddr: 0x100007D78, symSize: 0x80 }
  - { offsetInCU: 0x43BC7, offset: 0x43BC7, size: 0x8, addend: 0x0, symName: __ZNSt3__16vectorI5TokenNS_9allocatorIS1_EEE9__end_capB8ue170006Ev, symObjAddr: 0x482C, symBinAddr: 0x100007DF8, symSize: 0x28 }
  - { offsetInCU: 0x43BED, offset: 0x43BED, size: 0x8, addend: 0x0, symName: __ZNSt3__16vectorI5TokenNS_9allocatorIS1_EEE22__construct_one_at_endB8ue170006IJRKS1_EEEvDpOT_, symObjAddr: 0x4854, symBinAddr: 0x100007E20, symSize: 0x90 }
  - { offsetInCU: 0x43C3C, offset: 0x43C3C, size: 0x8, addend: 0x0, symName: __ZNSt3__16vectorI5TokenNS_9allocatorIS1_EEE21__push_back_slow_pathIRKS1_EEvOT_, symObjAddr: 0x48E4, symBinAddr: 0x100007EB0, symSize: 0xD8 }
  - { offsetInCU: 0x43C9A, offset: 0x43C9A, size: 0x8, addend: 0x0, symName: __ZNSt3__117__compressed_pairIP5TokenNS_9allocatorIS1_EEE5firstB8ue170006Ev, symObjAddr: 0x49BC, symBinAddr: 0x100007F88, symSize: 0x24 }
  - { offsetInCU: 0x43CC0, offset: 0x43CC0, size: 0x8, addend: 0x0, symName: __ZNSt3__122__compressed_pair_elemIP5TokenLi0ELb0EE5__getB8ue170006Ev, symObjAddr: 0x49E0, symBinAddr: 0x100007FAC, symSize: 0x14 }
  - { offsetInCU: 0x43D02, offset: 0x43D02, size: 0x8, addend: 0x0, symName: __ZNSt3__16vectorI5TokenNS_9allocatorIS1_EEE21_ConstructTransactionC1B8ue170006ERS4_m, symObjAddr: 0x49F4, symBinAddr: 0x100007FC0, symSize: 0x3C }
  - { offsetInCU: 0x43D4A, offset: 0x43D4A, size: 0x8, addend: 0x0, symName: __ZNSt3__116allocator_traitsINS_9allocatorI5TokenEEE9constructB8ue170006IS2_JRKS2_EvEEvRS3_PT_DpOT0_, symObjAddr: 0x4A30, symBinAddr: 0x100007FFC, symSize: 0x34 }
  - { offsetInCU: 0x43DA1, offset: 0x43DA1, size: 0x8, addend: 0x0, symName: __ZNSt3__16vectorI5TokenNS_9allocatorIS1_EEE7__allocB8ue170006Ev, symObjAddr: 0x4A64, symBinAddr: 0x100008030, symSize: 0x28 }
  - { offsetInCU: 0x43DC7, offset: 0x43DC7, size: 0x8, addend: 0x0, symName: __ZNSt3__16vectorI5TokenNS_9allocatorIS1_EEE21_ConstructTransactionD1B8ue170006Ev, symObjAddr: 0x4AA0, symBinAddr: 0x10000806C, symSize: 0x2C }
  - { offsetInCU: 0x43DF1, offset: 0x43DF1, size: 0x8, addend: 0x0, symName: __ZNSt3__16vectorI5TokenNS_9allocatorIS1_EEE21_ConstructTransactionC2B8ue170006ERS4_m, symObjAddr: 0x4ACC, symBinAddr: 0x100008098, symSize: 0x4C }
  - { offsetInCU: 0x43E39, offset: 0x43E39, size: 0x8, addend: 0x0, symName: __ZNSt3__19allocatorI5TokenE9constructB8ue170006IS1_JRKS1_EEEvPT_DpOT0_, symObjAddr: 0x4B18, symBinAddr: 0x1000080E4, symSize: 0x30 }
  - { offsetInCU: 0x43E8F, offset: 0x43E8F, size: 0x8, addend: 0x0, symName: __ZN5TokenC1ERKS_, symObjAddr: 0x4B48, symBinAddr: 0x100008114, symSize: 0x34 }
  - { offsetInCU: 0x43EC4, offset: 0x43EC4, size: 0x8, addend: 0x0, symName: __ZN5TokenC2ERKS_, symObjAddr: 0x4B7C, symBinAddr: 0x100008148, symSize: 0x54 }
  - { offsetInCU: 0x43EF9, offset: 0x43EF9, size: 0x8, addend: 0x0, symName: __ZNSt3__117__compressed_pairIP5TokenNS_9allocatorIS1_EEE6secondB8ue170006Ev, symObjAddr: 0x4BD0, symBinAddr: 0x10000819C, symSize: 0x24 }
  - { offsetInCU: 0x43F1F, offset: 0x43F1F, size: 0x8, addend: 0x0, symName: __ZNSt3__122__compressed_pair_elemINS_9allocatorI5TokenEELi1ELb1EE5__getB8ue170006Ev, symObjAddr: 0x4BF4, symBinAddr: 0x1000081C0, symSize: 0x14 }
  - { offsetInCU: 0x43F45, offset: 0x43F45, size: 0x8, addend: 0x0, symName: __ZNSt3__16vectorI5TokenNS_9allocatorIS1_EEE21_ConstructTransactionD2B8ue170006Ev, symObjAddr: 0x4C08, symBinAddr: 0x1000081D4, symSize: 0x20 }
  - { offsetInCU: 0x43F6F, offset: 0x43F6F, size: 0x8, addend: 0x0, symName: __ZNKSt3__16vectorI5TokenNS_9allocatorIS1_EEE11__recommendB8ue170006Em, symObjAddr: 0x4C28, symBinAddr: 0x1000081F4, symSize: 0xB4 }
  - { offsetInCU: 0x43FC4, offset: 0x43FC4, size: 0x8, addend: 0x0, symName: __ZNKSt3__16vectorI5TokenNS_9allocatorIS1_EEE4sizeB8ue170006Ev, symObjAddr: 0x4CDC, symBinAddr: 0x1000082A8, symSize: 0x28 }
  - { offsetInCU: 0x43FEA, offset: 0x43FEA, size: 0x8, addend: 0x0, symName: __ZNSt3__114__split_bufferI5TokenRNS_9allocatorIS1_EEEC1EmmS4_, symObjAddr: 0x4D04, symBinAddr: 0x1000082D0, symSize: 0x44 }
  - { offsetInCU: 0x44040, offset: 0x44040, size: 0x8, addend: 0x0, symName: __ZNSt3__114__split_bufferI5TokenRNS_9allocatorIS1_EEED1Ev, symObjAddr: 0x4E58, symBinAddr: 0x100008424, symSize: 0x2C }
  - { offsetInCU: 0x4406C, offset: 0x4406C, size: 0x8, addend: 0x0, symName: __ZNKSt3__16vectorI5TokenNS_9allocatorIS1_EEE8max_sizeEv, symObjAddr: 0x4E84, symBinAddr: 0x100008450, symSize: 0x60 }
  - { offsetInCU: 0x44094, offset: 0x44094, size: 0x8, addend: 0x0, symName: __ZNKSt3__16vectorI5TokenNS_9allocatorIS1_EEE20__throw_length_errorB8ue170006Ev, symObjAddr: 0x4EE4, symBinAddr: 0x1000084B0, symSize: 0x1C }
  - { offsetInCU: 0x440BA, offset: 0x440BA, size: 0x8, addend: 0x0, symName: __ZNKSt3__16vectorI5TokenNS_9allocatorIS1_EEE8capacityB8ue170006Ev, symObjAddr: 0x4F00, symBinAddr: 0x1000084CC, symSize: 0x40 }
  - { offsetInCU: 0x440EB, offset: 0x440EB, size: 0x8, addend: 0x0, symName: __ZNSt3__116allocator_traitsINS_9allocatorI5TokenEEE8max_sizeB8ue170006IS3_vEEmRKS3_, symObjAddr: 0x4F98, symBinAddr: 0x100008564, symSize: 0x24 }
  - { offsetInCU: 0x44119, offset: 0x44119, size: 0x8, addend: 0x0, symName: __ZNKSt3__16vectorI5TokenNS_9allocatorIS1_EEE7__allocB8ue170006Ev, symObjAddr: 0x4FBC, symBinAddr: 0x100008588, symSize: 0x28 }
  - { offsetInCU: 0x4413F, offset: 0x4413F, size: 0x8, addend: 0x0, symName: __ZNSt3__114numeric_limitsIlE3maxB8ue170006Ev, symObjAddr: 0x4FE4, symBinAddr: 0x1000085B0, symSize: 0x14 }
  - { offsetInCU: 0x4415E, offset: 0x4415E, size: 0x8, addend: 0x0, symName: __ZNKSt3__16__lessIvvEclB8ue170006ImmEEbRKT_RKT0_, symObjAddr: 0x504C, symBinAddr: 0x100008618, symSize: 0x34 }
  - { offsetInCU: 0x441B2, offset: 0x441B2, size: 0x8, addend: 0x0, symName: __ZNKSt3__19allocatorI5TokenE8max_sizeB8ue170006Ev, symObjAddr: 0x5080, symBinAddr: 0x10000864C, symSize: 0x18 }
  - { offsetInCU: 0x441D8, offset: 0x441D8, size: 0x8, addend: 0x0, symName: __ZNKSt3__117__compressed_pairIP5TokenNS_9allocatorIS1_EEE6secondB8ue170006Ev, symObjAddr: 0x5098, symBinAddr: 0x100008664, symSize: 0x24 }
  - { offsetInCU: 0x441FE, offset: 0x441FE, size: 0x8, addend: 0x0, symName: __ZNKSt3__122__compressed_pair_elemINS_9allocatorI5TokenEELi1ELb1EE5__getB8ue170006Ev, symObjAddr: 0x50BC, symBinAddr: 0x100008688, symSize: 0x14 }
  - { offsetInCU: 0x44224, offset: 0x44224, size: 0x8, addend: 0x0, symName: __ZNSt3__123__libcpp_numeric_limitsIlLb1EE3maxB8ue170006Ev, symObjAddr: 0x50D0, symBinAddr: 0x10000869C, symSize: 0x8 }
  - { offsetInCU: 0x44238, offset: 0x44238, size: 0x8, addend: 0x0, symName: __ZNSt12length_errorC1B8ue170006EPKc, symObjAddr: 0x513C, symBinAddr: 0x100008708, symSize: 0x34 }
  - { offsetInCU: 0x44270, offset: 0x44270, size: 0x8, addend: 0x0, symName: __ZNSt12length_errorC2B8ue170006EPKc, symObjAddr: 0x5170, symBinAddr: 0x10000873C, symSize: 0x4C }
  - { offsetInCU: 0x442A8, offset: 0x442A8, size: 0x8, addend: 0x0, symName: __ZNKSt3__16vectorI5TokenNS_9allocatorIS1_EEE9__end_capB8ue170006Ev, symObjAddr: 0x51BC, symBinAddr: 0x100008788, symSize: 0x28 }
  - { offsetInCU: 0x442CE, offset: 0x442CE, size: 0x8, addend: 0x0, symName: __ZNKSt3__117__compressed_pairIP5TokenNS_9allocatorIS1_EEE5firstB8ue170006Ev, symObjAddr: 0x51E4, symBinAddr: 0x1000087B0, symSize: 0x24 }
  - { offsetInCU: 0x442F4, offset: 0x442F4, size: 0x8, addend: 0x0, symName: __ZNKSt3__122__compressed_pair_elemIP5TokenLi0ELb0EE5__getB8ue170006Ev, symObjAddr: 0x5208, symBinAddr: 0x1000087D4, symSize: 0x14 }
  - { offsetInCU: 0x4431A, offset: 0x4431A, size: 0x8, addend: 0x0, symName: __ZNSt3__114__split_bufferI5TokenRNS_9allocatorIS1_EEEC2EmmS4_, symObjAddr: 0x5270, symBinAddr: 0x10000883C, symSize: 0xE0 }
  - { offsetInCU: 0x4438D, offset: 0x4438D, size: 0x8, addend: 0x0, symName: __ZNSt3__117__compressed_pairIP5TokenRNS_9allocatorIS1_EEEC1B8ue170006IDnS5_EEOT_OT0_, symObjAddr: 0x5350, symBinAddr: 0x10000891C, symSize: 0x3C }
  - { offsetInCU: 0x443E5, offset: 0x443E5, size: 0x8, addend: 0x0, symName: __ZNSt3__114__split_bufferI5TokenRNS_9allocatorIS1_EEE7__allocB8ue170006Ev, symObjAddr: 0x53CC, symBinAddr: 0x100008998, symSize: 0x28 }
  - { offsetInCU: 0x4440B, offset: 0x4440B, size: 0x8, addend: 0x0, symName: __ZNSt3__114__split_bufferI5TokenRNS_9allocatorIS1_EEE9__end_capB8ue170006Ev, symObjAddr: 0x53F4, symBinAddr: 0x1000089C0, symSize: 0x28 }
  - { offsetInCU: 0x44431, offset: 0x44431, size: 0x8, addend: 0x0, symName: __ZNSt3__117__compressed_pairIP5TokenRNS_9allocatorIS1_EEEC2B8ue170006IDnS5_EEOT_OT0_, symObjAddr: 0x541C, symBinAddr: 0x1000089E8, symSize: 0x48 }
  - { offsetInCU: 0x44489, offset: 0x44489, size: 0x8, addend: 0x0, symName: __ZNSt3__122__compressed_pair_elemIRNS_9allocatorI5TokenEELi1ELb0EEC2B8ue170006IS4_vEEOT_, symObjAddr: 0x5464, symBinAddr: 0x100008A30, symSize: 0x20 }
  - { offsetInCU: 0x444CB, offset: 0x444CB, size: 0x8, addend: 0x0, symName: __ZNSt3__19allocatorI5TokenE8allocateB8ue170006Em, symObjAddr: 0x5484, symBinAddr: 0x100008A50, symSize: 0x5C }
  - { offsetInCU: 0x444FF, offset: 0x444FF, size: 0x8, addend: 0x0, symName: __ZNSt3__117__compressed_pairIP5TokenRNS_9allocatorIS1_EEE6secondB8ue170006Ev, symObjAddr: 0x55C4, symBinAddr: 0x100008B90, symSize: 0x28 }
  - { offsetInCU: 0x44525, offset: 0x44525, size: 0x8, addend: 0x0, symName: __ZNSt3__122__compressed_pair_elemIRNS_9allocatorI5TokenEELi1ELb0EE5__getB8ue170006Ev, symObjAddr: 0x55EC, symBinAddr: 0x100008BB8, symSize: 0x18 }
  - { offsetInCU: 0x4454B, offset: 0x4454B, size: 0x8, addend: 0x0, symName: __ZNSt3__117__compressed_pairIP5TokenRNS_9allocatorIS1_EEE5firstB8ue170006Ev, symObjAddr: 0x5604, symBinAddr: 0x100008BD0, symSize: 0x24 }
  - { offsetInCU: 0x44571, offset: 0x44571, size: 0x8, addend: 0x0, symName: __ZNKSt3__16vectorI5TokenNS_9allocatorIS1_EEE17__annotate_deleteB8ue170006Ev, symObjAddr: 0x5628, symBinAddr: 0x100008BF4, symSize: 0xD4 }
  - { offsetInCU: 0x44597, offset: 0x44597, size: 0x8, addend: 0x0, symName: __ZNSt3__116reverse_iteratorIP5TokenEC1B8ue170006ES2_, symObjAddr: 0x5828, symBinAddr: 0x100008DF4, symSize: 0x34 }
  - { offsetInCU: 0x445CF, offset: 0x445CF, size: 0x8, addend: 0x0, symName: __ZNKSt3__116reverse_iteratorIP5TokenE4baseB8ue170006Ev, symObjAddr: 0x585C, symBinAddr: 0x100008E28, symSize: 0x18 }
  - { offsetInCU: 0x445F5, offset: 0x445F5, size: 0x8, addend: 0x0, symName: __ZNKSt3__16vectorI5TokenNS_9allocatorIS1_EEE14__annotate_newB8ue170006Em, symObjAddr: 0x58B0, symBinAddr: 0x100008E7C, symSize: 0xC8 }
  - { offsetInCU: 0x4462A, offset: 0x4462A, size: 0x8, addend: 0x0, symName: __ZNKSt3__16vectorI5TokenNS_9allocatorIS1_EEE31__annotate_contiguous_containerB8ue170006EPKvS6_S6_S6_, symObjAddr: 0x5978, symBinAddr: 0x100008F44, symSize: 0x20 }
  - { offsetInCU: 0x44680, offset: 0x44680, size: 0x8, addend: 0x0, symName: __ZNKSt3__16vectorI5TokenNS_9allocatorIS1_EEE4dataB8ue170006Ev, symObjAddr: 0x5998, symBinAddr: 0x100008F64, symSize: 0x28 }
  - { offsetInCU: 0x446A6, offset: 0x446A6, size: 0x8, addend: 0x0, symName: __ZNSt3__129_AllocatorDestroyRangeReverseINS_9allocatorI5TokenEENS_16reverse_iteratorIPS2_EEEC1B8ue170006ERS3_RS6_S9_, symObjAddr: 0x5A0C, symBinAddr: 0x100008FD8, symSize: 0x44 }
  - { offsetInCU: 0x446FD, offset: 0x446FD, size: 0x8, addend: 0x0, symName: __ZNSt3__116allocator_traitsINS_9allocatorI5TokenEEE9constructB8ue170006IS2_JS2_EvEEvRS3_PT_DpOT0_, symObjAddr: 0x5A98, symBinAddr: 0x100009064, symSize: 0x34 }
  - { offsetInCU: 0x44754, offset: 0x44754, size: 0x8, addend: 0x0, symName: __ZNKSt3__116reverse_iteratorIP5TokenEdeB8ue170006Ev, symObjAddr: 0x5AF0, symBinAddr: 0x1000090BC, symSize: 0x28 }
  - { offsetInCU: 0x44788, offset: 0x44788, size: 0x8, addend: 0x0, symName: __ZNSt3__116reverse_iteratorIP5TokenEppB8ue170006Ev, symObjAddr: 0x5B18, symBinAddr: 0x1000090E4, symSize: 0x20 }
  - { offsetInCU: 0x447AE, offset: 0x447AE, size: 0x8, addend: 0x0, symName: __ZNSt3__128__exception_guard_exceptionsINS_29_AllocatorDestroyRangeReverseINS_9allocatorI5TokenEENS_16reverse_iteratorIPS3_EEEEE10__completeB8ue170006Ev, symObjAddr: 0x5B38, symBinAddr: 0x100009104, symSize: 0x1C }
  - { offsetInCU: 0x447D4, offset: 0x447D4, size: 0x8, addend: 0x0, symName: __ZNSt3__128__exception_guard_exceptionsINS_29_AllocatorDestroyRangeReverseINS_9allocatorI5TokenEENS_16reverse_iteratorIPS3_EEEEED1B8ue170006Ev, symObjAddr: 0x5B54, symBinAddr: 0x100009120, symSize: 0x2C }
  - { offsetInCU: 0x447FE, offset: 0x447FE, size: 0x8, addend: 0x0, symName: __ZNSt3__128__exception_guard_exceptionsINS_29_AllocatorDestroyRangeReverseINS_9allocatorI5TokenEENS_16reverse_iteratorIPS3_EEEEEC1B8ue170006ES8_, symObjAddr: 0x5B80, symBinAddr: 0x10000914C, symSize: 0x34 }
  - { offsetInCU: 0x44837, offset: 0x44837, size: 0x8, addend: 0x0, symName: __ZNSt3__128__exception_guard_exceptionsINS_29_AllocatorDestroyRangeReverseINS_9allocatorI5TokenEENS_16reverse_iteratorIPS3_EEEEEC2B8ue170006ES8_, symObjAddr: 0x5BB4, symBinAddr: 0x100009180, symSize: 0x30 }
  - { offsetInCU: 0x44870, offset: 0x44870, size: 0x8, addend: 0x0, symName: __ZNSt3__129_AllocatorDestroyRangeReverseINS_9allocatorI5TokenEENS_16reverse_iteratorIPS2_EEEC2B8ue170006ERS3_RS6_S9_, symObjAddr: 0x5BE4, symBinAddr: 0x1000091B0, symSize: 0x38 }
  - { offsetInCU: 0x448C7, offset: 0x448C7, size: 0x8, addend: 0x0, symName: __ZNSt3__19allocatorI5TokenE9constructB8ue170006IS1_JS1_EEEvPT_DpOT0_, symObjAddr: 0x5C1C, symBinAddr: 0x1000091E8, symSize: 0x30 }
  - { offsetInCU: 0x4491D, offset: 0x4491D, size: 0x8, addend: 0x0, symName: __ZN5TokenC1EOS_, symObjAddr: 0x5C4C, symBinAddr: 0x100009218, symSize: 0x34 }
  - { offsetInCU: 0x44952, offset: 0x44952, size: 0x8, addend: 0x0, symName: __ZN5TokenC2EOS_, symObjAddr: 0x5C80, symBinAddr: 0x10000924C, symSize: 0x54 }
  - { offsetInCU: 0x44987, offset: 0x44987, size: 0x8, addend: 0x0, symName: __ZNSt3__112basic_stringIcNS_11char_traitsIcEENS_9allocatorIcEEEC1B8ue170006EOS5_, symObjAddr: 0x5CD4, symBinAddr: 0x1000092A0, symSize: 0x34 }
  - { offsetInCU: 0x449C0, offset: 0x449C0, size: 0x8, addend: 0x0, symName: __ZNSt3__112basic_stringIcNS_11char_traitsIcEENS_9allocatorIcEEEC2B8ue170006EOS5_, symObjAddr: 0x5D08, symBinAddr: 0x1000092D4, symSize: 0x48 }
  - { offsetInCU: 0x449FF, offset: 0x449FF, size: 0x8, addend: 0x0, symName: __ZNSt3__119__to_address_helperINS_16reverse_iteratorIP5TokenEEvE6__callB8ue170006ERKS4_, symObjAddr: 0x5D50, symBinAddr: 0x10000931C, symSize: 0x38 }
  - { offsetInCU: 0x44A22, offset: 0x44A22, size: 0x8, addend: 0x0, symName: __ZNKSt3__116reverse_iteratorIP5TokenEptB8ue170006Ev, symObjAddr: 0x5D88, symBinAddr: 0x100009354, symSize: 0x24 }
  - { offsetInCU: 0x44A48, offset: 0x44A48, size: 0x8, addend: 0x0, symName: __ZNSt3__128__exception_guard_exceptionsINS_29_AllocatorDestroyRangeReverseINS_9allocatorI5TokenEENS_16reverse_iteratorIPS3_EEEEED2B8ue170006Ev, symObjAddr: 0x5DAC, symBinAddr: 0x100009378, symSize: 0x50 }
  - { offsetInCU: 0x44A72, offset: 0x44A72, size: 0x8, addend: 0x0, symName: __ZNKSt3__129_AllocatorDestroyRangeReverseINS_9allocatorI5TokenEENS_16reverse_iteratorIPS2_EEEclB8ue170006Ev, symObjAddr: 0x5DFC, symBinAddr: 0x1000093C8, symSize: 0xB4 }
  - { offsetInCU: 0x44A99, offset: 0x44A99, size: 0x8, addend: 0x0, symName: __ZNSt3__116reverse_iteratorINS0_IP5TokenEEEC1B8ue170006ES3_, symObjAddr: 0x5F20, symBinAddr: 0x1000094EC, symSize: 0x3C }
  - { offsetInCU: 0x44AD1, offset: 0x44AD1, size: 0x8, addend: 0x0, symName: __ZNSt3__116allocator_traitsINS_9allocatorI5TokenEEE7destroyB8ue170006IS2_vEEvRS3_PT_, symObjAddr: 0x5FBC, symBinAddr: 0x100009588, symSize: 0x2C }
  - { offsetInCU: 0x44B0E, offset: 0x44B0E, size: 0x8, addend: 0x0, symName: __ZNSt3__116reverse_iteratorINS0_IP5TokenEEEppB8ue170006Ev, symObjAddr: 0x600C, symBinAddr: 0x1000095D8, symSize: 0x30 }
  - { offsetInCU: 0x44B34, offset: 0x44B34, size: 0x8, addend: 0x0, symName: __ZNKSt3__116reverse_iteratorINS0_IP5TokenEEE4baseB8ue170006Ev, symObjAddr: 0x603C, symBinAddr: 0x100009608, symSize: 0x24 }
  - { offsetInCU: 0x44B5A, offset: 0x44B5A, size: 0x8, addend: 0x0, symName: __ZNSt3__19allocatorI5TokenE7destroyB8ue170006EPS1_, symObjAddr: 0x6060, symBinAddr: 0x10000962C, symSize: 0x28 }
  - { offsetInCU: 0x44B94, offset: 0x44B94, size: 0x8, addend: 0x0, symName: __ZNSt3__119__to_address_helperINS_16reverse_iteratorINS1_IP5TokenEEEEvE6__callB8ue170006ERKS5_, symObjAddr: 0x6088, symBinAddr: 0x100009654, symSize: 0x38 }
  - { offsetInCU: 0x44BB7, offset: 0x44BB7, size: 0x8, addend: 0x0, symName: __ZNKSt3__116reverse_iteratorINS0_IP5TokenEEEptB8ue170006Ev, symObjAddr: 0x60C0, symBinAddr: 0x10000968C, symSize: 0x24 }
  - { offsetInCU: 0x44BDD, offset: 0x44BDD, size: 0x8, addend: 0x0, symName: __ZNKSt3__116reverse_iteratorINS0_IP5TokenEEEdeB8ue170006Ev, symObjAddr: 0x60E4, symBinAddr: 0x1000096B0, symSize: 0x34 }
  - { offsetInCU: 0x44C11, offset: 0x44C11, size: 0x8, addend: 0x0, symName: __ZNSt3__116reverse_iteratorIP5TokenEmmB8ue170006Ev, symObjAddr: 0x6118, symBinAddr: 0x1000096E4, symSize: 0x20 }
  - { offsetInCU: 0x44C37, offset: 0x44C37, size: 0x8, addend: 0x0, symName: __ZNSt3__116reverse_iteratorINS0_IP5TokenEEEC2B8ue170006ES3_, symObjAddr: 0x6138, symBinAddr: 0x100009704, symSize: 0x2C }
  - { offsetInCU: 0x44C6F, offset: 0x44C6F, size: 0x8, addend: 0x0, symName: __ZNSt3__116reverse_iteratorIP5TokenEC2B8ue170006ES2_, symObjAddr: 0x6164, symBinAddr: 0x100009730, symSize: 0x28 }
  - { offsetInCU: 0x44CA7, offset: 0x44CA7, size: 0x8, addend: 0x0, symName: __ZNSt3__114__split_bufferI5TokenRNS_9allocatorIS1_EEED2Ev, symObjAddr: 0x618C, symBinAddr: 0x100009758, symSize: 0x8C }
  - { offsetInCU: 0x44CD3, offset: 0x44CD3, size: 0x8, addend: 0x0, symName: __ZNSt3__114__split_bufferI5TokenRNS_9allocatorIS1_EEE5clearB8ue170006Ev, symObjAddr: 0x6218, symBinAddr: 0x1000097E4, symSize: 0x28 }
  - { offsetInCU: 0x44CF9, offset: 0x44CF9, size: 0x8, addend: 0x0, symName: __ZNSt3__116allocator_traitsINS_9allocatorI5TokenEEE10deallocateB8ue170006ERS3_PS2_m, symObjAddr: 0x6240, symBinAddr: 0x10000980C, symSize: 0x34 }
  - { offsetInCU: 0x44D3B, offset: 0x44D3B, size: 0x8, addend: 0x0, symName: __ZNKSt3__114__split_bufferI5TokenRNS_9allocatorIS1_EEE8capacityB8ue170006Ev, symObjAddr: 0x6274, symBinAddr: 0x100009840, symSize: 0x40 }
  - { offsetInCU: 0x44D61, offset: 0x44D61, size: 0x8, addend: 0x0, symName: __ZNSt3__114__split_bufferI5TokenRNS_9allocatorIS1_EEE17__destruct_at_endB8ue170006EPS1_, symObjAddr: 0x62B4, symBinAddr: 0x100009880, symSize: 0x2C }
  - { offsetInCU: 0x44D95, offset: 0x44D95, size: 0x8, addend: 0x0, symName: __ZNSt3__114__split_bufferI5TokenRNS_9allocatorIS1_EEE17__destruct_at_endB8ue170006EPS1_NS_17integral_constantIbLb0EEE, symObjAddr: 0x62E0, symBinAddr: 0x1000098AC, symSize: 0x80 }
  - { offsetInCU: 0x44DD6, offset: 0x44DD6, size: 0x8, addend: 0x0, symName: __ZNSt3__19allocatorI5TokenE10deallocateB8ue170006EPS1_m, symObjAddr: 0x6360, symBinAddr: 0x10000992C, symSize: 0x44 }
  - { offsetInCU: 0x44E18, offset: 0x44E18, size: 0x8, addend: 0x0, symName: __ZNKSt3__114__split_bufferI5TokenRNS_9allocatorIS1_EEE9__end_capB8ue170006Ev, symObjAddr: 0x63A4, symBinAddr: 0x100009970, symSize: 0x28 }
  - { offsetInCU: 0x44E3E, offset: 0x44E3E, size: 0x8, addend: 0x0, symName: __ZNKSt3__117__compressed_pairIP5TokenRNS_9allocatorIS1_EEE5firstB8ue170006Ev, symObjAddr: 0x63CC, symBinAddr: 0x100009998, symSize: 0x24 }
  - { offsetInCU: 0x44E64, offset: 0x44E64, size: 0x8, addend: 0x0, symName: __ZNSt3__16vectorI5TokenNS_9allocatorIS1_EEEC2ERKS4_, symObjAddr: 0x63F0, symBinAddr: 0x1000099BC, symSize: 0x94 }
  - { offsetInCU: 0x44E9F, offset: 0x44E9F, size: 0x8, addend: 0x0, symName: __ZNSt3__116allocator_traitsINS_9allocatorI5TokenEEE37select_on_container_copy_constructionB8ue170006IS3_vvEES3_RKS3_, symObjAddr: 0x6484, symBinAddr: 0x100009A50, symSize: 0x10 }
  - { offsetInCU: 0x44ED4, offset: 0x44ED4, size: 0x8, addend: 0x0, symName: __ZNSt3__117__compressed_pairIP5TokenNS_9allocatorIS1_EEEC1B8ue170006IDnS4_EEOT_OT0_, symObjAddr: 0x6494, symBinAddr: 0x100009A60, symSize: 0x3C }
  - { offsetInCU: 0x44F2C, offset: 0x44F2C, size: 0x8, addend: 0x0, symName: __ZNSt3__16vectorI5TokenNS_9allocatorIS1_EEE16__init_with_sizeB8ue170006IPS1_S6_EEvT_T0_m, symObjAddr: 0x64D0, symBinAddr: 0x100009A9C, symSize: 0xB8 }
  - { offsetInCU: 0x44FA0, offset: 0x44FA0, size: 0x8, addend: 0x0, symName: __ZNSt3__117__compressed_pairIP5TokenNS_9allocatorIS1_EEEC2B8ue170006IDnS4_EEOT_OT0_, symObjAddr: 0x6588, symBinAddr: 0x100009B54, symSize: 0x44 }
  - { offsetInCU: 0x44FF8, offset: 0x44FF8, size: 0x8, addend: 0x0, symName: __ZNSt3__122__compressed_pair_elemINS_9allocatorI5TokenEELi1ELb1EEC2B8ue170006IS3_vEEOT_, symObjAddr: 0x65CC, symBinAddr: 0x100009B98, symSize: 0x18 }
  - { offsetInCU: 0x4503A, offset: 0x4503A, size: 0x8, addend: 0x0, symName: __ZNSt3__16vectorI5TokenNS_9allocatorIS1_EEE16__destroy_vectorC1B8ue170006ERS4_, symObjAddr: 0x6624, symBinAddr: 0x100009BF0, symSize: 0x34 }
  - { offsetInCU: 0x45073, offset: 0x45073, size: 0x8, addend: 0x0, symName: __ZNSt3__16vectorI5TokenNS_9allocatorIS1_EEE11__vallocateB8ue170006Em, symObjAddr: 0x6658, symBinAddr: 0x100009C24, symSize: 0xB4 }
  - { offsetInCU: 0x450B7, offset: 0x450B7, size: 0x8, addend: 0x0, symName: __ZNSt3__16vectorI5TokenNS_9allocatorIS1_EEE18__construct_at_endIPS1_S6_EEvT_T0_m, symObjAddr: 0x670C, symBinAddr: 0x100009CD8, symSize: 0x8C }
  - { offsetInCU: 0x4512D, offset: 0x4512D, size: 0x8, addend: 0x0, symName: __ZNSt3__128__exception_guard_exceptionsINS_6vectorI5TokenNS_9allocatorIS2_EEE16__destroy_vectorEE10__completeB8ue170006Ev, symObjAddr: 0x6798, symBinAddr: 0x100009D64, symSize: 0x1C }
  - { offsetInCU: 0x45153, offset: 0x45153, size: 0x8, addend: 0x0, symName: __ZNSt3__128__exception_guard_exceptionsINS_6vectorI5TokenNS_9allocatorIS2_EEE16__destroy_vectorEED1B8ue170006Ev, symObjAddr: 0x67B4, symBinAddr: 0x100009D80, symSize: 0x2C }
  - { offsetInCU: 0x4517D, offset: 0x4517D, size: 0x8, addend: 0x0, symName: __ZNSt3__128__exception_guard_exceptionsINS_6vectorI5TokenNS_9allocatorIS2_EEE16__destroy_vectorEEC1B8ue170006ES6_, symObjAddr: 0x67E0, symBinAddr: 0x100009DAC, symSize: 0x34 }
  - { offsetInCU: 0x451B5, offset: 0x451B5, size: 0x8, addend: 0x0, symName: __ZNSt3__128__exception_guard_exceptionsINS_6vectorI5TokenNS_9allocatorIS2_EEE16__destroy_vectorEEC2B8ue170006ES6_, symObjAddr: 0x6814, symBinAddr: 0x100009DE0, symSize: 0x24 }
  - { offsetInCU: 0x451ED, offset: 0x451ED, size: 0x8, addend: 0x0, symName: __ZNSt3__16vectorI5TokenNS_9allocatorIS1_EEE16__destroy_vectorC2B8ue170006ERS4_, symObjAddr: 0x6838, symBinAddr: 0x100009E04, symSize: 0x20 }
  - { offsetInCU: 0x45249, offset: 0x45249, size: 0x8, addend: 0x0, symName: __ZNSt3__14pairIP5TokenS2_EC1B8ue170006IS2_S2_LPv0EEEOT_OT0_, symObjAddr: 0x6AC4, symBinAddr: 0x10000A090, symSize: 0x3C }
  - { offsetInCU: 0x452A7, offset: 0x452A7, size: 0x8, addend: 0x0, symName: __ZNSt3__14pairIP5TokenS2_EC2B8ue170006IS2_S2_LPv0EEEOT_OT0_, symObjAddr: 0x6B00, symBinAddr: 0x10000A0CC, symSize: 0x34 }
  - { offsetInCU: 0x45305, offset: 0x45305, size: 0x8, addend: 0x0, symName: __ZNSt3__129_AllocatorDestroyRangeReverseINS_9allocatorI5TokenEEPS2_EC1B8ue170006ERS3_RS4_S7_, symObjAddr: 0x6B80, symBinAddr: 0x10000A14C, symSize: 0x44 }
  - { offsetInCU: 0x4535C, offset: 0x4535C, size: 0x8, addend: 0x0, symName: __ZNSt3__116allocator_traitsINS_9allocatorI5TokenEEE9constructB8ue170006IS2_JRS2_EvEEvRS3_PT_DpOT0_, symObjAddr: 0x6BC4, symBinAddr: 0x10000A190, symSize: 0x34 }
  - { offsetInCU: 0x453B3, offset: 0x453B3, size: 0x8, addend: 0x0, symName: __ZNSt3__128__exception_guard_exceptionsINS_29_AllocatorDestroyRangeReverseINS_9allocatorI5TokenEEPS3_EEE10__completeB8ue170006Ev, symObjAddr: 0x6BF8, symBinAddr: 0x10000A1C4, symSize: 0x1C }
  - { offsetInCU: 0x453D9, offset: 0x453D9, size: 0x8, addend: 0x0, symName: __ZNSt3__128__exception_guard_exceptionsINS_29_AllocatorDestroyRangeReverseINS_9allocatorI5TokenEEPS3_EEED1B8ue170006Ev, symObjAddr: 0x6C14, symBinAddr: 0x10000A1E0, symSize: 0x2C }
  - { offsetInCU: 0x45403, offset: 0x45403, size: 0x8, addend: 0x0, symName: __ZNSt3__128__exception_guard_exceptionsINS_29_AllocatorDestroyRangeReverseINS_9allocatorI5TokenEEPS3_EEEC1B8ue170006ES6_, symObjAddr: 0x6C40, symBinAddr: 0x10000A20C, symSize: 0x34 }
  - { offsetInCU: 0x4543C, offset: 0x4543C, size: 0x8, addend: 0x0, symName: __ZNSt3__128__exception_guard_exceptionsINS_29_AllocatorDestroyRangeReverseINS_9allocatorI5TokenEEPS3_EEEC2B8ue170006ES6_, symObjAddr: 0x6C74, symBinAddr: 0x10000A240, symSize: 0x30 }
  - { offsetInCU: 0x45475, offset: 0x45475, size: 0x8, addend: 0x0, symName: __ZNSt3__129_AllocatorDestroyRangeReverseINS_9allocatorI5TokenEEPS2_EC2B8ue170006ERS3_RS4_S7_, symObjAddr: 0x6CA4, symBinAddr: 0x10000A270, symSize: 0x38 }
  - { offsetInCU: 0x454CC, offset: 0x454CC, size: 0x8, addend: 0x0, symName: __ZNSt3__19allocatorI5TokenE9constructB8ue170006IS1_JRS1_EEEvPT_DpOT0_, symObjAddr: 0x6CDC, symBinAddr: 0x10000A2A8, symSize: 0x30 }
  - { offsetInCU: 0x45522, offset: 0x45522, size: 0x8, addend: 0x0, symName: __ZNSt3__128__exception_guard_exceptionsINS_29_AllocatorDestroyRangeReverseINS_9allocatorI5TokenEEPS3_EEED2B8ue170006Ev, symObjAddr: 0x6D0C, symBinAddr: 0x10000A2D8, symSize: 0x50 }
  - { offsetInCU: 0x4554C, offset: 0x4554C, size: 0x8, addend: 0x0, symName: __ZNKSt3__129_AllocatorDestroyRangeReverseINS_9allocatorI5TokenEEPS2_EclB8ue170006Ev, symObjAddr: 0x6D5C, symBinAddr: 0x10000A328, symSize: 0x68 }
  - { offsetInCU: 0x45572, offset: 0x45572, size: 0x8, addend: 0x0, symName: __ZNSt3__118__unwrap_iter_implIP5TokenLb1EE8__unwrapB8ue170006ES2_, symObjAddr: 0x6E34, symBinAddr: 0x10000A400, symSize: 0x24 }
  - { offsetInCU: 0x45595, offset: 0x45595, size: 0x8, addend: 0x0, symName: __ZNSt3__118__unwrap_iter_implIP5TokenLb1EE8__rewrapB8ue170006ES2_S2_, symObjAddr: 0x6E58, symBinAddr: 0x10000A424, symSize: 0x58 }
  - { offsetInCU: 0x455C6, offset: 0x455C6, size: 0x8, addend: 0x0, symName: __ZNSt3__128__exception_guard_exceptionsINS_6vectorI5TokenNS_9allocatorIS2_EEE16__destroy_vectorEED2B8ue170006Ev, symObjAddr: 0x6EB0, symBinAddr: 0x10000A47C, symSize: 0x50 }
  - { offsetInCU: 0x455F0, offset: 0x455F0, size: 0x8, addend: 0x0, symName: __ZNSt3__16vectorI5TokenNS_9allocatorIS1_EEE16__destroy_vectorclB8ue170006Ev, symObjAddr: 0x6F00, symBinAddr: 0x10000A4CC, symSize: 0x90 }
  - { offsetInCU: 0x45616, offset: 0x45616, size: 0x8, addend: 0x0, symName: __ZNSt3__16vectorI5TokenNS_9allocatorIS1_EEE7__clearB8ue170006Ev, symObjAddr: 0x6F90, symBinAddr: 0x10000A55C, symSize: 0x28 }
  - { offsetInCU: 0x4563C, offset: 0x4563C, size: 0x8, addend: 0x0, symName: __ZNSt3__16vectorI5TokenNS_9allocatorIS1_EEE22__base_destruct_at_endB8ue170006EPS1_, symObjAddr: 0x6FB8, symBinAddr: 0x10000A584, symSize: 0x8C }
  - { offsetInCU: 0x45680, offset: 0x45680, size: 0x8, addend: 0x0, symName: __ZN6ParserC2ERKNSt3__16vectorI5TokenNS0_9allocatorIS2_EEEE, symObjAddr: 0x7044, symBinAddr: 0x10000A610, symSize: 0x68 }
  - { offsetInCU: 0x456B8, offset: 0x456B8, size: 0x8, addend: 0x0, symName: __ZN14DatalogProgramC1Ev, symObjAddr: 0x70AC, symBinAddr: 0x10000A678, symSize: 0x2C }
  - { offsetInCU: 0x456E2, offset: 0x456E2, size: 0x8, addend: 0x0, symName: __ZN14DatalogProgramC2Ev, symObjAddr: 0x70D8, symBinAddr: 0x10000A6A4, symSize: 0x5C }
  - { offsetInCU: 0x4570C, offset: 0x4570C, size: 0x8, addend: 0x0, symName: __ZNSt3__16vectorI9PredicateNS_9allocatorIS1_EEEC1B8ue170006Ev, symObjAddr: 0x7134, symBinAddr: 0x10000A700, symSize: 0x2C }
  - { offsetInCU: 0x45736, offset: 0x45736, size: 0x8, addend: 0x0, symName: __ZNSt3__16vectorI4RuleNS_9allocatorIS1_EEEC1B8ue170006Ev, symObjAddr: 0x7160, symBinAddr: 0x10000A72C, symSize: 0x2C }
  - { offsetInCU: 0x45760, offset: 0x45760, size: 0x8, addend: 0x0, symName: __ZNSt3__13setINS_12basic_stringIcNS_11char_traitsIcEENS_9allocatorIcEEEENS_4lessIS6_EENS4_IS6_EEEC1B8ue170006Ev, symObjAddr: 0x718C, symBinAddr: 0x10000A758, symSize: 0x2C }
  - { offsetInCU: 0x4578A, offset: 0x4578A, size: 0x8, addend: 0x0, symName: __ZNSt3__16vectorI9PredicateNS_9allocatorIS1_EEEC2B8ue170006Ev, symObjAddr: 0x71B8, symBinAddr: 0x10000A784, symSize: 0x4C }
  - { offsetInCU: 0x457B4, offset: 0x457B4, size: 0x8, addend: 0x0, symName: __ZNSt3__117__compressed_pairIP9PredicateNS_9allocatorIS1_EEEC1B8ue170006IDnNS_18__default_init_tagEEEOT_OT0_, symObjAddr: 0x7204, symBinAddr: 0x10000A7D0, symSize: 0x3C }
  - { offsetInCU: 0x4580C, offset: 0x4580C, size: 0x8, addend: 0x0, symName: __ZNSt3__117__compressed_pairIP9PredicateNS_9allocatorIS1_EEEC2B8ue170006IDnNS_18__default_init_tagEEEOT_OT0_, symObjAddr: 0x7240, symBinAddr: 0x10000A80C, symSize: 0x40 }
  - { offsetInCU: 0x45864, offset: 0x45864, size: 0x8, addend: 0x0, symName: __ZNSt3__122__compressed_pair_elemIP9PredicateLi0ELb0EEC2B8ue170006IDnvEEOT_, symObjAddr: 0x7280, symBinAddr: 0x10000A84C, symSize: 0x1C }
  - { offsetInCU: 0x458A6, offset: 0x458A6, size: 0x8, addend: 0x0, symName: __ZNSt3__122__compressed_pair_elemINS_9allocatorI9PredicateEELi1ELb1EEC2B8ue170006ENS_18__default_init_tagE, symObjAddr: 0x729C, symBinAddr: 0x10000A868, symSize: 0x2C }
  - { offsetInCU: 0x458DB, offset: 0x458DB, size: 0x8, addend: 0x0, symName: __ZNSt3__19allocatorI9PredicateEC2B8ue170006Ev, symObjAddr: 0x72C8, symBinAddr: 0x10000A894, symSize: 0x2C }
  - { offsetInCU: 0x45905, offset: 0x45905, size: 0x8, addend: 0x0, symName: __ZNSt3__116__non_trivial_ifILb1ENS_9allocatorI9PredicateEEEC2B8ue170006Ev, symObjAddr: 0x72F4, symBinAddr: 0x10000A8C0, symSize: 0x14 }
  - { offsetInCU: 0x4592F, offset: 0x4592F, size: 0x8, addend: 0x0, symName: __ZNSt3__16vectorI4RuleNS_9allocatorIS1_EEEC2B8ue170006Ev, symObjAddr: 0x7308, symBinAddr: 0x10000A8D4, symSize: 0x4C }
  - { offsetInCU: 0x45959, offset: 0x45959, size: 0x8, addend: 0x0, symName: __ZNSt3__117__compressed_pairIP4RuleNS_9allocatorIS1_EEEC1B8ue170006IDnNS_18__default_init_tagEEEOT_OT0_, symObjAddr: 0x7354, symBinAddr: 0x10000A920, symSize: 0x3C }
  - { offsetInCU: 0x459B1, offset: 0x459B1, size: 0x8, addend: 0x0, symName: __ZNSt3__117__compressed_pairIP4RuleNS_9allocatorIS1_EEEC2B8ue170006IDnNS_18__default_init_tagEEEOT_OT0_, symObjAddr: 0x7390, symBinAddr: 0x10000A95C, symSize: 0x40 }
  - { offsetInCU: 0x45A09, offset: 0x45A09, size: 0x8, addend: 0x0, symName: __ZNSt3__122__compressed_pair_elemIP4RuleLi0ELb0EEC2B8ue170006IDnvEEOT_, symObjAddr: 0x73D0, symBinAddr: 0x10000A99C, symSize: 0x1C }
  - { offsetInCU: 0x45A4B, offset: 0x45A4B, size: 0x8, addend: 0x0, symName: __ZNSt3__122__compressed_pair_elemINS_9allocatorI4RuleEELi1ELb1EEC2B8ue170006ENS_18__default_init_tagE, symObjAddr: 0x73EC, symBinAddr: 0x10000A9B8, symSize: 0x2C }
  - { offsetInCU: 0x45A80, offset: 0x45A80, size: 0x8, addend: 0x0, symName: __ZNSt3__19allocatorI4RuleEC2B8ue170006Ev, symObjAddr: 0x7418, symBinAddr: 0x10000A9E4, symSize: 0x2C }
  - { offsetInCU: 0x45AAA, offset: 0x45AAA, size: 0x8, addend: 0x0, symName: __ZNSt3__116__non_trivial_ifILb1ENS_9allocatorI4RuleEEEC2B8ue170006Ev, symObjAddr: 0x7444, symBinAddr: 0x10000AA10, symSize: 0x14 }
  - { offsetInCU: 0x45AD4, offset: 0x45AD4, size: 0x8, addend: 0x0, symName: __ZNSt3__13setINS_12basic_stringIcNS_11char_traitsIcEENS_9allocatorIcEEEENS_4lessIS6_EENS4_IS6_EEEC2B8ue170006Ev, symObjAddr: 0x7458, symBinAddr: 0x10000AA24, symSize: 0x30 }
  - { offsetInCU: 0x45AFE, offset: 0x45AFE, size: 0x8, addend: 0x0, symName: __ZNSt3__16__treeINS_12basic_stringIcNS_11char_traitsIcEENS_9allocatorIcEEEENS_4lessIS6_EENS4_IS6_EEEC1ERKS8_, symObjAddr: 0x7488, symBinAddr: 0x10000AA54, symSize: 0x34 }
  - { offsetInCU: 0x45B39, offset: 0x45B39, size: 0x8, addend: 0x0, symName: __ZNSt3__16__treeINS_12basic_stringIcNS_11char_traitsIcEENS_9allocatorIcEEEENS_4lessIS6_EENS4_IS6_EEEC2ERKS8_, symObjAddr: 0x74BC, symBinAddr: 0x10000AA88, symSize: 0x7C }
  - { offsetInCU: 0x45B74, offset: 0x45B74, size: 0x8, addend: 0x0, symName: __ZNSt3__117__compressed_pairINS_15__tree_end_nodeIPNS_16__tree_node_baseIPvEEEENS_9allocatorINS_11__tree_nodeINS_12basic_stringIcNS_11char_traitsIcEENS7_IcEEEES3_EEEEEC1B8ue170006ILb1EvEEv, symObjAddr: 0x7538, symBinAddr: 0x10000AB04, symSize: 0x2C }
  - { offsetInCU: 0x45BAF, offset: 0x45BAF, size: 0x8, addend: 0x0, symName: __ZNSt3__117__compressed_pairImNS_4lessINS_12basic_stringIcNS_11char_traitsIcEENS_9allocatorIcEEEEEEEC1B8ue170006IiRKS8_EEOT_OT0_, symObjAddr: 0x7564, symBinAddr: 0x10000AB30, symSize: 0x3C }
  - { offsetInCU: 0x45C07, offset: 0x45C07, size: 0x8, addend: 0x0, symName: __ZNSt3__16__treeINS_12basic_stringIcNS_11char_traitsIcEENS_9allocatorIcEEEENS_4lessIS6_EENS4_IS6_EEE10__end_nodeB8ue170006Ev, symObjAddr: 0x75A0, symBinAddr: 0x10000AB6C, symSize: 0x2C }
  - { offsetInCU: 0x45C2D, offset: 0x45C2D, size: 0x8, addend: 0x0, symName: __ZNSt3__16__treeINS_12basic_stringIcNS_11char_traitsIcEENS_9allocatorIcEEEENS_4lessIS6_EENS4_IS6_EEE12__begin_nodeB8ue170006Ev, symObjAddr: 0x75CC, symBinAddr: 0x10000AB98, symSize: 0x14 }
  - { offsetInCU: 0x45C53, offset: 0x45C53, size: 0x8, addend: 0x0, symName: __ZNSt3__117__compressed_pairINS_15__tree_end_nodeIPNS_16__tree_node_baseIPvEEEENS_9allocatorINS_11__tree_nodeINS_12basic_stringIcNS_11char_traitsIcEENS7_IcEEEES3_EEEEEC2B8ue170006ILb1EvEEv, symObjAddr: 0x75E0, symBinAddr: 0x10000ABAC, symSize: 0x34 }
  - { offsetInCU: 0x45C88, offset: 0x45C88, size: 0x8, addend: 0x0, symName: __ZNSt3__122__compressed_pair_elemINS_15__tree_end_nodeIPNS_16__tree_node_baseIPvEEEELi0ELb0EEC2B8ue170006ENS_16__value_init_tagE, symObjAddr: 0x7614, symBinAddr: 0x10000ABE0, symSize: 0x2C }
  - { offsetInCU: 0x45CBD, offset: 0x45CBD, size: 0x8, addend: 0x0, symName: __ZNSt3__122__compressed_pair_elemINS_9allocatorINS_11__tree_nodeINS_12basic_stringIcNS_11char_traitsIcEENS1_IcEEEEPvEEEELi1ELb1EEC2B8ue170006ENS_16__value_init_tagE, symObjAddr: 0x7640, symBinAddr: 0x10000AC0C, symSize: 0x2C }
  - { offsetInCU: 0x45CF2, offset: 0x45CF2, size: 0x8, addend: 0x0, symName: __ZNSt3__115__tree_end_nodeIPNS_16__tree_node_baseIPvEEEC1B8ue170006Ev, symObjAddr: 0x766C, symBinAddr: 0x10000AC38, symSize: 0x2C }
  - { offsetInCU: 0x45D1C, offset: 0x45D1C, size: 0x8, addend: 0x0, symName: __ZNSt3__115__tree_end_nodeIPNS_16__tree_node_baseIPvEEEC2B8ue170006Ev, symObjAddr: 0x7698, symBinAddr: 0x10000AC64, symSize: 0x18 }
  - { offsetInCU: 0x45D46, offset: 0x45D46, size: 0x8, addend: 0x0, symName: __ZNSt3__19allocatorINS_11__tree_nodeINS_12basic_stringIcNS_11char_traitsIcEENS0_IcEEEEPvEEEC2B8ue170006Ev, symObjAddr: 0x76B0, symBinAddr: 0x10000AC7C, symSize: 0x2C }
  - { offsetInCU: 0x45D70, offset: 0x45D70, size: 0x8, addend: 0x0, symName: __ZNSt3__116__non_trivial_ifILb1ENS_9allocatorINS_11__tree_nodeINS_12basic_stringIcNS_11char_traitsIcEENS1_IcEEEEPvEEEEEC2B8ue170006Ev, symObjAddr: 0x76DC, symBinAddr: 0x10000ACA8, symSize: 0x14 }
  - { offsetInCU: 0x45D9A, offset: 0x45D9A, size: 0x8, addend: 0x0, symName: __ZNSt3__117__compressed_pairImNS_4lessINS_12basic_stringIcNS_11char_traitsIcEENS_9allocatorIcEEEEEEEC2B8ue170006IiRKS8_EEOT_OT0_, symObjAddr: 0x76F0, symBinAddr: 0x10000ACBC, symSize: 0x44 }
  - { offsetInCU: 0x45DF2, offset: 0x45DF2, size: 0x8, addend: 0x0, symName: __ZNSt3__122__compressed_pair_elemImLi0ELb0EEC2B8ue170006IivEEOT_, symObjAddr: 0x7734, symBinAddr: 0x10000AD00, symSize: 0x24 }
  - { offsetInCU: 0x45E34, offset: 0x45E34, size: 0x8, addend: 0x0, symName: __ZNSt3__122__compressed_pair_elemINS_4lessINS_12basic_stringIcNS_11char_traitsIcEENS_9allocatorIcEEEEEELi1ELb1EEC2B8ue170006IRKS8_vEEOT_, symObjAddr: 0x7758, symBinAddr: 0x10000AD24, symSize: 0x18 }
  - { offsetInCU: 0x45E76, offset: 0x45E76, size: 0x8, addend: 0x0, symName: __ZNSt3__114pointer_traitsIPNS_15__tree_end_nodeIPNS_16__tree_node_baseIPvEEEEE10pointer_toB8ue170006ERS6_, symObjAddr: 0x7770, symBinAddr: 0x10000AD3C, symSize: 0x14 }
  - { offsetInCU: 0x45E99, offset: 0x45E99, size: 0x8, addend: 0x0, symName: __ZNSt3__117__compressed_pairINS_15__tree_end_nodeIPNS_16__tree_node_baseIPvEEEENS_9allocatorINS_11__tree_nodeINS_12basic_stringIcNS_11char_traitsIcEENS7_IcEEEES3_EEEEE5firstB8ue170006Ev, symObjAddr: 0x7784, symBinAddr: 0x10000AD50, symSize: 0x24 }
  - { offsetInCU: 0x45EBF, offset: 0x45EBF, size: 0x8, addend: 0x0, symName: __ZNSt3__122__compressed_pair_elemINS_15__tree_end_nodeIPNS_16__tree_node_baseIPvEEEELi0ELb0EE5__getB8ue170006Ev, symObjAddr: 0x77A8, symBinAddr: 0x10000AD74, symSize: 0x14 }
  - { offsetInCU: 0x45EE5, offset: 0x45EE5, size: 0x8, addend: 0x0, symName: __ZN6Parser12parseDatalogEv, symObjAddr: 0x77BC, symBinAddr: 0x10000AD88, symSize: 0x344 }
  - { offsetInCU: 0x45F0B, offset: 0x45F0B, size: 0x8, addend: 0x0, symName: __ZN6Parser10throwErrorE5Token, symObjAddr: 0x7B00, symBinAddr: 0x10000B0CC, symSize: 0xC0 }
  - { offsetInCU: 0x45F40, offset: 0x45F40, size: 0x8, addend: 0x0, symName: __ZNK6Parser9tokenTypeEv, symObjAddr: 0x7BC0, symBinAddr: 0x10000B18C, symSize: 0x2C }
  - { offsetInCU: 0x45F66, offset: 0x45F66, size: 0x8, addend: 0x0, symName: __ZN6Parser5matchE9TokenType, symObjAddr: 0x7BEC, symBinAddr: 0x10000B1B8, symSize: 0xBC }
  - { offsetInCU: 0x45F9A, offset: 0x45F9A, size: 0x8, addend: 0x0, symName: __ZN6Parser6schemeEv, symObjAddr: 0x7CA8, symBinAddr: 0x10000B274, symSize: 0x274 }
  - { offsetInCU: 0x45FE4, offset: 0x45FE4, size: 0x8, addend: 0x0, symName: __ZN6Parser10schemeListEv, symObjAddr: 0x7F1C, symBinAddr: 0x10000B4E8, symSize: 0x50 }
  - { offsetInCU: 0x4600A, offset: 0x4600A, size: 0x8, addend: 0x0, symName: __ZNSt3__16vectorI5TokenNS_9allocatorIS1_EEE2atEm, symObjAddr: 0x7F6C, symBinAddr: 0x10000B538, symSize: 0x68 }
  - { offsetInCU: 0x46041, offset: 0x46041, size: 0x8, addend: 0x0, symName: __ZN6Parser8factListEv, symObjAddr: 0x7FD4, symBinAddr: 0x10000B5A0, symSize: 0x50 }
  - { offsetInCU: 0x46067, offset: 0x46067, size: 0x8, addend: 0x0, symName: __ZN6Parser8ruleListEv, symObjAddr: 0x8024, symBinAddr: 0x10000B5F0, symSize: 0x50 }
  - { offsetInCU: 0x4608D, offset: 0x4608D, size: 0x8, addend: 0x0, symName: __ZN6Parser5queryEv, symObjAddr: 0x8074, symBinAddr: 0x10000B640, symSize: 0xC0 }
  - { offsetInCU: 0x460B3, offset: 0x460B3, size: 0x8, addend: 0x0, symName: __ZN6Parser9queryListEv, symObjAddr: 0x8134, symBinAddr: 0x10000B700, symSize: 0x50 }
  - { offsetInCU: 0x460D9, offset: 0x460D9, size: 0x8, addend: 0x0, symName: __ZNKSt3__16vectorI5TokenNS_9allocatorIS1_EEE2atEm, symObjAddr: 0x8184, symBinAddr: 0x10000B750, symSize: 0x68 }
  - { offsetInCU: 0x46110, offset: 0x46110, size: 0x8, addend: 0x0, symName: __ZNKSt3__16vectorI5TokenNS_9allocatorIS1_EEE20__throw_out_of_rangeB8ue170006Ev, symObjAddr: 0x81EC, symBinAddr: 0x10000B7B8, symSize: 0x1C }
  - { offsetInCU: 0x46136, offset: 0x46136, size: 0x8, addend: 0x0, symName: __ZNSt12out_of_rangeC1B8ue170006EPKc, symObjAddr: 0x826C, symBinAddr: 0x10000B838, symSize: 0x34 }
  - { offsetInCU: 0x4616E, offset: 0x4616E, size: 0x8, addend: 0x0, symName: __ZNSt12out_of_rangeC2B8ue170006EPKc, symObjAddr: 0x82A0, symBinAddr: 0x10000B86C, symSize: 0x4C }
  - { offsetInCU: 0x461A6, offset: 0x461A6, size: 0x8, addend: 0x0, symName: __ZN6Parser12advanceTokenEv, symObjAddr: 0x82EC, symBinAddr: 0x10000B8B8, symSize: 0x4C }
  - { offsetInCU: 0x461CC, offset: 0x461CC, size: 0x8, addend: 0x0, symName: __ZNSt3__16vectorI5TokenNS_9allocatorIS1_EEE5eraseB8ue170006ENS_11__wrap_iterIPKS1_EE, symObjAddr: 0x8338, symBinAddr: 0x10000B904, symSize: 0x9C }
  - { offsetInCU: 0x46221, offset: 0x46221, size: 0x8, addend: 0x0, symName: __ZNSt3__16vectorI5TokenNS_9allocatorIS1_EEE5beginB8ue170006Ev, symObjAddr: 0x83D4, symBinAddr: 0x10000B9A0, symSize: 0x30 }
  - { offsetInCU: 0x46255, offset: 0x46255, size: 0x8, addend: 0x0, symName: __ZNSt3__111__wrap_iterIPK5TokenEC1B8ue170006IPS1_EERKNS0_IT_EEPNS_9enable_ifIXsr14is_convertibleIS7_S3_EE5valueEvE4typeE, symObjAddr: 0x8404, symBinAddr: 0x10000B9D0, symSize: 0x3C }
  - { offsetInCU: 0x462A1, offset: 0x462A1, size: 0x8, addend: 0x0, symName: __ZNKSt3__16vectorI5TokenNS_9allocatorIS1_EEE6cbeginB8ue170006Ev, symObjAddr: 0x8488, symBinAddr: 0x10000BA54, symSize: 0x2C }
  - { offsetInCU: 0x462C7, offset: 0x462C7, size: 0x8, addend: 0x0, symName: __ZNSt3__16vectorI5TokenNS_9allocatorIS1_EEE17__destruct_at_endB8ue170006EPS1_, symObjAddr: 0x84B4, symBinAddr: 0x10000BA80, symSize: 0x4C }
  - { offsetInCU: 0x4630B, offset: 0x4630B, size: 0x8, addend: 0x0, symName: __ZNSt3__16vectorI5TokenNS_9allocatorIS1_EEE11__make_iterB8ue170006EPS1_, symObjAddr: 0x8540, symBinAddr: 0x10000BB0C, symSize: 0x30 }
  - { offsetInCU: 0x46340, offset: 0x46340, size: 0x8, addend: 0x0, symName: __ZNKSt3__111__wrap_iterIPK5TokenE4baseB8ue170006Ev, symObjAddr: 0x8570, symBinAddr: 0x10000BB3C, symSize: 0x18 }
  - { offsetInCU: 0x46366, offset: 0x46366, size: 0x8, addend: 0x0, symName: __ZNKSt3__16vectorI5TokenNS_9allocatorIS1_EEE5beginB8ue170006Ev, symObjAddr: 0x8588, symBinAddr: 0x10000BB54, symSize: 0x30 }
  - { offsetInCU: 0x4638E, offset: 0x4638E, size: 0x8, addend: 0x0, symName: __ZNKSt3__16vectorI5TokenNS_9allocatorIS1_EEE11__make_iterB8ue170006EPKS1_, symObjAddr: 0x85B8, symBinAddr: 0x10000BB84, symSize: 0x30 }
  - { offsetInCU: 0x463C3, offset: 0x463C3, size: 0x8, addend: 0x0, symName: __ZNSt3__111__wrap_iterIPK5TokenEC1B8ue170006ES3_, symObjAddr: 0x85E8, symBinAddr: 0x10000BBB4, symSize: 0x34 }
  - { offsetInCU: 0x463FB, offset: 0x463FB, size: 0x8, addend: 0x0, symName: __ZNSt3__111__wrap_iterIPK5TokenEC2B8ue170006ES3_, symObjAddr: 0x861C, symBinAddr: 0x10000BBE8, symSize: 0x20 }
  - { offsetInCU: 0x46433, offset: 0x46433, size: 0x8, addend: 0x0, symName: __ZNKSt3__16vectorI5TokenNS_9allocatorIS1_EEE17__annotate_shrinkB8ue170006Em, symObjAddr: 0x863C, symBinAddr: 0x10000BC08, symSize: 0xD0 }
  - { offsetInCU: 0x46473, offset: 0x46473, size: 0x8, addend: 0x0, symName: __ZNKSt3__111__move_loopINS_17_ClassicAlgPolicyEEclB8ue170006IP5TokenS5_S5_EENS_4pairIT_T1_EES7_T0_S8_, symObjAddr: 0x8848, symBinAddr: 0x10000BE14, symSize: 0x90 }
  - { offsetInCU: 0x464DE, offset: 0x464DE, size: 0x8, addend: 0x0, symName: __ZNSt3__18_IterOpsINS_17_ClassicAlgPolicyEE11__iter_moveB8ue170006IRP5TokenEENS_9enable_ifIXsr12is_referenceIDTdeclsr3stdE7declvalIRT_EEEEE5valueEDTclsr3stdE4movedeclsr3stdE7declvalIS9_EEEEE4typeEOS8_, symObjAddr: 0x8904, symBinAddr: 0x10000BED0, symSize: 0x28 }
  - { offsetInCU: 0x4650A, offset: 0x4650A, size: 0x8, addend: 0x0, symName: __ZNSt3__18_IterOpsINS_17_ClassicAlgPolicyEE25__validate_iter_referenceB8ue170006IRP5TokenEEvv, symObjAddr: 0x892C, symBinAddr: 0x10000BEF8, symSize: 0x4 }
  - { offsetInCU: 0x46528, offset: 0x46528, size: 0x8, addend: 0x0, symName: __ZNSt3__111__wrap_iterIP5TokenEC1B8ue170006ES2_, symObjAddr: 0x8930, symBinAddr: 0x10000BEFC, symSize: 0x34 }
  - { offsetInCU: 0x46560, offset: 0x46560, size: 0x8, addend: 0x0, symName: __ZNSt3__111__wrap_iterIP5TokenEC2B8ue170006ES2_, symObjAddr: 0x8964, symBinAddr: 0x10000BF30, symSize: 0x20 }
  - { offsetInCU: 0x46598, offset: 0x46598, size: 0x8, addend: 0x0, symName: __ZNSt3__111__wrap_iterIPK5TokenEC2B8ue170006IPS1_EERKNS0_IT_EEPNS_9enable_ifIXsr14is_convertibleIS7_S3_EE5valueEvE4typeE, symObjAddr: 0x8984, symBinAddr: 0x10000BF50, symSize: 0x40 }
  - { offsetInCU: 0x465E4, offset: 0x465E4, size: 0x8, addend: 0x0, symName: __ZNKSt3__111__wrap_iterIP5TokenE4baseB8ue170006Ev, symObjAddr: 0x89C4, symBinAddr: 0x10000BF90, symSize: 0x18 }
  - { offsetInCU: 0x4660A, offset: 0x4660A, size: 0x8, addend: 0x0, symName: __ZN5Token8getValueEv, symObjAddr: 0x89DC, symBinAddr: 0x10000BFA8, symSize: 0x3C }
  - { offsetInCU: 0x46630, offset: 0x46630, size: 0x8, addend: 0x0, symName: __ZN9PredicateC1ENSt3__112basic_stringIcNS0_11char_traitsIcEENS0_9allocatorIcEEEE, symObjAddr: 0x8A18, symBinAddr: 0x10000BFE4, symSize: 0x34 }
  - { offsetInCU: 0x46669, offset: 0x46669, size: 0x8, addend: 0x0, symName: __ZN9ParameterC1ENSt3__112basic_stringIcNS0_11char_traitsIcEENS0_9allocatorIcEEEE, symObjAddr: 0x8A4C, symBinAddr: 0x10000C018, symSize: 0x34 }
  - { offsetInCU: 0x466A2, offset: 0x466A2, size: 0x8, addend: 0x0, symName: __ZN9Predicate12addParameterE9Parameter, symObjAddr: 0x8A80, symBinAddr: 0x10000C04C, symSize: 0x30 }
  - { offsetInCU: 0x466D7, offset: 0x466D7, size: 0x8, addend: 0x0, symName: __ZN9ParameterC1ERKS_, symObjAddr: 0x8AB0, symBinAddr: 0x10000C07C, symSize: 0x34 }
  - { offsetInCU: 0x4670C, offset: 0x4670C, size: 0x8, addend: 0x0, symName: __ZN9ParameterD1Ev, symObjAddr: 0x8AE4, symBinAddr: 0x10000C0B0, symSize: 0x2C }
  - { offsetInCU: 0x46738, offset: 0x46738, size: 0x8, addend: 0x0, symName: __ZN6Parser6idListER9Predicate, symObjAddr: 0x8B10, symBinAddr: 0x10000C0DC, symSize: 0x12C }
  - { offsetInCU: 0x46782, offset: 0x46782, size: 0x8, addend: 0x0, symName: __ZN14DatalogProgram9addSchemeE9Predicate, symObjAddr: 0x8C3C, symBinAddr: 0x10000C208, symSize: 0x2C }
  - { offsetInCU: 0x467B7, offset: 0x467B7, size: 0x8, addend: 0x0, symName: __ZN9PredicateC1ERKS_, symObjAddr: 0x8C68, symBinAddr: 0x10000C234, symSize: 0x34 }
  - { offsetInCU: 0x467EC, offset: 0x467EC, size: 0x8, addend: 0x0, symName: __ZN9PredicateD1Ev, symObjAddr: 0x8C9C, symBinAddr: 0x10000C268, symSize: 0x2C }
  - { offsetInCU: 0x46818, offset: 0x46818, size: 0x8, addend: 0x0, symName: __ZN9PredicateC2ENSt3__112basic_stringIcNS0_11char_traitsIcEENS0_9allocatorIcEEEE, symObjAddr: 0x8CC8, symBinAddr: 0x10000C294, symSize: 0x40 }
  - { offsetInCU: 0x46851, offset: 0x46851, size: 0x8, addend: 0x0, symName: __ZNSt3__16vectorI9ParameterNS_9allocatorIS1_EEEC1B8ue170006Ev, symObjAddr: 0x8D08, symBinAddr: 0x10000C2D4, symSize: 0x2C }
  - { offsetInCU: 0x4687B, offset: 0x4687B, size: 0x8, addend: 0x0, symName: __ZNSt3__16vectorI9ParameterNS_9allocatorIS1_EEEC2B8ue170006Ev, symObjAddr: 0x8D34, symBinAddr: 0x10000C300, symSize: 0x4C }
  - { offsetInCU: 0x468A5, offset: 0x468A5, size: 0x8, addend: 0x0, symName: __ZNSt3__117__compressed_pairIP9ParameterNS_9allocatorIS1_EEEC1B8ue170006IDnNS_18__default_init_tagEEEOT_OT0_, symObjAddr: 0x8D80, symBinAddr: 0x10000C34C, symSize: 0x3C }
  - { offsetInCU: 0x468FD, offset: 0x468FD, size: 0x8, addend: 0x0, symName: __ZNSt3__117__compressed_pairIP9ParameterNS_9allocatorIS1_EEEC2B8ue170006IDnNS_18__default_init_tagEEEOT_OT0_, symObjAddr: 0x8DBC, symBinAddr: 0x10000C388, symSize: 0x40 }
  - { offsetInCU: 0x46955, offset: 0x46955, size: 0x8, addend: 0x0, symName: __ZNSt3__122__compressed_pair_elemIP9ParameterLi0ELb0EEC2B8ue170006IDnvEEOT_, symObjAddr: 0x8DFC, symBinAddr: 0x10000C3C8, symSize: 0x1C }
  - { offsetInCU: 0x46997, offset: 0x46997, size: 0x8, addend: 0x0, symName: __ZNSt3__122__compressed_pair_elemINS_9allocatorI9ParameterEELi1ELb1EEC2B8ue170006ENS_18__default_init_tagE, symObjAddr: 0x8E18, symBinAddr: 0x10000C3E4, symSize: 0x2C }
  - { offsetInCU: 0x469CC, offset: 0x469CC, size: 0x8, addend: 0x0, symName: __ZNSt3__19allocatorI9ParameterEC2B8ue170006Ev, symObjAddr: 0x8E44, symBinAddr: 0x10000C410, symSize: 0x2C }
  - { offsetInCU: 0x469F6, offset: 0x469F6, size: 0x8, addend: 0x0, symName: __ZNSt3__116__non_trivial_ifILb1ENS_9allocatorI9ParameterEEEC2B8ue170006Ev, symObjAddr: 0x8E70, symBinAddr: 0x10000C43C, symSize: 0x14 }
  - { offsetInCU: 0x46A20, offset: 0x46A20, size: 0x8, addend: 0x0, symName: __ZN9ParameterC2ENSt3__112basic_stringIcNS0_11char_traitsIcEENS0_9allocatorIcEEEE, symObjAddr: 0x8E84, symBinAddr: 0x10000C450, symSize: 0x34 }
  - { offsetInCU: 0x46A59, offset: 0x46A59, size: 0x8, addend: 0x0, symName: __ZNSt3__16vectorI9ParameterNS_9allocatorIS1_EEE9push_backB8ue170006ERKS1_, symObjAddr: 0x8EB8, symBinAddr: 0x10000C484, symSize: 0x6C }
  - { offsetInCU: 0x46A90, offset: 0x46A90, size: 0x8, addend: 0x0, symName: __ZNSt3__16vectorI9ParameterNS_9allocatorIS1_EEE9__end_capB8ue170006Ev, symObjAddr: 0x8F24, symBinAddr: 0x10000C4F0, symSize: 0x28 }
  - { offsetInCU: 0x46AB6, offset: 0x46AB6, size: 0x8, addend: 0x0, symName: __ZNSt3__16vectorI9ParameterNS_9allocatorIS1_EEE22__construct_one_at_endB8ue170006IJRKS1_EEEvDpOT_, symObjAddr: 0x8F4C, symBinAddr: 0x10000C518, symSize: 0x90 }
  - { offsetInCU: 0x46B05, offset: 0x46B05, size: 0x8, addend: 0x0, symName: __ZNSt3__16vectorI9ParameterNS_9allocatorIS1_EEE21__push_back_slow_pathIRKS1_EEvOT_, symObjAddr: 0x8FDC, symBinAddr: 0x10000C5A8, symSize: 0xD8 }
  - { offsetInCU: 0x46B63, offset: 0x46B63, size: 0x8, addend: 0x0, symName: __ZNSt3__117__compressed_pairIP9ParameterNS_9allocatorIS1_EEE5firstB8ue170006Ev, symObjAddr: 0x90B4, symBinAddr: 0x10000C680, symSize: 0x24 }
  - { offsetInCU: 0x46B89, offset: 0x46B89, size: 0x8, addend: 0x0, symName: __ZNSt3__122__compressed_pair_elemIP9ParameterLi0ELb0EE5__getB8ue170006Ev, symObjAddr: 0x90D8, symBinAddr: 0x10000C6A4, symSize: 0x14 }
  - { offsetInCU: 0x46BCB, offset: 0x46BCB, size: 0x8, addend: 0x0, symName: __ZNSt3__16vectorI9ParameterNS_9allocatorIS1_EEE21_ConstructTransactionC1B8ue170006ERS4_m, symObjAddr: 0x90EC, symBinAddr: 0x10000C6B8, symSize: 0x3C }
  - { offsetInCU: 0x46C13, offset: 0x46C13, size: 0x8, addend: 0x0, symName: __ZNSt3__116allocator_traitsINS_9allocatorI9ParameterEEE9constructB8ue170006IS2_JRKS2_EvEEvRS3_PT_DpOT0_, symObjAddr: 0x9128, symBinAddr: 0x10000C6F4, symSize: 0x34 }
  - { offsetInCU: 0x46C6A, offset: 0x46C6A, size: 0x8, addend: 0x0, symName: __ZNSt3__16vectorI9ParameterNS_9allocatorIS1_EEE7__allocB8ue170006Ev, symObjAddr: 0x915C, symBinAddr: 0x10000C728, symSize: 0x28 }
  - { offsetInCU: 0x46C90, offset: 0x46C90, size: 0x8, addend: 0x0, symName: __ZNSt3__16vectorI9ParameterNS_9allocatorIS1_EEE21_ConstructTransactionD1B8ue170006Ev, symObjAddr: 0x9198, symBinAddr: 0x10000C764, symSize: 0x2C }
  - { offsetInCU: 0x46CBA, offset: 0x46CBA, size: 0x8, addend: 0x0, symName: __ZNSt3__16vectorI9ParameterNS_9allocatorIS1_EEE21_ConstructTransactionC2B8ue170006ERS4_m, symObjAddr: 0x91C4, symBinAddr: 0x10000C790, symSize: 0x4C }
  - { offsetInCU: 0x46D02, offset: 0x46D02, size: 0x8, addend: 0x0, symName: __ZNSt3__19allocatorI9ParameterE9constructB8ue170006IS1_JRKS1_EEEvPT_DpOT0_, symObjAddr: 0x9210, symBinAddr: 0x10000C7DC, symSize: 0x30 }
  - { offsetInCU: 0x46D58, offset: 0x46D58, size: 0x8, addend: 0x0, symName: __ZNSt3__117__compressed_pairIP9ParameterNS_9allocatorIS1_EEE6secondB8ue170006Ev, symObjAddr: 0x9240, symBinAddr: 0x10000C80C, symSize: 0x24 }
  - { offsetInCU: 0x46D7E, offset: 0x46D7E, size: 0x8, addend: 0x0, symName: __ZNSt3__122__compressed_pair_elemINS_9allocatorI9ParameterEELi1ELb1EE5__getB8ue170006Ev, symObjAddr: 0x9264, symBinAddr: 0x10000C830, symSize: 0x14 }
  - { offsetInCU: 0x46DA4, offset: 0x46DA4, size: 0x8, addend: 0x0, symName: __ZNSt3__16vectorI9ParameterNS_9allocatorIS1_EEE21_ConstructTransactionD2B8ue170006Ev, symObjAddr: 0x9278, symBinAddr: 0x10000C844, symSize: 0x20 }
  - { offsetInCU: 0x46DCE, offset: 0x46DCE, size: 0x8, addend: 0x0, symName: __ZNKSt3__16vectorI9ParameterNS_9allocatorIS1_EEE11__recommendB8ue170006Em, symObjAddr: 0x9298, symBinAddr: 0x10000C864, symSize: 0xB4 }
  - { offsetInCU: 0x46E23, offset: 0x46E23, size: 0x8, addend: 0x0, symName: __ZNKSt3__16vectorI9ParameterNS_9allocatorIS1_EEE4sizeB8ue170006Ev, symObjAddr: 0x934C, symBinAddr: 0x10000C918, symSize: 0x28 }
  - { offsetInCU: 0x46E49, offset: 0x46E49, size: 0x8, addend: 0x0, symName: __ZNSt3__114__split_bufferI9ParameterRNS_9allocatorIS1_EEEC1EmmS4_, symObjAddr: 0x9374, symBinAddr: 0x10000C940, symSize: 0x44 }
  - { offsetInCU: 0x46E9F, offset: 0x46E9F, size: 0x8, addend: 0x0, symName: __ZNSt3__114__split_bufferI9ParameterRNS_9allocatorIS1_EEED1Ev, symObjAddr: 0x94C8, symBinAddr: 0x10000CA94, symSize: 0x2C }
  - { offsetInCU: 0x46ECB, offset: 0x46ECB, size: 0x8, addend: 0x0, symName: __ZNKSt3__16vectorI9ParameterNS_9allocatorIS1_EEE8max_sizeEv, symObjAddr: 0x94F4, symBinAddr: 0x10000CAC0, symSize: 0x60 }
  - { offsetInCU: 0x46EF3, offset: 0x46EF3, size: 0x8, addend: 0x0, symName: __ZNKSt3__16vectorI9ParameterNS_9allocatorIS1_EEE20__throw_length_errorB8ue170006Ev, symObjAddr: 0x9554, symBinAddr: 0x10000CB20, symSize: 0x1C }
  - { offsetInCU: 0x46F19, offset: 0x46F19, size: 0x8, addend: 0x0, symName: __ZNKSt3__16vectorI9ParameterNS_9allocatorIS1_EEE8capacityB8ue170006Ev, symObjAddr: 0x9570, symBinAddr: 0x10000CB3C, symSize: 0x40 }
  - { offsetInCU: 0x46F4A, offset: 0x46F4A, size: 0x8, addend: 0x0, symName: __ZNSt3__116allocator_traitsINS_9allocatorI9ParameterEEE8max_sizeB8ue170006IS3_vEEmRKS3_, symObjAddr: 0x95B0, symBinAddr: 0x10000CB7C, symSize: 0x24 }
  - { offsetInCU: 0x46F78, offset: 0x46F78, size: 0x8, addend: 0x0, symName: __ZNKSt3__16vectorI9ParameterNS_9allocatorIS1_EEE7__allocB8ue170006Ev, symObjAddr: 0x95D4, symBinAddr: 0x10000CBA0, symSize: 0x28 }
  - { offsetInCU: 0x46F9E, offset: 0x46F9E, size: 0x8, addend: 0x0, symName: __ZNKSt3__19allocatorI9ParameterE8max_sizeB8ue170006Ev, symObjAddr: 0x95FC, symBinAddr: 0x10000CBC8, symSize: 0x18 }
  - { offsetInCU: 0x46FC4, offset: 0x46FC4, size: 0x8, addend: 0x0, symName: __ZNKSt3__117__compressed_pairIP9ParameterNS_9allocatorIS1_EEE6secondB8ue170006Ev, symObjAddr: 0x9614, symBinAddr: 0x10000CBE0, symSize: 0x24 }
  - { offsetInCU: 0x46FEA, offset: 0x46FEA, size: 0x8, addend: 0x0, symName: __ZNKSt3__122__compressed_pair_elemINS_9allocatorI9ParameterEELi1ELb1EE5__getB8ue170006Ev, symObjAddr: 0x9638, symBinAddr: 0x10000CC04, symSize: 0x14 }
  - { offsetInCU: 0x47010, offset: 0x47010, size: 0x8, addend: 0x0, symName: __ZNKSt3__16vectorI9ParameterNS_9allocatorIS1_EEE9__end_capB8ue170006Ev, symObjAddr: 0x964C, symBinAddr: 0x10000CC18, symSize: 0x28 }
  - { offsetInCU: 0x47036, offset: 0x47036, size: 0x8, addend: 0x0, symName: __ZNKSt3__117__compressed_pairIP9ParameterNS_9allocatorIS1_EEE5firstB8ue170006Ev, symObjAddr: 0x9674, symBinAddr: 0x10000CC40, symSize: 0x24 }
  - { offsetInCU: 0x4705C, offset: 0x4705C, size: 0x8, addend: 0x0, symName: __ZNKSt3__122__compressed_pair_elemIP9ParameterLi0ELb0EE5__getB8ue170006Ev, symObjAddr: 0x9698, symBinAddr: 0x10000CC64, symSize: 0x14 }
  - { offsetInCU: 0x47082, offset: 0x47082, size: 0x8, addend: 0x0, symName: __ZNSt3__114__split_bufferI9ParameterRNS_9allocatorIS1_EEEC2EmmS4_, symObjAddr: 0x96AC, symBinAddr: 0x10000CC78, symSize: 0xE0 }
  - { offsetInCU: 0x470F5, offset: 0x470F5, size: 0x8, addend: 0x0, symName: __ZNSt3__117__compressed_pairIP9ParameterRNS_9allocatorIS1_EEEC1B8ue170006IDnS5_EEOT_OT0_, symObjAddr: 0x978C, symBinAddr: 0x10000CD58, symSize: 0x3C }
  - { offsetInCU: 0x4714D, offset: 0x4714D, size: 0x8, addend: 0x0, symName: __ZNSt3__114__split_bufferI9ParameterRNS_9allocatorIS1_EEE7__allocB8ue170006Ev, symObjAddr: 0x9808, symBinAddr: 0x10000CDD4, symSize: 0x28 }
  - { offsetInCU: 0x47173, offset: 0x47173, size: 0x8, addend: 0x0, symName: __ZNSt3__114__split_bufferI9ParameterRNS_9allocatorIS1_EEE9__end_capB8ue170006Ev, symObjAddr: 0x9830, symBinAddr: 0x10000CDFC, symSize: 0x28 }
  - { offsetInCU: 0x47199, offset: 0x47199, size: 0x8, addend: 0x0, symName: __ZNSt3__117__compressed_pairIP9ParameterRNS_9allocatorIS1_EEEC2B8ue170006IDnS5_EEOT_OT0_, symObjAddr: 0x9858, symBinAddr: 0x10000CE24, symSize: 0x48 }
  - { offsetInCU: 0x471F1, offset: 0x471F1, size: 0x8, addend: 0x0, symName: __ZNSt3__122__compressed_pair_elemIRNS_9allocatorI9ParameterEELi1ELb0EEC2B8ue170006IS4_vEEOT_, symObjAddr: 0x98A0, symBinAddr: 0x10000CE6C, symSize: 0x20 }
  - { offsetInCU: 0x47233, offset: 0x47233, size: 0x8, addend: 0x0, symName: __ZNSt3__19allocatorI9ParameterE8allocateB8ue170006Em, symObjAddr: 0x98C0, symBinAddr: 0x10000CE8C, symSize: 0x5C }
  - { offsetInCU: 0x47267, offset: 0x47267, size: 0x8, addend: 0x0, symName: __ZNSt3__117__compressed_pairIP9ParameterRNS_9allocatorIS1_EEE6secondB8ue170006Ev, symObjAddr: 0x991C, symBinAddr: 0x10000CEE8, symSize: 0x28 }
  - { offsetInCU: 0x4728D, offset: 0x4728D, size: 0x8, addend: 0x0, symName: __ZNSt3__122__compressed_pair_elemIRNS_9allocatorI9ParameterEELi1ELb0EE5__getB8ue170006Ev, symObjAddr: 0x9944, symBinAddr: 0x10000CF10, symSize: 0x18 }
  - { offsetInCU: 0x472B3, offset: 0x472B3, size: 0x8, addend: 0x0, symName: __ZNSt3__117__compressed_pairIP9ParameterRNS_9allocatorIS1_EEE5firstB8ue170006Ev, symObjAddr: 0x995C, symBinAddr: 0x10000CF28, symSize: 0x24 }
  - { offsetInCU: 0x472D9, offset: 0x472D9, size: 0x8, addend: 0x0, symName: __ZNKSt3__16vectorI9ParameterNS_9allocatorIS1_EEE17__annotate_deleteB8ue170006Ev, symObjAddr: 0x9980, symBinAddr: 0x10000CF4C, symSize: 0xD4 }
  - { offsetInCU: 0x472FF, offset: 0x472FF, size: 0x8, addend: 0x0, symName: __ZNSt3__116reverse_iteratorIP9ParameterEC1B8ue170006ES2_, symObjAddr: 0x9B80, symBinAddr: 0x10000D14C, symSize: 0x34 }
  - { offsetInCU: 0x47337, offset: 0x47337, size: 0x8, addend: 0x0, symName: __ZNKSt3__116reverse_iteratorIP9ParameterE4baseB8ue170006Ev, symObjAddr: 0x9BB4, symBinAddr: 0x10000D180, symSize: 0x18 }
  - { offsetInCU: 0x4735D, offset: 0x4735D, size: 0x8, addend: 0x0, symName: __ZNKSt3__16vectorI9ParameterNS_9allocatorIS1_EEE14__annotate_newB8ue170006Em, symObjAddr: 0x9C08, symBinAddr: 0x10000D1D4, symSize: 0xC8 }
  - { offsetInCU: 0x47392, offset: 0x47392, size: 0x8, addend: 0x0, symName: __ZNKSt3__16vectorI9ParameterNS_9allocatorIS1_EEE31__annotate_contiguous_containerB8ue170006EPKvS6_S6_S6_, symObjAddr: 0x9CD0, symBinAddr: 0x10000D29C, symSize: 0x20 }
  - { offsetInCU: 0x473E8, offset: 0x473E8, size: 0x8, addend: 0x0, symName: __ZNKSt3__16vectorI9ParameterNS_9allocatorIS1_EEE4dataB8ue170006Ev, symObjAddr: 0x9CF0, symBinAddr: 0x10000D2BC, symSize: 0x28 }
  - { offsetInCU: 0x4740E, offset: 0x4740E, size: 0x8, addend: 0x0, symName: __ZNSt3__129_AllocatorDestroyRangeReverseINS_9allocatorI9ParameterEENS_16reverse_iteratorIPS2_EEEC1B8ue170006ERS3_RS6_S9_, symObjAddr: 0x9D64, symBinAddr: 0x10000D330, symSize: 0x44 }
  - { offsetInCU: 0x4746B, offset: 0x4746B, size: 0x8, addend: 0x0, symName: __ZNSt3__116allocator_traitsINS_9allocatorI9ParameterEEE9constructB8ue170006IS2_JS2_EvEEvRS3_PT_DpOT0_, symObjAddr: 0x9DF0, symBinAddr: 0x10000D3BC, symSize: 0x34 }
  - { offsetInCU: 0x474C2, offset: 0x474C2, size: 0x8, addend: 0x0, symName: __ZNKSt3__116reverse_iteratorIP9ParameterEdeB8ue170006Ev, symObjAddr: 0x9E48, symBinAddr: 0x10000D414, symSize: 0x28 }
  - { offsetInCU: 0x474F6, offset: 0x474F6, size: 0x8, addend: 0x0, symName: __ZNSt3__116reverse_iteratorIP9ParameterEppB8ue170006Ev, symObjAddr: 0x9E70, symBinAddr: 0x10000D43C, symSize: 0x20 }
  - { offsetInCU: 0x4751C, offset: 0x4751C, size: 0x8, addend: 0x0, symName: __ZNSt3__128__exception_guard_exceptionsINS_29_AllocatorDestroyRangeReverseINS_9allocatorI9ParameterEENS_16reverse_iteratorIPS3_EEEEE10__completeB8ue170006Ev, symObjAddr: 0x9E90, symBinAddr: 0x10000D45C, symSize: 0x1C }
  - { offsetInCU: 0x47542, offset: 0x47542, size: 0x8, addend: 0x0, symName: __ZNSt3__128__exception_guard_exceptionsINS_29_AllocatorDestroyRangeReverseINS_9allocatorI9ParameterEENS_16reverse_iteratorIPS3_EEEEED1B8ue170006Ev, symObjAddr: 0x9EAC, symBinAddr: 0x10000D478, symSize: 0x2C }
  - { offsetInCU: 0x4756C, offset: 0x4756C, size: 0x8, addend: 0x0, symName: __ZNSt3__128__exception_guard_exceptionsINS_29_AllocatorDestroyRangeReverseINS_9allocatorI9ParameterEENS_16reverse_iteratorIPS3_EEEEEC1B8ue170006ES8_, symObjAddr: 0x9ED8, symBinAddr: 0x10000D4A4, symSize: 0x34 }
  - { offsetInCU: 0x475A5, offset: 0x475A5, size: 0x8, addend: 0x0, symName: __ZNSt3__128__exception_guard_exceptionsINS_29_AllocatorDestroyRangeReverseINS_9allocatorI9ParameterEENS_16reverse_iteratorIPS3_EEEEEC2B8ue170006ES8_, symObjAddr: 0x9F0C, symBinAddr: 0x10000D4D8, symSize: 0x30 }
  - { offsetInCU: 0x475DE, offset: 0x475DE, size: 0x8, addend: 0x0, symName: __ZNSt3__129_AllocatorDestroyRangeReverseINS_9allocatorI9ParameterEENS_16reverse_iteratorIPS2_EEEC2B8ue170006ERS3_RS6_S9_, symObjAddr: 0x9F3C, symBinAddr: 0x10000D508, symSize: 0x38 }
  - { offsetInCU: 0x47635, offset: 0x47635, size: 0x8, addend: 0x0, symName: __ZNSt3__19allocatorI9ParameterE9constructB8ue170006IS1_JS1_EEEvPT_DpOT0_, symObjAddr: 0x9F74, symBinAddr: 0x10000D540, symSize: 0x30 }
  - { offsetInCU: 0x4768B, offset: 0x4768B, size: 0x8, addend: 0x0, symName: __ZN9ParameterC1EOS_, symObjAddr: 0x9FA4, symBinAddr: 0x10000D570, symSize: 0x34 }
  - { offsetInCU: 0x476C0, offset: 0x476C0, size: 0x8, addend: 0x0, symName: __ZN9ParameterC2EOS_, symObjAddr: 0x9FD8, symBinAddr: 0x10000D5A4, symSize: 0x34 }
  - { offsetInCU: 0x476FB, offset: 0x476FB, size: 0x8, addend: 0x0, symName: __ZNSt3__119__to_address_helperINS_16reverse_iteratorIP9ParameterEEvE6__callB8ue170006ERKS4_, symObjAddr: 0xA00C, symBinAddr: 0x10000D5D8, symSize: 0x38 }
  - { offsetInCU: 0x4771E, offset: 0x4771E, size: 0x8, addend: 0x0, symName: __ZNKSt3__116reverse_iteratorIP9ParameterEptB8ue170006Ev, symObjAddr: 0xA044, symBinAddr: 0x10000D610, symSize: 0x24 }
  - { offsetInCU: 0x47744, offset: 0x47744, size: 0x8, addend: 0x0, symName: __ZNSt3__128__exception_guard_exceptionsINS_29_AllocatorDestroyRangeReverseINS_9allocatorI9ParameterEENS_16reverse_iteratorIPS3_EEEEED2B8ue170006Ev, symObjAddr: 0xA068, symBinAddr: 0x10000D634, symSize: 0x50 }
  - { offsetInCU: 0x4776E, offset: 0x4776E, size: 0x8, addend: 0x0, symName: __ZNKSt3__129_AllocatorDestroyRangeReverseINS_9allocatorI9ParameterEENS_16reverse_iteratorIPS2_EEEclB8ue170006Ev, symObjAddr: 0xA0B8, symBinAddr: 0x10000D684, symSize: 0xB4 }
  - { offsetInCU: 0x47795, offset: 0x47795, size: 0x8, addend: 0x0, symName: __ZNSt3__116reverse_iteratorINS0_IP9ParameterEEEC1B8ue170006ES3_, symObjAddr: 0xA1DC, symBinAddr: 0x10000D7A8, symSize: 0x3C }
  - { offsetInCU: 0x477CD, offset: 0x477CD, size: 0x8, addend: 0x0, symName: __ZNSt3__116allocator_traitsINS_9allocatorI9ParameterEEE7destroyB8ue170006IS2_vEEvRS3_PT_, symObjAddr: 0xA278, symBinAddr: 0x10000D844, symSize: 0x2C }
  - { offsetInCU: 0x4780A, offset: 0x4780A, size: 0x8, addend: 0x0, symName: __ZNSt3__116reverse_iteratorINS0_IP9ParameterEEEppB8ue170006Ev, symObjAddr: 0xA2C8, symBinAddr: 0x10000D894, symSize: 0x30 }
  - { offsetInCU: 0x47830, offset: 0x47830, size: 0x8, addend: 0x0, symName: __ZNKSt3__116reverse_iteratorINS0_IP9ParameterEEE4baseB8ue170006Ev, symObjAddr: 0xA2F8, symBinAddr: 0x10000D8C4, symSize: 0x24 }
  - { offsetInCU: 0x47856, offset: 0x47856, size: 0x8, addend: 0x0, symName: __ZNSt3__19allocatorI9ParameterE7destroyB8ue170006EPS1_, symObjAddr: 0xA31C, symBinAddr: 0x10000D8E8, symSize: 0x28 }
  - { offsetInCU: 0x47890, offset: 0x47890, size: 0x8, addend: 0x0, symName: __ZNSt3__119__to_address_helperINS_16reverse_iteratorINS1_IP9ParameterEEEEvE6__callB8ue170006ERKS5_, symObjAddr: 0xA344, symBinAddr: 0x10000D910, symSize: 0x38 }
  - { offsetInCU: 0x478B3, offset: 0x478B3, size: 0x8, addend: 0x0, symName: __ZNKSt3__116reverse_iteratorINS0_IP9ParameterEEEptB8ue170006Ev, symObjAddr: 0xA37C, symBinAddr: 0x10000D948, symSize: 0x24 }
  - { offsetInCU: 0x478D9, offset: 0x478D9, size: 0x8, addend: 0x0, symName: __ZNKSt3__116reverse_iteratorINS0_IP9ParameterEEEdeB8ue170006Ev, symObjAddr: 0xA3A0, symBinAddr: 0x10000D96C, symSize: 0x34 }
  - { offsetInCU: 0x4790D, offset: 0x4790D, size: 0x8, addend: 0x0, symName: __ZNSt3__116reverse_iteratorIP9ParameterEmmB8ue170006Ev, symObjAddr: 0xA3D4, symBinAddr: 0x10000D9A0, symSize: 0x20 }
  - { offsetInCU: 0x47933, offset: 0x47933, size: 0x8, addend: 0x0, symName: __ZNSt3__116reverse_iteratorINS0_IP9ParameterEEEC2B8ue170006ES3_, symObjAddr: 0xA3F4, symBinAddr: 0x10000D9C0, symSize: 0x2C }
  - { offsetInCU: 0x4796B, offset: 0x4796B, size: 0x8, addend: 0x0, symName: __ZNSt3__116reverse_iteratorIP9ParameterEC2B8ue170006ES2_, symObjAddr: 0xA420, symBinAddr: 0x10000D9EC, symSize: 0x28 }
  - { offsetInCU: 0x479A3, offset: 0x479A3, size: 0x8, addend: 0x0, symName: __ZNSt3__114__split_bufferI9ParameterRNS_9allocatorIS1_EEED2Ev, symObjAddr: 0xA448, symBinAddr: 0x10000DA14, symSize: 0x8C }
  - { offsetInCU: 0x479CF, offset: 0x479CF, size: 0x8, addend: 0x0, symName: __ZNSt3__114__split_bufferI9ParameterRNS_9allocatorIS1_EEE5clearB8ue170006Ev, symObjAddr: 0xA4D4, symBinAddr: 0x10000DAA0, symSize: 0x28 }
  - { offsetInCU: 0x479F5, offset: 0x479F5, size: 0x8, addend: 0x0, symName: __ZNSt3__116allocator_traitsINS_9allocatorI9ParameterEEE10deallocateB8ue170006ERS3_PS2_m, symObjAddr: 0xA4FC, symBinAddr: 0x10000DAC8, symSize: 0x34 }
  - { offsetInCU: 0x47A37, offset: 0x47A37, size: 0x8, addend: 0x0, symName: __ZNKSt3__114__split_bufferI9ParameterRNS_9allocatorIS1_EEE8capacityB8ue170006Ev, symObjAddr: 0xA530, symBinAddr: 0x10000DAFC, symSize: 0x40 }
  - { offsetInCU: 0x47A5D, offset: 0x47A5D, size: 0x8, addend: 0x0, symName: __ZNSt3__114__split_bufferI9ParameterRNS_9allocatorIS1_EEE17__destruct_at_endB8ue170006EPS1_, symObjAddr: 0xA570, symBinAddr: 0x10000DB3C, symSize: 0x2C }
  - { offsetInCU: 0x47A91, offset: 0x47A91, size: 0x8, addend: 0x0, symName: __ZNSt3__114__split_bufferI9ParameterRNS_9allocatorIS1_EEE17__destruct_at_endB8ue170006EPS1_NS_17integral_constantIbLb0EEE, symObjAddr: 0xA59C, symBinAddr: 0x10000DB68, symSize: 0x80 }
  - { offsetInCU: 0x47AD2, offset: 0x47AD2, size: 0x8, addend: 0x0, symName: __ZNSt3__19allocatorI9ParameterE10deallocateB8ue170006EPS1_m, symObjAddr: 0xA61C, symBinAddr: 0x10000DBE8, symSize: 0x44 }
  - { offsetInCU: 0x47B14, offset: 0x47B14, size: 0x8, addend: 0x0, symName: __ZNKSt3__114__split_bufferI9ParameterRNS_9allocatorIS1_EEE9__end_capB8ue170006Ev, symObjAddr: 0xA660, symBinAddr: 0x10000DC2C, symSize: 0x28 }
  - { offsetInCU: 0x47B3A, offset: 0x47B3A, size: 0x8, addend: 0x0, symName: __ZNKSt3__117__compressed_pairIP9ParameterRNS_9allocatorIS1_EEE5firstB8ue170006Ev, symObjAddr: 0xA688, symBinAddr: 0x10000DC54, symSize: 0x24 }
  - { offsetInCU: 0x47B60, offset: 0x47B60, size: 0x8, addend: 0x0, symName: __ZN9ParameterC2ERKS_, symObjAddr: 0xA6AC, symBinAddr: 0x10000DC78, symSize: 0x34 }
  - { offsetInCU: 0x47B95, offset: 0x47B95, size: 0x8, addend: 0x0, symName: __ZN9ParameterD2Ev, symObjAddr: 0xA6E0, symBinAddr: 0x10000DCAC, symSize: 0x2C }
  - { offsetInCU: 0x47BC1, offset: 0x47BC1, size: 0x8, addend: 0x0, symName: __ZNSt3__16vectorI9PredicateNS_9allocatorIS1_EEE9push_backB8ue170006ERKS1_, symObjAddr: 0xA70C, symBinAddr: 0x10000DCD8, symSize: 0x6C }
  - { offsetInCU: 0x47BF8, offset: 0x47BF8, size: 0x8, addend: 0x0, symName: __ZNSt3__16vectorI9PredicateNS_9allocatorIS1_EEE9__end_capB8ue170006Ev, symObjAddr: 0xA778, symBinAddr: 0x10000DD44, symSize: 0x28 }
  - { offsetInCU: 0x47C1E, offset: 0x47C1E, size: 0x8, addend: 0x0, symName: __ZNSt3__16vectorI9PredicateNS_9allocatorIS1_EEE22__construct_one_at_endB8ue170006IJRKS1_EEEvDpOT_, symObjAddr: 0xA7A0, symBinAddr: 0x10000DD6C, symSize: 0x90 }
  - { offsetInCU: 0x47C6D, offset: 0x47C6D, size: 0x8, addend: 0x0, symName: __ZNSt3__16vectorI9PredicateNS_9allocatorIS1_EEE21__push_back_slow_pathIRKS1_EEvOT_, symObjAddr: 0xA830, symBinAddr: 0x10000DDFC, symSize: 0xD8 }
  - { offsetInCU: 0x47CCB, offset: 0x47CCB, size: 0x8, addend: 0x0, symName: __ZNSt3__117__compressed_pairIP9PredicateNS_9allocatorIS1_EEE5firstB8ue170006Ev, symObjAddr: 0xA908, symBinAddr: 0x10000DED4, symSize: 0x24 }
  - { offsetInCU: 0x47CF1, offset: 0x47CF1, size: 0x8, addend: 0x0, symName: __ZNSt3__122__compressed_pair_elemIP9PredicateLi0ELb0EE5__getB8ue170006Ev, symObjAddr: 0xA92C, symBinAddr: 0x10000DEF8, symSize: 0x14 }
  - { offsetInCU: 0x47D33, offset: 0x47D33, size: 0x8, addend: 0x0, symName: __ZNSt3__16vectorI9PredicateNS_9allocatorIS1_EEE21_ConstructTransactionC1B8ue170006ERS4_m, symObjAddr: 0xA940, symBinAddr: 0x10000DF0C, symSize: 0x3C }
  - { offsetInCU: 0x47D7B, offset: 0x47D7B, size: 0x8, addend: 0x0, symName: __ZNSt3__116allocator_traitsINS_9allocatorI9PredicateEEE9constructB8ue170006IS2_JRKS2_EvEEvRS3_PT_DpOT0_, symObjAddr: 0xA97C, symBinAddr: 0x10000DF48, symSize: 0x34 }
  - { offsetInCU: 0x47DD2, offset: 0x47DD2, size: 0x8, addend: 0x0, symName: __ZNSt3__16vectorI9PredicateNS_9allocatorIS1_EEE7__allocB8ue170006Ev, symObjAddr: 0xA9B0, symBinAddr: 0x10000DF7C, symSize: 0x28 }
  - { offsetInCU: 0x47DF8, offset: 0x47DF8, size: 0x8, addend: 0x0, symName: __ZNSt3__16vectorI9PredicateNS_9allocatorIS1_EEE21_ConstructTransactionD1B8ue170006Ev, symObjAddr: 0xA9EC, symBinAddr: 0x10000DFB8, symSize: 0x2C }
  - { offsetInCU: 0x47E22, offset: 0x47E22, size: 0x8, addend: 0x0, symName: __ZNSt3__16vectorI9PredicateNS_9allocatorIS1_EEE21_ConstructTransactionC2B8ue170006ERS4_m, symObjAddr: 0xAA18, symBinAddr: 0x10000DFE4, symSize: 0x4C }
  - { offsetInCU: 0x47E6A, offset: 0x47E6A, size: 0x8, addend: 0x0, symName: __ZNSt3__19allocatorI9PredicateE9constructB8ue170006IS1_JRKS1_EEEvPT_DpOT0_, symObjAddr: 0xAA64, symBinAddr: 0x10000E030, symSize: 0x30 }
  - { offsetInCU: 0x47EC0, offset: 0x47EC0, size: 0x8, addend: 0x0, symName: __ZNSt3__117__compressed_pairIP9PredicateNS_9allocatorIS1_EEE6secondB8ue170006Ev, symObjAddr: 0xAA94, symBinAddr: 0x10000E060, symSize: 0x24 }
  - { offsetInCU: 0x47EE6, offset: 0x47EE6, size: 0x8, addend: 0x0, symName: __ZNSt3__122__compressed_pair_elemINS_9allocatorI9PredicateEELi1ELb1EE5__getB8ue170006Ev, symObjAddr: 0xAAB8, symBinAddr: 0x10000E084, symSize: 0x14 }
  - { offsetInCU: 0x47F0C, offset: 0x47F0C, size: 0x8, addend: 0x0, symName: __ZNSt3__16vectorI9PredicateNS_9allocatorIS1_EEE21_ConstructTransactionD2B8ue170006Ev, symObjAddr: 0xAACC, symBinAddr: 0x10000E098, symSize: 0x20 }
  - { offsetInCU: 0x47F36, offset: 0x47F36, size: 0x8, addend: 0x0, symName: __ZNKSt3__16vectorI9PredicateNS_9allocatorIS1_EEE11__recommendB8ue170006Em, symObjAddr: 0xAAEC, symBinAddr: 0x10000E0B8, symSize: 0xB4 }
  - { offsetInCU: 0x47F8B, offset: 0x47F8B, size: 0x8, addend: 0x0, symName: __ZNKSt3__16vectorI9PredicateNS_9allocatorIS1_EEE4sizeB8ue170006Ev, symObjAddr: 0xABA0, symBinAddr: 0x10000E16C, symSize: 0x28 }
  - { offsetInCU: 0x47FB1, offset: 0x47FB1, size: 0x8, addend: 0x0, symName: __ZNSt3__114__split_bufferI9PredicateRNS_9allocatorIS1_EEEC1EmmS4_, symObjAddr: 0xABC8, symBinAddr: 0x10000E194, symSize: 0x44 }
  - { offsetInCU: 0x48007, offset: 0x48007, size: 0x8, addend: 0x0, symName: __ZNSt3__114__split_bufferI9PredicateRNS_9allocatorIS1_EEED1Ev, symObjAddr: 0xAD1C, symBinAddr: 0x10000E2E8, symSize: 0x2C }
  - { offsetInCU: 0x48033, offset: 0x48033, size: 0x8, addend: 0x0, symName: __ZNKSt3__16vectorI9PredicateNS_9allocatorIS1_EEE8max_sizeEv, symObjAddr: 0xAD48, symBinAddr: 0x10000E314, symSize: 0x60 }
  - { offsetInCU: 0x4805B, offset: 0x4805B, size: 0x8, addend: 0x0, symName: __ZNKSt3__16vectorI9PredicateNS_9allocatorIS1_EEE20__throw_length_errorB8ue170006Ev, symObjAddr: 0xADA8, symBinAddr: 0x10000E374, symSize: 0x1C }
  - { offsetInCU: 0x48081, offset: 0x48081, size: 0x8, addend: 0x0, symName: __ZNKSt3__16vectorI9PredicateNS_9allocatorIS1_EEE8capacityB8ue170006Ev, symObjAddr: 0xADC4, symBinAddr: 0x10000E390, symSize: 0x40 }
  - { offsetInCU: 0x480B2, offset: 0x480B2, size: 0x8, addend: 0x0, symName: __ZNSt3__116allocator_traitsINS_9allocatorI9PredicateEEE8max_sizeB8ue170006IS3_vEEmRKS3_, symObjAddr: 0xAE04, symBinAddr: 0x10000E3D0, symSize: 0x24 }
  - { offsetInCU: 0x480E0, offset: 0x480E0, size: 0x8, addend: 0x0, symName: __ZNKSt3__16vectorI9PredicateNS_9allocatorIS1_EEE7__allocB8ue170006Ev, symObjAddr: 0xAE28, symBinAddr: 0x10000E3F4, symSize: 0x28 }
  - { offsetInCU: 0x48106, offset: 0x48106, size: 0x8, addend: 0x0, symName: __ZNKSt3__19allocatorI9PredicateE8max_sizeB8ue170006Ev, symObjAddr: 0xAE50, symBinAddr: 0x10000E41C, symSize: 0x18 }
  - { offsetInCU: 0x4812C, offset: 0x4812C, size: 0x8, addend: 0x0, symName: __ZNKSt3__117__compressed_pairIP9PredicateNS_9allocatorIS1_EEE6secondB8ue170006Ev, symObjAddr: 0xAE68, symBinAddr: 0x10000E434, symSize: 0x24 }
  - { offsetInCU: 0x48152, offset: 0x48152, size: 0x8, addend: 0x0, symName: __ZNKSt3__122__compressed_pair_elemINS_9allocatorI9PredicateEELi1ELb1EE5__getB8ue170006Ev, symObjAddr: 0xAE8C, symBinAddr: 0x10000E458, symSize: 0x14 }
  - { offsetInCU: 0x48178, offset: 0x48178, size: 0x8, addend: 0x0, symName: __ZNKSt3__16vectorI9PredicateNS_9allocatorIS1_EEE9__end_capB8ue170006Ev, symObjAddr: 0xAEA0, symBinAddr: 0x10000E46C, symSize: 0x28 }
  - { offsetInCU: 0x4819E, offset: 0x4819E, size: 0x8, addend: 0x0, symName: __ZNKSt3__117__compressed_pairIP9PredicateNS_9allocatorIS1_EEE5firstB8ue170006Ev, symObjAddr: 0xAEC8, symBinAddr: 0x10000E494, symSize: 0x24 }
  - { offsetInCU: 0x481C4, offset: 0x481C4, size: 0x8, addend: 0x0, symName: __ZNKSt3__122__compressed_pair_elemIP9PredicateLi0ELb0EE5__getB8ue170006Ev, symObjAddr: 0xAEEC, symBinAddr: 0x10000E4B8, symSize: 0x14 }
  - { offsetInCU: 0x481EA, offset: 0x481EA, size: 0x8, addend: 0x0, symName: __ZNSt3__114__split_bufferI9PredicateRNS_9allocatorIS1_EEEC2EmmS4_, symObjAddr: 0xAF00, symBinAddr: 0x10000E4CC, symSize: 0xE0 }
  - { offsetInCU: 0x4825D, offset: 0x4825D, size: 0x8, addend: 0x0, symName: __ZNSt3__117__compressed_pairIP9PredicateRNS_9allocatorIS1_EEEC1B8ue170006IDnS5_EEOT_OT0_, symObjAddr: 0xAFE0, symBinAddr: 0x10000E5AC, symSize: 0x3C }
  - { offsetInCU: 0x482B5, offset: 0x482B5, size: 0x8, addend: 0x0, symName: __ZNSt3__114__split_bufferI9PredicateRNS_9allocatorIS1_EEE7__allocB8ue170006Ev, symObjAddr: 0xB05C, symBinAddr: 0x10000E628, symSize: 0x28 }
  - { offsetInCU: 0x482DB, offset: 0x482DB, size: 0x8, addend: 0x0, symName: __ZNSt3__114__split_bufferI9PredicateRNS_9allocatorIS1_EEE9__end_capB8ue170006Ev, symObjAddr: 0xB084, symBinAddr: 0x10000E650, symSize: 0x28 }
  - { offsetInCU: 0x48301, offset: 0x48301, size: 0x8, addend: 0x0, symName: __ZNSt3__117__compressed_pairIP9PredicateRNS_9allocatorIS1_EEEC2B8ue170006IDnS5_EEOT_OT0_, symObjAddr: 0xB0AC, symBinAddr: 0x10000E678, symSize: 0x48 }
  - { offsetInCU: 0x48359, offset: 0x48359, size: 0x8, addend: 0x0, symName: __ZNSt3__122__compressed_pair_elemIRNS_9allocatorI9PredicateEELi1ELb0EEC2B8ue170006IS4_vEEOT_, symObjAddr: 0xB0F4, symBinAddr: 0x10000E6C0, symSize: 0x20 }
  - { offsetInCU: 0x4839B, offset: 0x4839B, size: 0x8, addend: 0x0, symName: __ZNSt3__19allocatorI9PredicateE8allocateB8ue170006Em, symObjAddr: 0xB114, symBinAddr: 0x10000E6E0, symSize: 0x5C }
  - { offsetInCU: 0x483CF, offset: 0x483CF, size: 0x8, addend: 0x0, symName: __ZNSt3__117__compressed_pairIP9PredicateRNS_9allocatorIS1_EEE6secondB8ue170006Ev, symObjAddr: 0xB170, symBinAddr: 0x10000E73C, symSize: 0x28 }
  - { offsetInCU: 0x483F5, offset: 0x483F5, size: 0x8, addend: 0x0, symName: __ZNSt3__122__compressed_pair_elemIRNS_9allocatorI9PredicateEELi1ELb0EE5__getB8ue170006Ev, symObjAddr: 0xB198, symBinAddr: 0x10000E764, symSize: 0x18 }
  - { offsetInCU: 0x4841B, offset: 0x4841B, size: 0x8, addend: 0x0, symName: __ZNSt3__117__compressed_pairIP9PredicateRNS_9allocatorIS1_EEE5firstB8ue170006Ev, symObjAddr: 0xB1B0, symBinAddr: 0x10000E77C, symSize: 0x24 }
  - { offsetInCU: 0x48441, offset: 0x48441, size: 0x8, addend: 0x0, symName: __ZNKSt3__16vectorI9PredicateNS_9allocatorIS1_EEE17__annotate_deleteB8ue170006Ev, symObjAddr: 0xB1D4, symBinAddr: 0x10000E7A0, symSize: 0xD4 }
  - { offsetInCU: 0x48467, offset: 0x48467, size: 0x8, addend: 0x0, symName: __ZNSt3__116reverse_iteratorIP9PredicateEC1B8ue170006ES2_, symObjAddr: 0xB3D4, symBinAddr: 0x10000E9A0, symSize: 0x34 }
  - { offsetInCU: 0x4849F, offset: 0x4849F, size: 0x8, addend: 0x0, symName: __ZNKSt3__116reverse_iteratorIP9PredicateE4baseB8ue170006Ev, symObjAddr: 0xB408, symBinAddr: 0x10000E9D4, symSize: 0x18 }
  - { offsetInCU: 0x484C5, offset: 0x484C5, size: 0x8, addend: 0x0, symName: __ZNKSt3__16vectorI9PredicateNS_9allocatorIS1_EEE14__annotate_newB8ue170006Em, symObjAddr: 0xB45C, symBinAddr: 0x10000EA28, symSize: 0xC8 }
  - { offsetInCU: 0x484FA, offset: 0x484FA, size: 0x8, addend: 0x0, symName: __ZNKSt3__16vectorI9PredicateNS_9allocatorIS1_EEE31__annotate_contiguous_containerB8ue170006EPKvS6_S6_S6_, symObjAddr: 0xB524, symBinAddr: 0x10000EAF0, symSize: 0x20 }
  - { offsetInCU: 0x48550, offset: 0x48550, size: 0x8, addend: 0x0, symName: __ZNKSt3__16vectorI9PredicateNS_9allocatorIS1_EEE4dataB8ue170006Ev, symObjAddr: 0xB544, symBinAddr: 0x10000EB10, symSize: 0x28 }
  - { offsetInCU: 0x48576, offset: 0x48576, size: 0x8, addend: 0x0, symName: __ZNSt3__129_AllocatorDestroyRangeReverseINS_9allocatorI9PredicateEENS_16reverse_iteratorIPS2_EEEC1B8ue170006ERS3_RS6_S9_, symObjAddr: 0xB5B8, symBinAddr: 0x10000EB84, symSize: 0x44 }
  - { offsetInCU: 0x485D3, offset: 0x485D3, size: 0x8, addend: 0x0, symName: __ZNSt3__116allocator_traitsINS_9allocatorI9PredicateEEE9constructB8ue170006IS2_JS2_EvEEvRS3_PT_DpOT0_, symObjAddr: 0xB644, symBinAddr: 0x10000EC10, symSize: 0x34 }
  - { offsetInCU: 0x4862A, offset: 0x4862A, size: 0x8, addend: 0x0, symName: __ZNKSt3__116reverse_iteratorIP9PredicateEdeB8ue170006Ev, symObjAddr: 0xB69C, symBinAddr: 0x10000EC68, symSize: 0x28 }
  - { offsetInCU: 0x4865E, offset: 0x4865E, size: 0x8, addend: 0x0, symName: __ZNSt3__116reverse_iteratorIP9PredicateEppB8ue170006Ev, symObjAddr: 0xB6C4, symBinAddr: 0x10000EC90, symSize: 0x20 }
  - { offsetInCU: 0x48684, offset: 0x48684, size: 0x8, addend: 0x0, symName: __ZNSt3__128__exception_guard_exceptionsINS_29_AllocatorDestroyRangeReverseINS_9allocatorI9PredicateEENS_16reverse_iteratorIPS3_EEEEE10__completeB8ue170006Ev, symObjAddr: 0xB6E4, symBinAddr: 0x10000ECB0, symSize: 0x1C }
  - { offsetInCU: 0x486AA, offset: 0x486AA, size: 0x8, addend: 0x0, symName: __ZNSt3__128__exception_guard_exceptionsINS_29_AllocatorDestroyRangeReverseINS_9allocatorI9PredicateEENS_16reverse_iteratorIPS3_EEEEED1B8ue170006Ev, symObjAddr: 0xB700, symBinAddr: 0x10000ECCC, symSize: 0x2C }
  - { offsetInCU: 0x486D4, offset: 0x486D4, size: 0x8, addend: 0x0, symName: __ZNSt3__128__exception_guard_exceptionsINS_29_AllocatorDestroyRangeReverseINS_9allocatorI9PredicateEENS_16reverse_iteratorIPS3_EEEEEC1B8ue170006ES8_, symObjAddr: 0xB72C, symBinAddr: 0x10000ECF8, symSize: 0x34 }
  - { offsetInCU: 0x4870D, offset: 0x4870D, size: 0x8, addend: 0x0, symName: __ZNSt3__128__exception_guard_exceptionsINS_29_AllocatorDestroyRangeReverseINS_9allocatorI9PredicateEENS_16reverse_iteratorIPS3_EEEEEC2B8ue170006ES8_, symObjAddr: 0xB760, symBinAddr: 0x10000ED2C, symSize: 0x30 }
  - { offsetInCU: 0x48746, offset: 0x48746, size: 0x8, addend: 0x0, symName: __ZNSt3__129_AllocatorDestroyRangeReverseINS_9allocatorI9PredicateEENS_16reverse_iteratorIPS2_EEEC2B8ue170006ERS3_RS6_S9_, symObjAddr: 0xB790, symBinAddr: 0x10000ED5C, symSize: 0x38 }
  - { offsetInCU: 0x4879D, offset: 0x4879D, size: 0x8, addend: 0x0, symName: __ZNSt3__19allocatorI9PredicateE9constructB8ue170006IS1_JS1_EEEvPT_DpOT0_, symObjAddr: 0xB7C8, symBinAddr: 0x10000ED94, symSize: 0x30 }
  - { offsetInCU: 0x487F3, offset: 0x487F3, size: 0x8, addend: 0x0, symName: __ZN9PredicateC1EOS_, symObjAddr: 0xB7F8, symBinAddr: 0x10000EDC4, symSize: 0x34 }
  - { offsetInCU: 0x48828, offset: 0x48828, size: 0x8, addend: 0x0, symName: __ZN9PredicateC2EOS_, symObjAddr: 0xB82C, symBinAddr: 0x10000EDF8, symSize: 0x48 }
  - { offsetInCU: 0x4885D, offset: 0x4885D, size: 0x8, addend: 0x0, symName: __ZNSt3__16vectorI9ParameterNS_9allocatorIS1_EEEC1B8ue170006EOS4_, symObjAddr: 0xB874, symBinAddr: 0x10000EE40, symSize: 0x34 }
  - { offsetInCU: 0x48898, offset: 0x48898, size: 0x8, addend: 0x0, symName: __ZNSt3__16vectorI9ParameterNS_9allocatorIS1_EEEC2B8ue170006EOS4_, symObjAddr: 0xB8A8, symBinAddr: 0x10000EE74, symSize: 0xC4 }
  - { offsetInCU: 0x488D9, offset: 0x488D9, size: 0x8, addend: 0x0, symName: __ZNSt3__117__compressed_pairIP9ParameterNS_9allocatorIS1_EEEC1B8ue170006IDnS4_EEOT_OT0_, symObjAddr: 0xB96C, symBinAddr: 0x10000EF38, symSize: 0x3C }
  - { offsetInCU: 0x48931, offset: 0x48931, size: 0x8, addend: 0x0, symName: __ZNSt3__117__compressed_pairIP9ParameterNS_9allocatorIS1_EEEC2B8ue170006IDnS4_EEOT_OT0_, symObjAddr: 0xB9A8, symBinAddr: 0x10000EF74, symSize: 0x44 }
  - { offsetInCU: 0x48989, offset: 0x48989, size: 0x8, addend: 0x0, symName: __ZNSt3__122__compressed_pair_elemINS_9allocatorI9ParameterEELi1ELb1EEC2B8ue170006IS3_vEEOT_, symObjAddr: 0xB9EC, symBinAddr: 0x10000EFB8, symSize: 0x18 }
  - { offsetInCU: 0x489D1, offset: 0x489D1, size: 0x8, addend: 0x0, symName: __ZNSt3__119__to_address_helperINS_16reverse_iteratorIP9PredicateEEvE6__callB8ue170006ERKS4_, symObjAddr: 0xBA04, symBinAddr: 0x10000EFD0, symSize: 0x38 }
  - { offsetInCU: 0x489F4, offset: 0x489F4, size: 0x8, addend: 0x0, symName: __ZNKSt3__116reverse_iteratorIP9PredicateEptB8ue170006Ev, symObjAddr: 0xBA3C, symBinAddr: 0x10000F008, symSize: 0x24 }
  - { offsetInCU: 0x48A1A, offset: 0x48A1A, size: 0x8, addend: 0x0, symName: __ZNSt3__128__exception_guard_exceptionsINS_29_AllocatorDestroyRangeReverseINS_9allocatorI9PredicateEENS_16reverse_iteratorIPS3_EEEEED2B8ue170006Ev, symObjAddr: 0xBA60, symBinAddr: 0x10000F02C, symSize: 0x50 }
  - { offsetInCU: 0x48A44, offset: 0x48A44, size: 0x8, addend: 0x0, symName: __ZNKSt3__129_AllocatorDestroyRangeReverseINS_9allocatorI9PredicateEENS_16reverse_iteratorIPS2_EEEclB8ue170006Ev, symObjAddr: 0xBAB0, symBinAddr: 0x10000F07C, symSize: 0xB4 }
  - { offsetInCU: 0x48A6B, offset: 0x48A6B, size: 0x8, addend: 0x0, symName: __ZNSt3__116reverse_iteratorINS0_IP9PredicateEEEC1B8ue170006ES3_, symObjAddr: 0xBBD4, symBinAddr: 0x10000F1A0, symSize: 0x3C }
  - { offsetInCU: 0x48AA3, offset: 0x48AA3, size: 0x8, addend: 0x0, symName: __ZNSt3__116allocator_traitsINS_9allocatorI9PredicateEEE7destroyB8ue170006IS2_vEEvRS3_PT_, symObjAddr: 0xBC70, symBinAddr: 0x10000F23C, symSize: 0x2C }
  - { offsetInCU: 0x48AE0, offset: 0x48AE0, size: 0x8, addend: 0x0, symName: __ZNSt3__116reverse_iteratorINS0_IP9PredicateEEEppB8ue170006Ev, symObjAddr: 0xBCC0, symBinAddr: 0x10000F28C, symSize: 0x30 }
  - { offsetInCU: 0x48B06, offset: 0x48B06, size: 0x8, addend: 0x0, symName: __ZNKSt3__116reverse_iteratorINS0_IP9PredicateEEE4baseB8ue170006Ev, symObjAddr: 0xBCF0, symBinAddr: 0x10000F2BC, symSize: 0x24 }
  - { offsetInCU: 0x48B2C, offset: 0x48B2C, size: 0x8, addend: 0x0, symName: __ZNSt3__19allocatorI9PredicateE7destroyB8ue170006EPS1_, symObjAddr: 0xBD14, symBinAddr: 0x10000F2E0, symSize: 0x28 }
  - { offsetInCU: 0x48B66, offset: 0x48B66, size: 0x8, addend: 0x0, symName: __ZNSt3__119__to_address_helperINS_16reverse_iteratorINS1_IP9PredicateEEEEvE6__callB8ue170006ERKS5_, symObjAddr: 0xBD3C, symBinAddr: 0x10000F308, symSize: 0x38 }
  - { offsetInCU: 0x48B89, offset: 0x48B89, size: 0x8, addend: 0x0, symName: __ZNKSt3__116reverse_iteratorINS0_IP9PredicateEEEptB8ue170006Ev, symObjAddr: 0xBD74, symBinAddr: 0x10000F340, symSize: 0x24 }
  - { offsetInCU: 0x48BAF, offset: 0x48BAF, size: 0x8, addend: 0x0, symName: __ZNKSt3__116reverse_iteratorINS0_IP9PredicateEEEdeB8ue170006Ev, symObjAddr: 0xBD98, symBinAddr: 0x10000F364, symSize: 0x34 }
  - { offsetInCU: 0x48BE3, offset: 0x48BE3, size: 0x8, addend: 0x0, symName: __ZNSt3__116reverse_iteratorIP9PredicateEmmB8ue170006Ev, symObjAddr: 0xBDCC, symBinAddr: 0x10000F398, symSize: 0x20 }
  - { offsetInCU: 0x48C09, offset: 0x48C09, size: 0x8, addend: 0x0, symName: __ZNSt3__116reverse_iteratorINS0_IP9PredicateEEEC2B8ue170006ES3_, symObjAddr: 0xBDEC, symBinAddr: 0x10000F3B8, symSize: 0x2C }
  - { offsetInCU: 0x48C41, offset: 0x48C41, size: 0x8, addend: 0x0, symName: __ZNSt3__116reverse_iteratorIP9PredicateEC2B8ue170006ES2_, symObjAddr: 0xBE18, symBinAddr: 0x10000F3E4, symSize: 0x28 }
  - { offsetInCU: 0x48C79, offset: 0x48C79, size: 0x8, addend: 0x0, symName: __ZNSt3__114__split_bufferI9PredicateRNS_9allocatorIS1_EEED2Ev, symObjAddr: 0xBE40, symBinAddr: 0x10000F40C, symSize: 0x8C }
  - { offsetInCU: 0x48CA5, offset: 0x48CA5, size: 0x8, addend: 0x0, symName: __ZNSt3__114__split_bufferI9PredicateRNS_9allocatorIS1_EEE5clearB8ue170006Ev, symObjAddr: 0xBECC, symBinAddr: 0x10000F498, symSize: 0x28 }
  - { offsetInCU: 0x48CCB, offset: 0x48CCB, size: 0x8, addend: 0x0, symName: __ZNSt3__116allocator_traitsINS_9allocatorI9PredicateEEE10deallocateB8ue170006ERS3_PS2_m, symObjAddr: 0xBEF4, symBinAddr: 0x10000F4C0, symSize: 0x34 }
  - { offsetInCU: 0x48D0D, offset: 0x48D0D, size: 0x8, addend: 0x0, symName: __ZNKSt3__114__split_bufferI9PredicateRNS_9allocatorIS1_EEE8capacityB8ue170006Ev, symObjAddr: 0xBF28, symBinAddr: 0x10000F4F4, symSize: 0x40 }
  - { offsetInCU: 0x48D33, offset: 0x48D33, size: 0x8, addend: 0x0, symName: __ZNSt3__114__split_bufferI9PredicateRNS_9allocatorIS1_EEE17__destruct_at_endB8ue170006EPS1_, symObjAddr: 0xBF68, symBinAddr: 0x10000F534, symSize: 0x2C }
  - { offsetInCU: 0x48D67, offset: 0x48D67, size: 0x8, addend: 0x0, symName: __ZNSt3__114__split_bufferI9PredicateRNS_9allocatorIS1_EEE17__destruct_at_endB8ue170006EPS1_NS_17integral_constantIbLb0EEE, symObjAddr: 0xBF94, symBinAddr: 0x10000F560, symSize: 0x80 }
  - { offsetInCU: 0x48DA8, offset: 0x48DA8, size: 0x8, addend: 0x0, symName: __ZNSt3__19allocatorI9PredicateE10deallocateB8ue170006EPS1_m, symObjAddr: 0xC014, symBinAddr: 0x10000F5E0, symSize: 0x44 }
  - { offsetInCU: 0x48DEA, offset: 0x48DEA, size: 0x8, addend: 0x0, symName: __ZNKSt3__114__split_bufferI9PredicateRNS_9allocatorIS1_EEE9__end_capB8ue170006Ev, symObjAddr: 0xC058, symBinAddr: 0x10000F624, symSize: 0x28 }
  - { offsetInCU: 0x48E10, offset: 0x48E10, size: 0x8, addend: 0x0, symName: __ZNKSt3__117__compressed_pairIP9PredicateRNS_9allocatorIS1_EEE5firstB8ue170006Ev, symObjAddr: 0xC080, symBinAddr: 0x10000F64C, symSize: 0x24 }
  - { offsetInCU: 0x48E36, offset: 0x48E36, size: 0x8, addend: 0x0, symName: __ZN9PredicateC2ERKS_, symObjAddr: 0xC0A4, symBinAddr: 0x10000F670, symSize: 0x70 }
  - { offsetInCU: 0x48E6B, offset: 0x48E6B, size: 0x8, addend: 0x0, symName: __ZNSt3__16vectorI9ParameterNS_9allocatorIS1_EEEC1ERKS4_, symObjAddr: 0xC114, symBinAddr: 0x10000F6E0, symSize: 0x34 }
  - { offsetInCU: 0x48EA6, offset: 0x48EA6, size: 0x8, addend: 0x0, symName: __ZNSt3__16vectorI9ParameterNS_9allocatorIS1_EEEC2ERKS4_, symObjAddr: 0xC148, symBinAddr: 0x10000F714, symSize: 0x94 }
  - { offsetInCU: 0x48EE1, offset: 0x48EE1, size: 0x8, addend: 0x0, symName: __ZNSt3__116allocator_traitsINS_9allocatorI9ParameterEEE37select_on_container_copy_constructionB8ue170006IS3_vvEES3_RKS3_, symObjAddr: 0xC1DC, symBinAddr: 0x10000F7A8, symSize: 0x10 }
  - { offsetInCU: 0x48F10, offset: 0x48F10, size: 0x8, addend: 0x0, symName: __ZNSt3__16vectorI9ParameterNS_9allocatorIS1_EEE16__init_with_sizeB8ue170006IPS1_S6_EEvT_T0_m, symObjAddr: 0xC1EC, symBinAddr: 0x10000F7B8, symSize: 0xB8 }
  - { offsetInCU: 0x48F84, offset: 0x48F84, size: 0x8, addend: 0x0, symName: __ZNSt3__16vectorI9ParameterNS_9allocatorIS1_EEE16__destroy_vectorC1B8ue170006ERS4_, symObjAddr: 0xC2E4, symBinAddr: 0x10000F8B0, symSize: 0x34 }
  - { offsetInCU: 0x48FBD, offset: 0x48FBD, size: 0x8, addend: 0x0, symName: __ZNSt3__16vectorI9ParameterNS_9allocatorIS1_EEE11__vallocateB8ue170006Em, symObjAddr: 0xC318, symBinAddr: 0x10000F8E4, symSize: 0xB4 }
  - { offsetInCU: 0x49001, offset: 0x49001, size: 0x8, addend: 0x0, symName: __ZNSt3__16vectorI9ParameterNS_9allocatorIS1_EEE18__construct_at_endIPS1_S6_EEvT_T0_m, symObjAddr: 0xC3CC, symBinAddr: 0x10000F998, symSize: 0x8C }
  - { offsetInCU: 0x49077, offset: 0x49077, size: 0x8, addend: 0x0, symName: __ZNSt3__128__exception_guard_exceptionsINS_6vectorI9ParameterNS_9allocatorIS2_EEE16__destroy_vectorEE10__completeB8ue170006Ev, symObjAddr: 0xC458, symBinAddr: 0x10000FA24, symSize: 0x1C }
  - { offsetInCU: 0x4909D, offset: 0x4909D, size: 0x8, addend: 0x0, symName: __ZNSt3__128__exception_guard_exceptionsINS_6vectorI9ParameterNS_9allocatorIS2_EEE16__destroy_vectorEED1B8ue170006Ev, symObjAddr: 0xC474, symBinAddr: 0x10000FA40, symSize: 0x2C }
  - { offsetInCU: 0x490C7, offset: 0x490C7, size: 0x8, addend: 0x0, symName: __ZNSt3__128__exception_guard_exceptionsINS_6vectorI9ParameterNS_9allocatorIS2_EEE16__destroy_vectorEEC1B8ue170006ES6_, symObjAddr: 0xC4A0, symBinAddr: 0x10000FA6C, symSize: 0x34 }
  - { offsetInCU: 0x490FF, offset: 0x490FF, size: 0x8, addend: 0x0, symName: __ZNSt3__128__exception_guard_exceptionsINS_6vectorI9ParameterNS_9allocatorIS2_EEE16__destroy_vectorEEC2B8ue170006ES6_, symObjAddr: 0xC4D4, symBinAddr: 0x10000FAA0, symSize: 0x24 }
  - { offsetInCU: 0x49137, offset: 0x49137, size: 0x8, addend: 0x0, symName: __ZNSt3__16vectorI9ParameterNS_9allocatorIS1_EEE16__destroy_vectorC2B8ue170006ERS4_, symObjAddr: 0xC4F8, symBinAddr: 0x10000FAC4, symSize: 0x20 }
  - { offsetInCU: 0x49193, offset: 0x49193, size: 0x8, addend: 0x0, symName: __ZNSt3__14pairIP9ParameterS2_EC1B8ue170006IS2_S2_LPv0EEEOT_OT0_, symObjAddr: 0xC784, symBinAddr: 0x10000FD50, symSize: 0x3C }
  - { offsetInCU: 0x491F1, offset: 0x491F1, size: 0x8, addend: 0x0, symName: __ZNSt3__14pairIP9ParameterS2_EC2B8ue170006IS2_S2_LPv0EEEOT_OT0_, symObjAddr: 0xC7C0, symBinAddr: 0x10000FD8C, symSize: 0x34 }
  - { offsetInCU: 0x4924F, offset: 0x4924F, size: 0x8, addend: 0x0, symName: __ZNSt3__129_AllocatorDestroyRangeReverseINS_9allocatorI9ParameterEEPS2_EC1B8ue170006ERS3_RS4_S7_, symObjAddr: 0xC840, symBinAddr: 0x10000FE0C, symSize: 0x44 }
  - { offsetInCU: 0x492A6, offset: 0x492A6, size: 0x8, addend: 0x0, symName: __ZNSt3__116allocator_traitsINS_9allocatorI9ParameterEEE9constructB8ue170006IS2_JRS2_EvEEvRS3_PT_DpOT0_, symObjAddr: 0xC884, symBinAddr: 0x10000FE50, symSize: 0x34 }
  - { offsetInCU: 0x492FD, offset: 0x492FD, size: 0x8, addend: 0x0, symName: __ZNSt3__128__exception_guard_exceptionsINS_29_AllocatorDestroyRangeReverseINS_9allocatorI9ParameterEEPS3_EEE10__completeB8ue170006Ev, symObjAddr: 0xC8B8, symBinAddr: 0x10000FE84, symSize: 0x1C }
  - { offsetInCU: 0x49323, offset: 0x49323, size: 0x8, addend: 0x0, symName: __ZNSt3__128__exception_guard_exceptionsINS_29_AllocatorDestroyRangeReverseINS_9allocatorI9ParameterEEPS3_EEED1B8ue170006Ev, symObjAddr: 0xC8D4, symBinAddr: 0x10000FEA0, symSize: 0x2C }
  - { offsetInCU: 0x4934D, offset: 0x4934D, size: 0x8, addend: 0x0, symName: __ZNSt3__128__exception_guard_exceptionsINS_29_AllocatorDestroyRangeReverseINS_9allocatorI9ParameterEEPS3_EEEC1B8ue170006ES6_, symObjAddr: 0xC900, symBinAddr: 0x10000FECC, symSize: 0x34 }
  - { offsetInCU: 0x49386, offset: 0x49386, size: 0x8, addend: 0x0, symName: __ZNSt3__128__exception_guard_exceptionsINS_29_AllocatorDestroyRangeReverseINS_9allocatorI9ParameterEEPS3_EEEC2B8ue170006ES6_, symObjAddr: 0xC934, symBinAddr: 0x10000FF00, symSize: 0x30 }
  - { offsetInCU: 0x493BF, offset: 0x493BF, size: 0x8, addend: 0x0, symName: __ZNSt3__129_AllocatorDestroyRangeReverseINS_9allocatorI9ParameterEEPS2_EC2B8ue170006ERS3_RS4_S7_, symObjAddr: 0xC964, symBinAddr: 0x10000FF30, symSize: 0x38 }
  - { offsetInCU: 0x49416, offset: 0x49416, size: 0x8, addend: 0x0, symName: __ZNSt3__19allocatorI9ParameterE9constructB8ue170006IS1_JRS1_EEEvPT_DpOT0_, symObjAddr: 0xC99C, symBinAddr: 0x10000FF68, symSize: 0x30 }
  - { offsetInCU: 0x4946C, offset: 0x4946C, size: 0x8, addend: 0x0, symName: __ZNSt3__128__exception_guard_exceptionsINS_29_AllocatorDestroyRangeReverseINS_9allocatorI9ParameterEEPS3_EEED2B8ue170006Ev, symObjAddr: 0xC9CC, symBinAddr: 0x10000FF98, symSize: 0x50 }
  - { offsetInCU: 0x49496, offset: 0x49496, size: 0x8, addend: 0x0, symName: __ZNKSt3__129_AllocatorDestroyRangeReverseINS_9allocatorI9ParameterEEPS2_EclB8ue170006Ev, symObjAddr: 0xCA1C, symBinAddr: 0x10000FFE8, symSize: 0x68 }
  - { offsetInCU: 0x494BC, offset: 0x494BC, size: 0x8, addend: 0x0, symName: __ZNSt3__118__unwrap_iter_implIP9ParameterLb1EE8__unwrapB8ue170006ES2_, symObjAddr: 0xCAF4, symBinAddr: 0x1000100C0, symSize: 0x24 }
  - { offsetInCU: 0x494DF, offset: 0x494DF, size: 0x8, addend: 0x0, symName: __ZNSt3__118__unwrap_iter_implIP9ParameterLb1EE8__rewrapB8ue170006ES2_S2_, symObjAddr: 0xCB18, symBinAddr: 0x1000100E4, symSize: 0x58 }
  - { offsetInCU: 0x49510, offset: 0x49510, size: 0x8, addend: 0x0, symName: __ZNSt3__128__exception_guard_exceptionsINS_6vectorI9ParameterNS_9allocatorIS2_EEE16__destroy_vectorEED2B8ue170006Ev, symObjAddr: 0xCB70, symBinAddr: 0x10001013C, symSize: 0x50 }
  - { offsetInCU: 0x4953A, offset: 0x4953A, size: 0x8, addend: 0x0, symName: __ZNSt3__16vectorI9ParameterNS_9allocatorIS1_EEE16__destroy_vectorclB8ue170006Ev, symObjAddr: 0xCBC0, symBinAddr: 0x10001018C, symSize: 0x90 }
  - { offsetInCU: 0x49560, offset: 0x49560, size: 0x8, addend: 0x0, symName: __ZNSt3__16vectorI9ParameterNS_9allocatorIS1_EEE7__clearB8ue170006Ev, symObjAddr: 0xCC50, symBinAddr: 0x10001021C, symSize: 0x28 }
  - { offsetInCU: 0x49586, offset: 0x49586, size: 0x8, addend: 0x0, symName: __ZNSt3__16vectorI9ParameterNS_9allocatorIS1_EEE22__base_destruct_at_endB8ue170006EPS1_, symObjAddr: 0xCC78, symBinAddr: 0x100010244, symSize: 0x8C }
  - { offsetInCU: 0x495CA, offset: 0x495CA, size: 0x8, addend: 0x0, symName: __ZN9PredicateD2Ev, symObjAddr: 0xCD04, symBinAddr: 0x1000102D0, symSize: 0x38 }
  - { offsetInCU: 0x495F6, offset: 0x495F6, size: 0x8, addend: 0x0, symName: __ZNSt3__16vectorI9ParameterNS_9allocatorIS1_EEED1B8ue170006Ev, symObjAddr: 0xCD3C, symBinAddr: 0x100010308, symSize: 0x2C }
  - { offsetInCU: 0x49620, offset: 0x49620, size: 0x8, addend: 0x0, symName: __ZNSt3__16vectorI9ParameterNS_9allocatorIS1_EEED2B8ue170006Ev, symObjAddr: 0xCD68, symBinAddr: 0x100010334, symSize: 0x40 }
  - { offsetInCU: 0x4964A, offset: 0x4964A, size: 0x8, addend: 0x0, symName: __ZN6Parser4factEv, symObjAddr: 0xCDA8, symBinAddr: 0x100010374, symSize: 0x2D0 }
  - { offsetInCU: 0x49694, offset: 0x49694, size: 0x8, addend: 0x0, symName: __ZN14DatalogProgram9addDomainE9Parameter, symObjAddr: 0xD078, symBinAddr: 0x100010644, symSize: 0x94 }
  - { offsetInCU: 0x496C9, offset: 0x496C9, size: 0x8, addend: 0x0, symName: __ZN6Parser10stringListER9Predicate, symObjAddr: 0xD10C, symBinAddr: 0x1000106D8, symSize: 0x178 }
  - { offsetInCU: 0x49713, offset: 0x49713, size: 0x8, addend: 0x0, symName: __ZN14DatalogProgram7addFactE9Predicate, symObjAddr: 0xD284, symBinAddr: 0x100010850, symSize: 0x30 }
  - { offsetInCU: 0x49748, offset: 0x49748, size: 0x8, addend: 0x0, symName: __ZNSt3__13setINS_12basic_stringIcNS_11char_traitsIcEENS_9allocatorIcEEEENS_4lessIS6_EENS4_IS6_EEE6insertB8ue170006EOS6_, symObjAddr: 0xD2B4, symBinAddr: 0x100010880, symSize: 0x4C }
  - { offsetInCU: 0x4977D, offset: 0x4977D, size: 0x8, addend: 0x0, symName: __ZN9Parameter7getNameEv, symObjAddr: 0xD300, symBinAddr: 0x1000108CC, symSize: 0x38 }
  - { offsetInCU: 0x497A3, offset: 0x497A3, size: 0x8, addend: 0x0, symName: __ZNSt3__16__treeINS_12basic_stringIcNS_11char_traitsIcEENS_9allocatorIcEEEENS_4lessIS6_EENS4_IS6_EEE15__insert_uniqueB8ue170006EOS6_, symObjAddr: 0xD338, symBinAddr: 0x100010904, symSize: 0x50 }
  - { offsetInCU: 0x497D8, offset: 0x497D8, size: 0x8, addend: 0x0, symName: __ZNSt3__14pairINS_21__tree_const_iteratorINS_12basic_stringIcNS_11char_traitsIcEENS_9allocatorIcEEEEPNS_11__tree_nodeIS7_PvEElEEbEC1B8ue170006INS_15__tree_iteratorIS7_SB_lEEbLS9_0EEEONS0_IT_T0_EE, symObjAddr: 0xD388, symBinAddr: 0x100010954, symSize: 0x34 }
  - { offsetInCU: 0x4982F, offset: 0x4982F, size: 0x8, addend: 0x0, symName: __ZNSt3__16__treeINS_12basic_stringIcNS_11char_traitsIcEENS_9allocatorIcEEEENS_4lessIS6_EENS4_IS6_EEE25__emplace_unique_key_argsIS6_JS6_EEENS_4pairINS_15__tree_iteratorIS6_PNS_11__tree_nodeIS6_PvEElEEbEERKT_DpOT0_, symObjAddr: 0xD3BC, symBinAddr: 0x100010988, symSize: 0xF0 }
  - { offsetInCU: 0x498DB, offset: 0x498DB, size: 0x8, addend: 0x0, symName: __ZNSt3__122__tree_key_value_typesINS_12basic_stringIcNS_11char_traitsIcEENS_9allocatorIcEEEEE9__get_keyB8ue170006ERKS6_, symObjAddr: 0xD4AC, symBinAddr: 0x100010A78, symSize: 0x14 }
  - { offsetInCU: 0x498FF, offset: 0x498FF, size: 0x8, addend: 0x0, symName: __ZNSt3__16__treeINS_12basic_stringIcNS_11char_traitsIcEENS_9allocatorIcEEEENS_4lessIS6_EENS4_IS6_EEE12__find_equalIS6_EERPNS_16__tree_node_baseIPvEERPNS_15__tree_end_nodeISF_EERKT_, symObjAddr: 0xD4C0, symBinAddr: 0x100010A8C, symSize: 0x184 }
  - { offsetInCU: 0x4996C, offset: 0x4996C, size: 0x8, addend: 0x0, symName: __ZNSt3__16__treeINS_12basic_stringIcNS_11char_traitsIcEENS_9allocatorIcEEEENS_4lessIS6_EENS4_IS6_EEE16__construct_nodeIJS6_EEENS_10unique_ptrINS_11__tree_nodeIS6_PvEENS_22__tree_node_destructorINS4_ISF_EEEEEEDpOT_, symObjAddr: 0xD644, symBinAddr: 0x100010C10, symSize: 0x110 }
  - { offsetInCU: 0x499CD, offset: 0x499CD, size: 0x8, addend: 0x0, symName: __ZNSt3__16__treeINS_12basic_stringIcNS_11char_traitsIcEENS_9allocatorIcEEEENS_4lessIS6_EENS4_IS6_EEE16__insert_node_atEPNS_15__tree_end_nodeIPNS_16__tree_node_baseIPvEEEERSF_SF_, symObjAddr: 0xD754, symBinAddr: 0x100010D20, symSize: 0xCC }
  - { offsetInCU: 0x49A22, offset: 0x49A22, size: 0x8, addend: 0x0, symName: __ZNKSt3__110unique_ptrINS_11__tree_nodeINS_12basic_stringIcNS_11char_traitsIcEENS_9allocatorIcEEEEPvEENS_22__tree_node_destructorINS5_IS9_EEEEE3getB8ue170006Ev, symObjAddr: 0xD820, symBinAddr: 0x100010DEC, symSize: 0x28 }
  - { offsetInCU: 0x49A48, offset: 0x49A48, size: 0x8, addend: 0x0, symName: __ZNSt3__110unique_ptrINS_11__tree_nodeINS_12basic_stringIcNS_11char_traitsIcEENS_9allocatorIcEEEEPvEENS_22__tree_node_destructorINS5_IS9_EEEEE7releaseB8ue170006Ev, symObjAddr: 0xD848, symBinAddr: 0x100010E14, symSize: 0x44 }
  - { offsetInCU: 0x49A7D, offset: 0x49A7D, size: 0x8, addend: 0x0, symName: __ZNSt3__110unique_ptrINS_11__tree_nodeINS_12basic_stringIcNS_11char_traitsIcEENS_9allocatorIcEEEEPvEENS_22__tree_node_destructorINS5_IS9_EEEEED1B8ue170006Ev, symObjAddr: 0xD88C, symBinAddr: 0x100010E58, symSize: 0x2C }
  - { offsetInCU: 0x49AA7, offset: 0x49AA7, size: 0x8, addend: 0x0, symName: __ZNSt3__115__tree_iteratorINS_12basic_stringIcNS_11char_traitsIcEENS_9allocatorIcEEEEPNS_11__tree_nodeIS6_PvEElEC1B8ue170006ESA_, symObjAddr: 0xD8B8, symBinAddr: 0x100010E84, symSize: 0x34 }
  - { offsetInCU: 0x49AE6, offset: 0x49AE6, size: 0x8, addend: 0x0, symName: __ZNSt3__14pairINS_15__tree_iteratorINS_12basic_stringIcNS_11char_traitsIcEENS_9allocatorIcEEEEPNS_11__tree_nodeIS7_PvEElEEbEC1B8ue170006ISC_RbLS9_0EEEOT_OT0_, symObjAddr: 0xD8EC, symBinAddr: 0x100010EB8, symSize: 0x3C }
  - { offsetInCU: 0x49B44, offset: 0x49B44, size: 0x8, addend: 0x0, symName: __ZNKSt3__16__treeINS_12basic_stringIcNS_11char_traitsIcEENS_9allocatorIcEEEENS_4lessIS6_EENS4_IS6_EEE6__rootB8ue170006Ev, symObjAddr: 0xD928, symBinAddr: 0x100010EF4, symSize: 0x28 }
  - { offsetInCU: 0x49B6A, offset: 0x49B6A, size: 0x8, addend: 0x0, symName: __ZNKSt3__16__treeINS_12basic_stringIcNS_11char_traitsIcEENS_9allocatorIcEEEENS_4lessIS6_EENS4_IS6_EEE10__root_ptrB8ue170006Ev, symObjAddr: 0xD950, symBinAddr: 0x100010F1C, symSize: 0x24 }
  - { offsetInCU: 0x49B90, offset: 0x49B90, size: 0x8, addend: 0x0, symName: __ZNSt3__16__treeINS_12basic_stringIcNS_11char_traitsIcEENS_9allocatorIcEEEENS_4lessIS6_EENS4_IS6_EEE10value_compB8ue170006Ev, symObjAddr: 0xD974, symBinAddr: 0x100010F40, symSize: 0x28 }
  - { offsetInCU: 0x49BB6, offset: 0x49BB6, size: 0x8, addend: 0x0, symName: __ZNKSt3__14lessINS_12basic_stringIcNS_11char_traitsIcEENS_9allocatorIcEEEEEclB8ue170006ERKS6_S9_, symObjAddr: 0xD99C, symBinAddr: 0x100010F68, symSize: 0x34 }
  - { offsetInCU: 0x49BFA, offset: 0x49BFA, size: 0x8, addend: 0x0, symName: __ZNKSt3__16__treeINS_12basic_stringIcNS_11char_traitsIcEENS_9allocatorIcEEEENS_4lessIS6_EENS4_IS6_EEE10__end_nodeB8ue170006Ev, symObjAddr: 0xD9D0, symBinAddr: 0x100010F9C, symSize: 0x2C }
  - { offsetInCU: 0x49C20, offset: 0x49C20, size: 0x8, addend: 0x0, symName: __ZNKSt3__117__compressed_pairINS_15__tree_end_nodeIPNS_16__tree_node_baseIPvEEEENS_9allocatorINS_11__tree_nodeINS_12basic_stringIcNS_11char_traitsIcEENS7_IcEEEES3_EEEEE5firstB8ue170006Ev, symObjAddr: 0xD9FC, symBinAddr: 0x100010FC8, symSize: 0x24 }
  - { offsetInCU: 0x49C46, offset: 0x49C46, size: 0x8, addend: 0x0, symName: __ZNKSt3__122__compressed_pair_elemINS_15__tree_end_nodeIPNS_16__tree_node_baseIPvEEEELi0ELb0EE5__getB8ue170006Ev, symObjAddr: 0xDA20, symBinAddr: 0x100010FEC, symSize: 0x14 }
  - { offsetInCU: 0x49C6C, offset: 0x49C6C, size: 0x8, addend: 0x0, symName: __ZNSt3__117__compressed_pairImNS_4lessINS_12basic_stringIcNS_11char_traitsIcEENS_9allocatorIcEEEEEEE6secondB8ue170006Ev, symObjAddr: 0xDA34, symBinAddr: 0x100011000, symSize: 0x24 }
  - { offsetInCU: 0x49C92, offset: 0x49C92, size: 0x8, addend: 0x0, symName: __ZNSt3__122__compressed_pair_elemINS_4lessINS_12basic_stringIcNS_11char_traitsIcEENS_9allocatorIcEEEEEELi1ELb1EE5__getB8ue170006Ev, symObjAddr: 0xDA58, symBinAddr: 0x100011024, symSize: 0x14 }
  - { offsetInCU: 0x49CB8, offset: 0x49CB8, size: 0x8, addend: 0x0, symName: __ZNKSt3__112basic_stringIcNS_11char_traitsIcEENS_9allocatorIcEEE7compareB8ue170006ERKS5_, symObjAddr: 0xDAA4, symBinAddr: 0x100011070, symSize: 0x4C }
  - { offsetInCU: 0x49CEF, offset: 0x49CEF, size: 0x8, addend: 0x0, symName: __ZNKSt3__112basic_stringIcNS_11char_traitsIcEENS_9allocatorIcEEE7compareINS_17basic_string_viewIcS2_EELi0EEEiRKT_, symObjAddr: 0xDAF0, symBinAddr: 0x1000110BC, symSize: 0x12C }
  - { offsetInCU: 0x49D72, offset: 0x49D72, size: 0x8, addend: 0x0, symName: __ZNKSt3__112basic_stringIcNS_11char_traitsIcEENS_9allocatorIcEEEcvNS_17basic_string_viewIcS2_EEB8ue170006Ev, symObjAddr: 0xDC1C, symBinAddr: 0x1000111E8, symSize: 0x50 }
  - { offsetInCU: 0x49D98, offset: 0x49D98, size: 0x8, addend: 0x0, symName: __ZNKSt3__117basic_string_viewIcNS_11char_traitsIcEEE4sizeB8ue170006Ev, symObjAddr: 0xDC6C, symBinAddr: 0x100011238, symSize: 0x18 }
  - { offsetInCU: 0x49DBE, offset: 0x49DBE, size: 0x8, addend: 0x0, symName: __ZNSt3__111char_traitsIcE7compareB8ue170006EPKcS3_m, symObjAddr: 0xDC84, symBinAddr: 0x100011250, symSize: 0x34 }
  - { offsetInCU: 0x49DFD, offset: 0x49DFD, size: 0x8, addend: 0x0, symName: __ZNKSt3__117basic_string_viewIcNS_11char_traitsIcEEE4dataB8ue170006Ev, symObjAddr: 0xDCB8, symBinAddr: 0x100011284, symSize: 0x18 }
  - { offsetInCU: 0x49E23, offset: 0x49E23, size: 0x8, addend: 0x0, symName: __ZNSt3__117basic_string_viewIcNS_11char_traitsIcEEEC1B8ue170006EPKcm, symObjAddr: 0xDCD0, symBinAddr: 0x10001129C, symSize: 0x3C }
  - { offsetInCU: 0x49E6B, offset: 0x49E6B, size: 0x8, addend: 0x0, symName: __ZNSt3__117basic_string_viewIcNS_11char_traitsIcEEEC2B8ue170006EPKcm, symObjAddr: 0xDD0C, symBinAddr: 0x1000112D8, symSize: 0x2C }
  - { offsetInCU: 0x49EB3, offset: 0x49EB3, size: 0x8, addend: 0x0, symName: __ZNSt3__16__treeINS_12basic_stringIcNS_11char_traitsIcEENS_9allocatorIcEEEENS_4lessIS6_EENS4_IS6_EEE12__node_allocB8ue170006Ev, symObjAddr: 0xDD38, symBinAddr: 0x100011304, symSize: 0x28 }
  - { offsetInCU: 0x49ED9, offset: 0x49ED9, size: 0x8, addend: 0x0, symName: __ZNSt3__116allocator_traitsINS_9allocatorINS_11__tree_nodeINS_12basic_stringIcNS_11char_traitsIcEENS1_IcEEEEPvEEEEE8allocateB8ue170006ERSA_m, symObjAddr: 0xDD60, symBinAddr: 0x10001132C, symSize: 0x2C }
  - { offsetInCU: 0x49F0C, offset: 0x49F0C, size: 0x8, addend: 0x0, symName: __ZNSt3__122__tree_node_destructorINS_9allocatorINS_11__tree_nodeINS_12basic_stringIcNS_11char_traitsIcEENS1_IcEEEEPvEEEEEC1B8ue170006ERSA_b, symObjAddr: 0xDD8C, symBinAddr: 0x100011358, symSize: 0x48 }
  - { offsetInCU: 0x49F5A, offset: 0x49F5A, size: 0x8, addend: 0x0, symName: __ZNSt3__110unique_ptrINS_11__tree_nodeINS_12basic_stringIcNS_11char_traitsIcEENS_9allocatorIcEEEEPvEENS_22__tree_node_destructorINS5_IS9_EEEEEC1B8ue170006ILb1EvEEPS9_NS_16__dependent_typeINS_27__unique_ptr_deleter_sfinaeISC_EEXT_EE20__good_rval_ref_typeE, symObjAddr: 0xDDD4, symBinAddr: 0x1000113A0, symSize: 0x3C }
  - { offsetInCU: 0x49FAB, offset: 0x49FAB, size: 0x8, addend: 0x0, symName: __ZNSt3__116allocator_traitsINS_9allocatorINS_11__tree_nodeINS_12basic_stringIcNS_11char_traitsIcEENS1_IcEEEEPvEEEEE9constructB8ue170006IS7_JS7_EvEEvRSA_PT_DpOT0_, symObjAddr: 0xDE10, symBinAddr: 0x1000113DC, symSize: 0x34 }
  - { offsetInCU: 0x4A002, offset: 0x4A002, size: 0x8, addend: 0x0, symName: __ZNSt3__122__tree_key_value_typesINS_12basic_stringIcNS_11char_traitsIcEENS_9allocatorIcEEEEE9__get_ptrB8ue170006ERS6_, symObjAddr: 0xDE44, symBinAddr: 0x100011410, symSize: 0x14 }
  - { offsetInCU: 0x4A026, offset: 0x4A026, size: 0x8, addend: 0x0, symName: __ZNKSt3__110unique_ptrINS_11__tree_nodeINS_12basic_stringIcNS_11char_traitsIcEENS_9allocatorIcEEEEPvEENS_22__tree_node_destructorINS5_IS9_EEEEEptB8ue170006Ev, symObjAddr: 0xDE58, symBinAddr: 0x100011424, symSize: 0x28 }
  - { offsetInCU: 0x4A04C, offset: 0x4A04C, size: 0x8, addend: 0x0, symName: __ZNSt3__110unique_ptrINS_11__tree_nodeINS_12basic_stringIcNS_11char_traitsIcEENS_9allocatorIcEEEEPvEENS_22__tree_node_destructorINS5_IS9_EEEEE11get_deleterB8ue170006Ev, symObjAddr: 0xDE80, symBinAddr: 0x10001144C, symSize: 0x24 }
  - { offsetInCU: 0x4A072, offset: 0x4A072, size: 0x8, addend: 0x0, symName: __ZNSt3__117__compressed_pairINS_15__tree_end_nodeIPNS_16__tree_node_baseIPvEEEENS_9allocatorINS_11__tree_nodeINS_12basic_stringIcNS_11char_traitsIcEENS7_IcEEEES3_EEEEE6secondB8ue170006Ev, symObjAddr: 0xDEA4, symBinAddr: 0x100011470, symSize: 0x24 }
  - { offsetInCU: 0x4A098, offset: 0x4A098, size: 0x8, addend: 0x0, symName: __ZNSt3__122__compressed_pair_elemINS_9allocatorINS_11__tree_nodeINS_12basic_stringIcNS_11char_traitsIcEENS1_IcEEEEPvEEEELi1ELb1EE5__getB8ue170006Ev, symObjAddr: 0xDEC8, symBinAddr: 0x100011494, symSize: 0x14 }
  - { offsetInCU: 0x4A0BE, offset: 0x4A0BE, size: 0x8, addend: 0x0, symName: __ZNSt3__19allocatorINS_11__tree_nodeINS_12basic_stringIcNS_11char_traitsIcEENS0_IcEEEEPvEEE8allocateB8ue170006Em, symObjAddr: 0xDEDC, symBinAddr: 0x1000114A8, symSize: 0x5C }
  - { offsetInCU: 0x4A0FD, offset: 0x4A0FD, size: 0x8, addend: 0x0, symName: __ZNSt3__116allocator_traitsINS_9allocatorINS_11__tree_nodeINS_12basic_stringIcNS_11char_traitsIcEENS1_IcEEEEPvEEEEE8max_sizeB8ue170006ISA_vEEmRKSA_, symObjAddr: 0xDF38, symBinAddr: 0x100011504, symSize: 0x24 }
  - { offsetInCU: 0x4A12B, offset: 0x4A12B, size: 0x8, addend: 0x0, symName: __ZNKSt3__19allocatorINS_11__tree_nodeINS_12basic_stringIcNS_11char_traitsIcEENS0_IcEEEEPvEEE8max_sizeB8ue170006Ev, symObjAddr: 0xDF5C, symBinAddr: 0x100011528, symSize: 0x20 }
  - { offsetInCU: 0x4A151, offset: 0x4A151, size: 0x8, addend: 0x0, symName: __ZNSt3__122__tree_node_destructorINS_9allocatorINS_11__tree_nodeINS_12basic_stringIcNS_11char_traitsIcEENS1_IcEEEEPvEEEEEC2B8ue170006ERSA_b, symObjAddr: 0xDF7C, symBinAddr: 0x100011548, symSize: 0x38 }
  - { offsetInCU: 0x4A199, offset: 0x4A199, size: 0x8, addend: 0x0, symName: __ZNSt3__110unique_ptrINS_11__tree_nodeINS_12basic_stringIcNS_11char_traitsIcEENS_9allocatorIcEEEEPvEENS_22__tree_node_destructorINS5_IS9_EEEEEC2B8ue170006ILb1EvEEPS9_NS_16__dependent_typeINS_27__unique_ptr_deleter_sfinaeISC_EEXT_EE20__good_rval_ref_typeE, symObjAddr: 0xDFB4, symBinAddr: 0x100011580, symSize: 0x48 }
  - { offsetInCU: 0x4A1EA, offset: 0x4A1EA, size: 0x8, addend: 0x0, symName: __ZNSt3__117__compressed_pairIPNS_11__tree_nodeINS_12basic_stringIcNS_11char_traitsIcEENS_9allocatorIcEEEEPvEENS_22__tree_node_destructorINS5_IS9_EEEEEC1B8ue170006IRSA_SD_EEOT_OT0_, symObjAddr: 0xDFFC, symBinAddr: 0x1000115C8, symSize: 0x3C }
  - { offsetInCU: 0x4A242, offset: 0x4A242, size: 0x8, addend: 0x0, symName: __ZNSt3__117__compressed_pairIPNS_11__tree_nodeINS_12basic_stringIcNS_11char_traitsIcEENS_9allocatorIcEEEEPvEENS_22__tree_node_destructorINS5_IS9_EEEEEC2B8ue170006IRSA_SD_EEOT_OT0_, symObjAddr: 0xE038, symBinAddr: 0x100011604, symSize: 0x48 }
  - { offsetInCU: 0x4A29A, offset: 0x4A29A, size: 0x8, addend: 0x0, symName: __ZNSt3__122__compressed_pair_elemIPNS_11__tree_nodeINS_12basic_stringIcNS_11char_traitsIcEENS_9allocatorIcEEEEPvEELi0ELb0EEC2B8ue170006IRSA_vEEOT_, symObjAddr: 0xE080, symBinAddr: 0x10001164C, symSize: 0x24 }
  - { offsetInCU: 0x4A2DC, offset: 0x4A2DC, size: 0x8, addend: 0x0, symName: __ZNSt3__122__compressed_pair_elemINS_22__tree_node_destructorINS_9allocatorINS_11__tree_nodeINS_12basic_stringIcNS_11char_traitsIcEENS2_IcEEEEPvEEEEEELi1ELb0EEC2B8ue170006ISC_vEEOT_, symObjAddr: 0xE0A4, symBinAddr: 0x100011670, symSize: 0x24 }
  - { offsetInCU: 0x4A31E, offset: 0x4A31E, size: 0x8, addend: 0x0, symName: __ZNSt3__19allocatorINS_11__tree_nodeINS_12basic_stringIcNS_11char_traitsIcEENS0_IcEEEEPvEEE9constructB8ue170006IS6_JS6_EEEvPT_DpOT0_, symObjAddr: 0xE0C8, symBinAddr: 0x100011694, symSize: 0x30 }
  - { offsetInCU: 0x4A374, offset: 0x4A374, size: 0x8, addend: 0x0, symName: __ZNKSt3__117__compressed_pairIPNS_11__tree_nodeINS_12basic_stringIcNS_11char_traitsIcEENS_9allocatorIcEEEEPvEENS_22__tree_node_destructorINS5_IS9_EEEEE5firstB8ue170006Ev, symObjAddr: 0xE0F8, symBinAddr: 0x1000116C4, symSize: 0x24 }
  - { offsetInCU: 0x4A39A, offset: 0x4A39A, size: 0x8, addend: 0x0, symName: __ZNKSt3__122__compressed_pair_elemIPNS_11__tree_nodeINS_12basic_stringIcNS_11char_traitsIcEENS_9allocatorIcEEEEPvEELi0ELb0EE5__getB8ue170006Ev, symObjAddr: 0xE11C, symBinAddr: 0x1000116E8, symSize: 0x14 }
  - { offsetInCU: 0x4A3C0, offset: 0x4A3C0, size: 0x8, addend: 0x0, symName: __ZNSt3__117__compressed_pairIPNS_11__tree_nodeINS_12basic_stringIcNS_11char_traitsIcEENS_9allocatorIcEEEEPvEENS_22__tree_node_destructorINS5_IS9_EEEEE6secondB8ue170006Ev, symObjAddr: 0xE130, symBinAddr: 0x1000116FC, symSize: 0x28 }
  - { offsetInCU: 0x4A3E6, offset: 0x4A3E6, size: 0x8, addend: 0x0, symName: __ZNSt3__122__compressed_pair_elemINS_22__tree_node_destructorINS_9allocatorINS_11__tree_nodeINS_12basic_stringIcNS_11char_traitsIcEENS2_IcEEEEPvEEEEEELi1ELb0EE5__getB8ue170006Ev, symObjAddr: 0xE158, symBinAddr: 0x100011724, symSize: 0x14 }
  - { offsetInCU: 0x4A40C, offset: 0x4A40C, size: 0x8, addend: 0x0, symName: __ZNSt3__16__treeINS_12basic_stringIcNS_11char_traitsIcEENS_9allocatorIcEEEENS_4lessIS6_EENS4_IS6_EEE4sizeB8ue170006Ev, symObjAddr: 0xE498, symBinAddr: 0x100011A64, symSize: 0x28 }
  - { offsetInCU: 0x4A432, offset: 0x4A432, size: 0x8, addend: 0x0, symName: __ZNKSt3__116__tree_node_baseIPvE15__parent_unsafeB8ue170006Ev, symObjAddr: 0xE4C0, symBinAddr: 0x100011A8C, symSize: 0x18 }
  - { offsetInCU: 0x4A458, offset: 0x4A458, size: 0x8, addend: 0x0, symName: __ZNSt3__116__tree_node_baseIPvE12__set_parentB8ue170006EPS2_, symObjAddr: 0xE6A8, symBinAddr: 0x100011C74, symSize: 0x20 }
  - { offsetInCU: 0x4A48D, offset: 0x4A48D, size: 0x8, addend: 0x0, symName: __ZNSt3__117__compressed_pairImNS_4lessINS_12basic_stringIcNS_11char_traitsIcEENS_9allocatorIcEEEEEEE5firstB8ue170006Ev, symObjAddr: 0xE6C8, symBinAddr: 0x100011C94, symSize: 0x24 }
  - { offsetInCU: 0x4A4B3, offset: 0x4A4B3, size: 0x8, addend: 0x0, symName: __ZNSt3__122__compressed_pair_elemImLi0ELb0EE5__getB8ue170006Ev, symObjAddr: 0xE6EC, symBinAddr: 0x100011CB8, symSize: 0x14 }
  - { offsetInCU: 0x4A4D9, offset: 0x4A4D9, size: 0x8, addend: 0x0, symName: __ZNSt3__117__compressed_pairIPNS_11__tree_nodeINS_12basic_stringIcNS_11char_traitsIcEENS_9allocatorIcEEEEPvEENS_22__tree_node_destructorINS5_IS9_EEEEE5firstB8ue170006Ev, symObjAddr: 0xE700, symBinAddr: 0x100011CCC, symSize: 0x24 }
  - { offsetInCU: 0x4A4FF, offset: 0x4A4FF, size: 0x8, addend: 0x0, symName: __ZNSt3__122__compressed_pair_elemIPNS_11__tree_nodeINS_12basic_stringIcNS_11char_traitsIcEENS_9allocatorIcEEEEPvEELi0ELb0EE5__getB8ue170006Ev, symObjAddr: 0xE724, symBinAddr: 0x100011CF0, symSize: 0x14 }
  - { offsetInCU: 0x4A525, offset: 0x4A525, size: 0x8, addend: 0x0, symName: __ZNSt3__110unique_ptrINS_11__tree_nodeINS_12basic_stringIcNS_11char_traitsIcEENS_9allocatorIcEEEEPvEENS_22__tree_node_destructorINS5_IS9_EEEEED2B8ue170006Ev, symObjAddr: 0xE738, symBinAddr: 0x100011D04, symSize: 0x30 }
  - { offsetInCU: 0x4A54F, offset: 0x4A54F, size: 0x8, addend: 0x0, symName: __ZNSt3__110unique_ptrINS_11__tree_nodeINS_12basic_stringIcNS_11char_traitsIcEENS_9allocatorIcEEEEPvEENS_22__tree_node_destructorINS5_IS9_EEEEE5resetB8ue170006EPS9_, symObjAddr: 0xE768, symBinAddr: 0x100011D34, symSize: 0x78 }
  - { offsetInCU: 0x4A593, offset: 0x4A593, size: 0x8, addend: 0x0, symName: __ZNSt3__122__tree_node_destructorINS_9allocatorINS_11__tree_nodeINS_12basic_stringIcNS_11char_traitsIcEENS1_IcEEEEPvEEEEEclB8ue170006EPS9_, symObjAddr: 0xE7E0, symBinAddr: 0x100011DAC, symSize: 0x90 }
  - { offsetInCU: 0x4A5C8, offset: 0x4A5C8, size: 0x8, addend: 0x0, symName: __ZNSt3__116allocator_traitsINS_9allocatorINS_11__tree_nodeINS_12basic_stringIcNS_11char_traitsIcEENS1_IcEEEEPvEEEEE7destroyB8ue170006IS7_vvEEvRSA_PT_, symObjAddr: 0xE870, symBinAddr: 0x100011E3C, symSize: 0x28 }
  - { offsetInCU: 0x4A603, offset: 0x4A603, size: 0x8, addend: 0x0, symName: __ZNSt3__116allocator_traitsINS_9allocatorINS_11__tree_nodeINS_12basic_stringIcNS_11char_traitsIcEENS1_IcEEEEPvEEEEE10deallocateB8ue170006ERSA_PS9_m, symObjAddr: 0xE898, symBinAddr: 0x100011E64, symSize: 0x34 }
  - { offsetInCU: 0x4A645, offset: 0x4A645, size: 0x8, addend: 0x0, symName: __ZNSt3__19allocatorINS_11__tree_nodeINS_12basic_stringIcNS_11char_traitsIcEENS0_IcEEEEPvEEE10deallocateB8ue170006EPS8_m, symObjAddr: 0xE8CC, symBinAddr: 0x100011E98, symSize: 0x44 }
  - { offsetInCU: 0x4A687, offset: 0x4A687, size: 0x8, addend: 0x0, symName: __ZNSt3__115__tree_iteratorINS_12basic_stringIcNS_11char_traitsIcEENS_9allocatorIcEEEEPNS_11__tree_nodeIS6_PvEElEC2B8ue170006ESA_, symObjAddr: 0xE910, symBinAddr: 0x100011EDC, symSize: 0x20 }
  - { offsetInCU: 0x4A6C0, offset: 0x4A6C0, size: 0x8, addend: 0x0, symName: __ZNSt3__14pairINS_15__tree_iteratorINS_12basic_stringIcNS_11char_traitsIcEENS_9allocatorIcEEEEPNS_11__tree_nodeIS7_PvEElEEbEC2B8ue170006ISC_RbLS9_0EEEOT_OT0_, symObjAddr: 0xE930, symBinAddr: 0x100011EFC, symSize: 0x38 }
  - { offsetInCU: 0x4A71E, offset: 0x4A71E, size: 0x8, addend: 0x0, symName: __ZNSt3__14pairINS_21__tree_const_iteratorINS_12basic_stringIcNS_11char_traitsIcEENS_9allocatorIcEEEEPNS_11__tree_nodeIS7_PvEElEEbEC2B8ue170006INS_15__tree_iteratorIS7_SB_lEEbLS9_0EEEONS0_IT_T0_EE, symObjAddr: 0xE968, symBinAddr: 0x100011F34, symSize: 0x50 }
  - { offsetInCU: 0x4A76F, offset: 0x4A76F, size: 0x8, addend: 0x0, symName: __ZNSt3__121__tree_const_iteratorINS_12basic_stringIcNS_11char_traitsIcEENS_9allocatorIcEEEEPNS_11__tree_nodeIS6_PvEElEC1B8ue170006ENS_15__tree_iteratorIS6_SA_lEE, symObjAddr: 0xE9B8, symBinAddr: 0x100011F84, symSize: 0x34 }
  - { offsetInCU: 0x4A7A8, offset: 0x4A7A8, size: 0x8, addend: 0x0, symName: __ZNSt3__121__tree_const_iteratorINS_12basic_stringIcNS_11char_traitsIcEENS_9allocatorIcEEEEPNS_11__tree_nodeIS6_PvEElEC2B8ue170006ENS_15__tree_iteratorIS6_SA_lEE, symObjAddr: 0xE9EC, symBinAddr: 0x100011FB8, symSize: 0x20 }
  - { offsetInCU: 0x4A7E1, offset: 0x4A7E1, size: 0x8, addend: 0x0, symName: __ZN6Parser4ruleEv, symObjAddr: 0xEA0C, symBinAddr: 0x100011FD8, symSize: 0x1B0 }
  - { offsetInCU: 0x4A82B, offset: 0x4A82B, size: 0x8, addend: 0x0, symName: __ZN4RuleC1Ev, symObjAddr: 0xEBBC, symBinAddr: 0x100012188, symSize: 0x2C }
  - { offsetInCU: 0x4A855, offset: 0x4A855, size: 0x8, addend: 0x0, symName: __ZN6Parser13headPredicateER4Rule, symObjAddr: 0xEBE8, symBinAddr: 0x1000121B4, symSize: 0x270 }
  - { offsetInCU: 0x4A8AD, offset: 0x4A8AD, size: 0x8, addend: 0x0, symName: __ZN9PredicateC1Ev, symObjAddr: 0xEE58, symBinAddr: 0x100012424, symSize: 0x2C }
  - { offsetInCU: 0x4A8D7, offset: 0x4A8D7, size: 0x8, addend: 0x0, symName: __ZN6Parser13predicateBodyER4Rule, symObjAddr: 0xEE84, symBinAddr: 0x100012450, symSize: 0x270 }
  - { offsetInCU: 0x4A930, offset: 0x4A930, size: 0x8, addend: 0x0, symName: __ZN6Parser13predicateListER4Rule, symObjAddr: 0xF0F4, symBinAddr: 0x1000126C0, symSize: 0x68 }
  - { offsetInCU: 0x4A965, offset: 0x4A965, size: 0x8, addend: 0x0, symName: __ZN14DatalogProgram7addRuleE4Rule, symObjAddr: 0xF15C, symBinAddr: 0x100012728, symSize: 0x30 }
  - { offsetInCU: 0x4A99A, offset: 0x4A99A, size: 0x8, addend: 0x0, symName: __ZN4RuleC1ERKS_, symObjAddr: 0xF18C, symBinAddr: 0x100012758, symSize: 0x34 }
  - { offsetInCU: 0x4A9CF, offset: 0x4A9CF, size: 0x8, addend: 0x0, symName: __ZN4RuleD1Ev, symObjAddr: 0xF1C0, symBinAddr: 0x10001278C, symSize: 0x2C }
  - { offsetInCU: 0x4A9FB, offset: 0x4A9FB, size: 0x8, addend: 0x0, symName: __ZN4RuleC2Ev, symObjAddr: 0xF1EC, symBinAddr: 0x1000127B8, symSize: 0x38 }
  - { offsetInCU: 0x4AA25, offset: 0x4AA25, size: 0x8, addend: 0x0, symName: __ZN6Parser9parameterEv, symObjAddr: 0xF224, symBinAddr: 0x1000127F0, symSize: 0xE4 }
  - { offsetInCU: 0x4AA4B, offset: 0x4AA4B, size: 0x8, addend: 0x0, symName: __ZN6Parser13parameterListER9Predicate, symObjAddr: 0xF308, symBinAddr: 0x1000128D4, symSize: 0x128 }
  - { offsetInCU: 0x4AA95, offset: 0x4AA95, size: 0x8, addend: 0x0, symName: __ZN4Rule7setHeadE9Predicate, symObjAddr: 0xF430, symBinAddr: 0x1000129FC, symSize: 0x2C }
  - { offsetInCU: 0x4AACA, offset: 0x4AACA, size: 0x8, addend: 0x0, symName: __ZN9PredicateaSERKS_, symObjAddr: 0xF45C, symBinAddr: 0x100012A28, symSize: 0x48 }
  - { offsetInCU: 0x4AAFB, offset: 0x4AAFB, size: 0x8, addend: 0x0, symName: __ZNSt3__16vectorI9ParameterNS_9allocatorIS1_EEEaSB8ue170006ERKS4_, symObjAddr: 0xF4A4, symBinAddr: 0x100012A70, symSize: 0x68 }
  - { offsetInCU: 0x4AB32, offset: 0x4AB32, size: 0x8, addend: 0x0, symName: __ZNSt3__16vectorI9ParameterNS_9allocatorIS1_EEE19__copy_assign_allocB8ue170006ERKS4_, symObjAddr: 0xF50C, symBinAddr: 0x100012AD8, symSize: 0x2C }
  - { offsetInCU: 0x4AB67, offset: 0x4AB67, size: 0x8, addend: 0x0, symName: __ZNSt3__16vectorI9ParameterNS_9allocatorIS1_EEE6assignIPS1_Li0EEEvT_S7_, symObjAddr: 0xF538, symBinAddr: 0x100012B04, symSize: 0x5C }
  - { offsetInCU: 0x4ABBC, offset: 0x4ABBC, size: 0x8, addend: 0x0, symName: __ZNSt3__16vectorI9ParameterNS_9allocatorIS1_EEE19__copy_assign_allocB8ue170006ERKS4_NS_17integral_constantIbLb0EEE, symObjAddr: 0xF594, symBinAddr: 0x100012B60, symSize: 0x14 }
  - { offsetInCU: 0x4ABFA, offset: 0x4ABFA, size: 0x8, addend: 0x0, symName: __ZNSt3__16vectorI9ParameterNS_9allocatorIS1_EEE18__assign_with_sizeB8ue170006IPS1_S6_EEvT_T0_l, symObjAddr: 0xF5A8, symBinAddr: 0x100012B74, symSize: 0x164 }
  - { offsetInCU: 0x4ACAA, offset: 0x4ACAA, size: 0x8, addend: 0x0, symName: __ZNSt3__16vectorI9ParameterNS_9allocatorIS1_EEE17__destruct_at_endB8ue170006EPS1_, symObjAddr: 0xF7F0, symBinAddr: 0x100012DBC, symSize: 0x4C }
  - { offsetInCU: 0x4ACEE, offset: 0x4ACEE, size: 0x8, addend: 0x0, symName: __ZNSt3__16vectorI9ParameterNS_9allocatorIS1_EEE13__vdeallocateEv, symObjAddr: 0xF83C, symBinAddr: 0x100012E08, symSize: 0x94 }
  - { offsetInCU: 0x4AD21, offset: 0x4AD21, size: 0x8, addend: 0x0, symName: __ZNKSt3__111__copy_loopINS_17_ClassicAlgPolicyEEclB8ue170006IP9ParameterS5_S5_EENS_4pairIT_T1_EES7_T0_S8_, symObjAddr: 0xFA44, symBinAddr: 0x100013010, symSize: 0x88 }
  - { offsetInCU: 0x4AD8C, offset: 0x4AD8C, size: 0x8, addend: 0x0, symName: __ZN9ParameteraSERKS_, symObjAddr: 0xFAF8, symBinAddr: 0x1000130C4, symSize: 0x34 }
  - { offsetInCU: 0x4ADBD, offset: 0x4ADBD, size: 0x8, addend: 0x0, symName: __ZNKSt3__16vectorI9ParameterNS_9allocatorIS1_EEE17__annotate_shrinkB8ue170006Em, symObjAddr: 0xFB2C, symBinAddr: 0x1000130F8, symSize: 0xD0 }
  - { offsetInCU: 0x4ADF2, offset: 0x4ADF2, size: 0x8, addend: 0x0, symName: __ZNSt3__16vectorI9ParameterNS_9allocatorIS1_EEE5clearB8ue170006Ev, symObjAddr: 0xFBFC, symBinAddr: 0x1000131C8, symSize: 0x44 }
  - { offsetInCU: 0x4AE27, offset: 0x4AE27, size: 0x8, addend: 0x0, symName: __ZN9PredicateC2Ev, symObjAddr: 0xFC68, symBinAddr: 0x100013234, symSize: 0x38 }
  - { offsetInCU: 0x4AE51, offset: 0x4AE51, size: 0x8, addend: 0x0, symName: __ZN4Rule16addBodyPredicateE9Predicate, symObjAddr: 0xFCA0, symBinAddr: 0x10001326C, symSize: 0x30 }
  - { offsetInCU: 0x4AE86, offset: 0x4AE86, size: 0x8, addend: 0x0, symName: __ZNSt3__16vectorI4RuleNS_9allocatorIS1_EEE9push_backB8ue170006ERKS1_, symObjAddr: 0xFCD0, symBinAddr: 0x10001329C, symSize: 0x6C }
  - { offsetInCU: 0x4AEBD, offset: 0x4AEBD, size: 0x8, addend: 0x0, symName: __ZNSt3__16vectorI4RuleNS_9allocatorIS1_EEE9__end_capB8ue170006Ev, symObjAddr: 0xFD3C, symBinAddr: 0x100013308, symSize: 0x28 }
  - { offsetInCU: 0x4AEE3, offset: 0x4AEE3, size: 0x8, addend: 0x0, symName: __ZNSt3__16vectorI4RuleNS_9allocatorIS1_EEE22__construct_one_at_endB8ue170006IJRKS1_EEEvDpOT_, symObjAddr: 0xFD64, symBinAddr: 0x100013330, symSize: 0x90 }
  - { offsetInCU: 0x4AF32, offset: 0x4AF32, size: 0x8, addend: 0x0, symName: __ZNSt3__16vectorI4RuleNS_9allocatorIS1_EEE21__push_back_slow_pathIRKS1_EEvOT_, symObjAddr: 0xFDF4, symBinAddr: 0x1000133C0, symSize: 0xD8 }
  - { offsetInCU: 0x4AF90, offset: 0x4AF90, size: 0x8, addend: 0x0, symName: __ZNSt3__117__compressed_pairIP4RuleNS_9allocatorIS1_EEE5firstB8ue170006Ev, symObjAddr: 0xFECC, symBinAddr: 0x100013498, symSize: 0x24 }
  - { offsetInCU: 0x4AFB6, offset: 0x4AFB6, size: 0x8, addend: 0x0, symName: __ZNSt3__122__compressed_pair_elemIP4RuleLi0ELb0EE5__getB8ue170006Ev, symObjAddr: 0xFEF0, symBinAddr: 0x1000134BC, symSize: 0x14 }
  - { offsetInCU: 0x4AFF8, offset: 0x4AFF8, size: 0x8, addend: 0x0, symName: __ZNSt3__16vectorI4RuleNS_9allocatorIS1_EEE21_ConstructTransactionC1B8ue170006ERS4_m, symObjAddr: 0xFF04, symBinAddr: 0x1000134D0, symSize: 0x3C }
  - { offsetInCU: 0x4B040, offset: 0x4B040, size: 0x8, addend: 0x0, symName: __ZNSt3__116allocator_traitsINS_9allocatorI4RuleEEE9constructB8ue170006IS2_JRKS2_EvEEvRS3_PT_DpOT0_, symObjAddr: 0xFF40, symBinAddr: 0x10001350C, symSize: 0x34 }
  - { offsetInCU: 0x4B097, offset: 0x4B097, size: 0x8, addend: 0x0, symName: __ZNSt3__16vectorI4RuleNS_9allocatorIS1_EEE7__allocB8ue170006Ev, symObjAddr: 0xFF74, symBinAddr: 0x100013540, symSize: 0x28 }
  - { offsetInCU: 0x4B0BD, offset: 0x4B0BD, size: 0x8, addend: 0x0, symName: __ZNSt3__16vectorI4RuleNS_9allocatorIS1_EEE21_ConstructTransactionD1B8ue170006Ev, symObjAddr: 0xFFB0, symBinAddr: 0x10001357C, symSize: 0x2C }
  - { offsetInCU: 0x4B0E7, offset: 0x4B0E7, size: 0x8, addend: 0x0, symName: __ZNSt3__16vectorI4RuleNS_9allocatorIS1_EEE21_ConstructTransactionC2B8ue170006ERS4_m, symObjAddr: 0xFFDC, symBinAddr: 0x1000135A8, symSize: 0x4C }
  - { offsetInCU: 0x4B12F, offset: 0x4B12F, size: 0x8, addend: 0x0, symName: __ZNSt3__19allocatorI4RuleE9constructB8ue170006IS1_JRKS1_EEEvPT_DpOT0_, symObjAddr: 0x10028, symBinAddr: 0x1000135F4, symSize: 0x30 }
  - { offsetInCU: 0x4B185, offset: 0x4B185, size: 0x8, addend: 0x0, symName: __ZNSt3__117__compressed_pairIP4RuleNS_9allocatorIS1_EEE6secondB8ue170006Ev, symObjAddr: 0x10058, symBinAddr: 0x100013624, symSize: 0x24 }
  - { offsetInCU: 0x4B1AB, offset: 0x4B1AB, size: 0x8, addend: 0x0, symName: __ZNSt3__122__compressed_pair_elemINS_9allocatorI4RuleEELi1ELb1EE5__getB8ue170006Ev, symObjAddr: 0x1007C, symBinAddr: 0x100013648, symSize: 0x14 }
  - { offsetInCU: 0x4B1D1, offset: 0x4B1D1, size: 0x8, addend: 0x0, symName: __ZNSt3__16vectorI4RuleNS_9allocatorIS1_EEE21_ConstructTransactionD2B8ue170006Ev, symObjAddr: 0x10090, symBinAddr: 0x10001365C, symSize: 0x20 }
  - { offsetInCU: 0x4B1FB, offset: 0x4B1FB, size: 0x8, addend: 0x0, symName: __ZNKSt3__16vectorI4RuleNS_9allocatorIS1_EEE11__recommendB8ue170006Em, symObjAddr: 0x100B0, symBinAddr: 0x10001367C, symSize: 0xB4 }
  - { offsetInCU: 0x4B250, offset: 0x4B250, size: 0x8, addend: 0x0, symName: __ZNKSt3__16vectorI4RuleNS_9allocatorIS1_EEE4sizeB8ue170006Ev, symObjAddr: 0x10164, symBinAddr: 0x100013730, symSize: 0x28 }
  - { offsetInCU: 0x4B276, offset: 0x4B276, size: 0x8, addend: 0x0, symName: __ZNSt3__114__split_bufferI4RuleRNS_9allocatorIS1_EEEC1EmmS4_, symObjAddr: 0x1018C, symBinAddr: 0x100013758, symSize: 0x44 }
  - { offsetInCU: 0x4B2CC, offset: 0x4B2CC, size: 0x8, addend: 0x0, symName: __ZNSt3__114__split_bufferI4RuleRNS_9allocatorIS1_EEED1Ev, symObjAddr: 0x102E0, symBinAddr: 0x1000138AC, symSize: 0x2C }
  - { offsetInCU: 0x4B2F8, offset: 0x4B2F8, size: 0x8, addend: 0x0, symName: __ZNKSt3__16vectorI4RuleNS_9allocatorIS1_EEE8max_sizeEv, symObjAddr: 0x1030C, symBinAddr: 0x1000138D8, symSize: 0x60 }
  - { offsetInCU: 0x4B320, offset: 0x4B320, size: 0x8, addend: 0x0, symName: __ZNKSt3__16vectorI4RuleNS_9allocatorIS1_EEE20__throw_length_errorB8ue170006Ev, symObjAddr: 0x1036C, symBinAddr: 0x100013938, symSize: 0x1C }
  - { offsetInCU: 0x4B346, offset: 0x4B346, size: 0x8, addend: 0x0, symName: __ZNKSt3__16vectorI4RuleNS_9allocatorIS1_EEE8capacityB8ue170006Ev, symObjAddr: 0x10388, symBinAddr: 0x100013954, symSize: 0x40 }
  - { offsetInCU: 0x4B377, offset: 0x4B377, size: 0x8, addend: 0x0, symName: __ZNSt3__116allocator_traitsINS_9allocatorI4RuleEEE8max_sizeB8ue170006IS3_vEEmRKS3_, symObjAddr: 0x103C8, symBinAddr: 0x100013994, symSize: 0x24 }
  - { offsetInCU: 0x4B3A5, offset: 0x4B3A5, size: 0x8, addend: 0x0, symName: __ZNKSt3__16vectorI4RuleNS_9allocatorIS1_EEE7__allocB8ue170006Ev, symObjAddr: 0x103EC, symBinAddr: 0x1000139B8, symSize: 0x28 }
  - { offsetInCU: 0x4B3CB, offset: 0x4B3CB, size: 0x8, addend: 0x0, symName: __ZNKSt3__19allocatorI4RuleE8max_sizeB8ue170006Ev, symObjAddr: 0x10414, symBinAddr: 0x1000139E0, symSize: 0x20 }
  - { offsetInCU: 0x4B3F1, offset: 0x4B3F1, size: 0x8, addend: 0x0, symName: __ZNKSt3__117__compressed_pairIP4RuleNS_9allocatorIS1_EEE6secondB8ue170006Ev, symObjAddr: 0x10434, symBinAddr: 0x100013A00, symSize: 0x24 }
  - { offsetInCU: 0x4B417, offset: 0x4B417, size: 0x8, addend: 0x0, symName: __ZNKSt3__122__compressed_pair_elemINS_9allocatorI4RuleEELi1ELb1EE5__getB8ue170006Ev, symObjAddr: 0x10458, symBinAddr: 0x100013A24, symSize: 0x14 }
  - { offsetInCU: 0x4B43D, offset: 0x4B43D, size: 0x8, addend: 0x0, symName: __ZNKSt3__16vectorI4RuleNS_9allocatorIS1_EEE9__end_capB8ue170006Ev, symObjAddr: 0x1046C, symBinAddr: 0x100013A38, symSize: 0x28 }
  - { offsetInCU: 0x4B463, offset: 0x4B463, size: 0x8, addend: 0x0, symName: __ZNKSt3__117__compressed_pairIP4RuleNS_9allocatorIS1_EEE5firstB8ue170006Ev, symObjAddr: 0x10494, symBinAddr: 0x100013A60, symSize: 0x24 }
  - { offsetInCU: 0x4B489, offset: 0x4B489, size: 0x8, addend: 0x0, symName: __ZNKSt3__122__compressed_pair_elemIP4RuleLi0ELb0EE5__getB8ue170006Ev, symObjAddr: 0x104B8, symBinAddr: 0x100013A84, symSize: 0x14 }
  - { offsetInCU: 0x4B4AF, offset: 0x4B4AF, size: 0x8, addend: 0x0, symName: __ZNSt3__114__split_bufferI4RuleRNS_9allocatorIS1_EEEC2EmmS4_, symObjAddr: 0x104CC, symBinAddr: 0x100013A98, symSize: 0xE0 }
  - { offsetInCU: 0x4B522, offset: 0x4B522, size: 0x8, addend: 0x0, symName: __ZNSt3__117__compressed_pairIP4RuleRNS_9allocatorIS1_EEEC1B8ue170006IDnS5_EEOT_OT0_, symObjAddr: 0x105AC, symBinAddr: 0x100013B78, symSize: 0x3C }
  - { offsetInCU: 0x4B57A, offset: 0x4B57A, size: 0x8, addend: 0x0, symName: __ZNSt3__114__split_bufferI4RuleRNS_9allocatorIS1_EEE7__allocB8ue170006Ev, symObjAddr: 0x10628, symBinAddr: 0x100013BF4, symSize: 0x28 }
  - { offsetInCU: 0x4B5A0, offset: 0x4B5A0, size: 0x8, addend: 0x0, symName: __ZNSt3__114__split_bufferI4RuleRNS_9allocatorIS1_EEE9__end_capB8ue170006Ev, symObjAddr: 0x10650, symBinAddr: 0x100013C1C, symSize: 0x28 }
  - { offsetInCU: 0x4B5C6, offset: 0x4B5C6, size: 0x8, addend: 0x0, symName: __ZNSt3__117__compressed_pairIP4RuleRNS_9allocatorIS1_EEEC2B8ue170006IDnS5_EEOT_OT0_, symObjAddr: 0x10678, symBinAddr: 0x100013C44, symSize: 0x48 }
  - { offsetInCU: 0x4B61E, offset: 0x4B61E, size: 0x8, addend: 0x0, symName: __ZNSt3__122__compressed_pair_elemIRNS_9allocatorI4RuleEELi1ELb0EEC2B8ue170006IS4_vEEOT_, symObjAddr: 0x106C0, symBinAddr: 0x100013C8C, symSize: 0x20 }
  - { offsetInCU: 0x4B660, offset: 0x4B660, size: 0x8, addend: 0x0, symName: __ZNSt3__19allocatorI4RuleE8allocateB8ue170006Em, symObjAddr: 0x106E0, symBinAddr: 0x100013CAC, symSize: 0x5C }
  - { offsetInCU: 0x4B694, offset: 0x4B694, size: 0x8, addend: 0x0, symName: __ZNSt3__117__compressed_pairIP4RuleRNS_9allocatorIS1_EEE6secondB8ue170006Ev, symObjAddr: 0x1073C, symBinAddr: 0x100013D08, symSize: 0x28 }
  - { offsetInCU: 0x4B6BA, offset: 0x4B6BA, size: 0x8, addend: 0x0, symName: __ZNSt3__122__compressed_pair_elemIRNS_9allocatorI4RuleEELi1ELb0EE5__getB8ue170006Ev, symObjAddr: 0x10764, symBinAddr: 0x100013D30, symSize: 0x18 }
  - { offsetInCU: 0x4B6E0, offset: 0x4B6E0, size: 0x8, addend: 0x0, symName: __ZNSt3__117__compressed_pairIP4RuleRNS_9allocatorIS1_EEE5firstB8ue170006Ev, symObjAddr: 0x1077C, symBinAddr: 0x100013D48, symSize: 0x24 }
  - { offsetInCU: 0x4B706, offset: 0x4B706, size: 0x8, addend: 0x0, symName: __ZNKSt3__16vectorI4RuleNS_9allocatorIS1_EEE17__annotate_deleteB8ue170006Ev, symObjAddr: 0x107A0, symBinAddr: 0x100013D6C, symSize: 0xD4 }
  - { offsetInCU: 0x4B72C, offset: 0x4B72C, size: 0x8, addend: 0x0, symName: __ZNSt3__116reverse_iteratorIP4RuleEC1B8ue170006ES2_, symObjAddr: 0x109A0, symBinAddr: 0x100013F6C, symSize: 0x34 }
  - { offsetInCU: 0x4B764, offset: 0x4B764, size: 0x8, addend: 0x0, symName: __ZNKSt3__116reverse_iteratorIP4RuleE4baseB8ue170006Ev, symObjAddr: 0x109D4, symBinAddr: 0x100013FA0, symSize: 0x18 }
  - { offsetInCU: 0x4B78A, offset: 0x4B78A, size: 0x8, addend: 0x0, symName: __ZNKSt3__16vectorI4RuleNS_9allocatorIS1_EEE14__annotate_newB8ue170006Em, symObjAddr: 0x10A28, symBinAddr: 0x100013FF4, symSize: 0xC8 }
  - { offsetInCU: 0x4B7BF, offset: 0x4B7BF, size: 0x8, addend: 0x0, symName: __ZNKSt3__16vectorI4RuleNS_9allocatorIS1_EEE31__annotate_contiguous_containerB8ue170006EPKvS6_S6_S6_, symObjAddr: 0x10AF0, symBinAddr: 0x1000140BC, symSize: 0x20 }
  - { offsetInCU: 0x4B815, offset: 0x4B815, size: 0x8, addend: 0x0, symName: __ZNKSt3__16vectorI4RuleNS_9allocatorIS1_EEE4dataB8ue170006Ev, symObjAddr: 0x10B10, symBinAddr: 0x1000140DC, symSize: 0x28 }
  - { offsetInCU: 0x4B83B, offset: 0x4B83B, size: 0x8, addend: 0x0, symName: __ZNSt3__129_AllocatorDestroyRangeReverseINS_9allocatorI4RuleEENS_16reverse_iteratorIPS2_EEEC1B8ue170006ERS3_RS6_S9_, symObjAddr: 0x10B84, symBinAddr: 0x100014150, symSize: 0x44 }
  - { offsetInCU: 0x4B898, offset: 0x4B898, size: 0x8, addend: 0x0, symName: __ZNSt3__116allocator_traitsINS_9allocatorI4RuleEEE9constructB8ue170006IS2_JS2_EvEEvRS3_PT_DpOT0_, symObjAddr: 0x10C10, symBinAddr: 0x1000141DC, symSize: 0x34 }
  - { offsetInCU: 0x4B8EF, offset: 0x4B8EF, size: 0x8, addend: 0x0, symName: __ZNKSt3__116reverse_iteratorIP4RuleEdeB8ue170006Ev, symObjAddr: 0x10C68, symBinAddr: 0x100014234, symSize: 0x28 }
  - { offsetInCU: 0x4B923, offset: 0x4B923, size: 0x8, addend: 0x0, symName: __ZNSt3__116reverse_iteratorIP4RuleEppB8ue170006Ev, symObjAddr: 0x10C90, symBinAddr: 0x10001425C, symSize: 0x20 }
  - { offsetInCU: 0x4B949, offset: 0x4B949, size: 0x8, addend: 0x0, symName: __ZNSt3__128__exception_guard_exceptionsINS_29_AllocatorDestroyRangeReverseINS_9allocatorI4RuleEENS_16reverse_iteratorIPS3_EEEEE10__completeB8ue170006Ev, symObjAddr: 0x10CB0, symBinAddr: 0x10001427C, symSize: 0x1C }
  - { offsetInCU: 0x4B96F, offset: 0x4B96F, size: 0x8, addend: 0x0, symName: __ZNSt3__128__exception_guard_exceptionsINS_29_AllocatorDestroyRangeReverseINS_9allocatorI4RuleEENS_16reverse_iteratorIPS3_EEEEED1B8ue170006Ev, symObjAddr: 0x10CCC, symBinAddr: 0x100014298, symSize: 0x2C }
  - { offsetInCU: 0x4B999, offset: 0x4B999, size: 0x8, addend: 0x0, symName: __ZNSt3__128__exception_guard_exceptionsINS_29_AllocatorDestroyRangeReverseINS_9allocatorI4RuleEENS_16reverse_iteratorIPS3_EEEEEC1B8ue170006ES8_, symObjAddr: 0x10CF8, symBinAddr: 0x1000142C4, symSize: 0x34 }
  - { offsetInCU: 0x4B9D2, offset: 0x4B9D2, size: 0x8, addend: 0x0, symName: __ZNSt3__128__exception_guard_exceptionsINS_29_AllocatorDestroyRangeReverseINS_9allocatorI4RuleEENS_16reverse_iteratorIPS3_EEEEEC2B8ue170006ES8_, symObjAddr: 0x10D2C, symBinAddr: 0x1000142F8, symSize: 0x30 }
  - { offsetInCU: 0x4BA0B, offset: 0x4BA0B, size: 0x8, addend: 0x0, symName: __ZNSt3__129_AllocatorDestroyRangeReverseINS_9allocatorI4RuleEENS_16reverse_iteratorIPS2_EEEC2B8ue170006ERS3_RS6_S9_, symObjAddr: 0x10D5C, symBinAddr: 0x100014328, symSize: 0x38 }
  - { offsetInCU: 0x4BA62, offset: 0x4BA62, size: 0x8, addend: 0x0, symName: __ZNSt3__19allocatorI4RuleE9constructB8ue170006IS1_JS1_EEEvPT_DpOT0_, symObjAddr: 0x10D94, symBinAddr: 0x100014360, symSize: 0x30 }
  - { offsetInCU: 0x4BAB8, offset: 0x4BAB8, size: 0x8, addend: 0x0, symName: __ZN4RuleC1EOS_, symObjAddr: 0x10DC4, symBinAddr: 0x100014390, symSize: 0x34 }
  - { offsetInCU: 0x4BAED, offset: 0x4BAED, size: 0x8, addend: 0x0, symName: __ZN4RuleC2EOS_, symObjAddr: 0x10DF8, symBinAddr: 0x1000143C4, symSize: 0x48 }
  - { offsetInCU: 0x4BB22, offset: 0x4BB22, size: 0x8, addend: 0x0, symName: __ZNSt3__16vectorI9PredicateNS_9allocatorIS1_EEEC1B8ue170006EOS4_, symObjAddr: 0x10E40, symBinAddr: 0x10001440C, symSize: 0x34 }
  - { offsetInCU: 0x4BB5D, offset: 0x4BB5D, size: 0x8, addend: 0x0, symName: __ZNSt3__16vectorI9PredicateNS_9allocatorIS1_EEEC2B8ue170006EOS4_, symObjAddr: 0x10E74, symBinAddr: 0x100014440, symSize: 0xC4 }
  - { offsetInCU: 0x4BB9E, offset: 0x4BB9E, size: 0x8, addend: 0x0, symName: __ZNSt3__117__compressed_pairIP9PredicateNS_9allocatorIS1_EEEC1B8ue170006IDnS4_EEOT_OT0_, symObjAddr: 0x10F38, symBinAddr: 0x100014504, symSize: 0x3C }
  - { offsetInCU: 0x4BBF6, offset: 0x4BBF6, size: 0x8, addend: 0x0, symName: __ZNSt3__117__compressed_pairIP9PredicateNS_9allocatorIS1_EEEC2B8ue170006IDnS4_EEOT_OT0_, symObjAddr: 0x10F74, symBinAddr: 0x100014540, symSize: 0x44 }
  - { offsetInCU: 0x4BC4E, offset: 0x4BC4E, size: 0x8, addend: 0x0, symName: __ZNSt3__122__compressed_pair_elemINS_9allocatorI9PredicateEELi1ELb1EEC2B8ue170006IS3_vEEOT_, symObjAddr: 0x10FB8, symBinAddr: 0x100014584, symSize: 0x18 }
  - { offsetInCU: 0x4BC96, offset: 0x4BC96, size: 0x8, addend: 0x0, symName: __ZNSt3__119__to_address_helperINS_16reverse_iteratorIP4RuleEEvE6__callB8ue170006ERKS4_, symObjAddr: 0x10FD0, symBinAddr: 0x10001459C, symSize: 0x38 }
  - { offsetInCU: 0x4BCB9, offset: 0x4BCB9, size: 0x8, addend: 0x0, symName: __ZNKSt3__116reverse_iteratorIP4RuleEptB8ue170006Ev, symObjAddr: 0x11008, symBinAddr: 0x1000145D4, symSize: 0x24 }
  - { offsetInCU: 0x4BCDF, offset: 0x4BCDF, size: 0x8, addend: 0x0, symName: __ZNSt3__128__exception_guard_exceptionsINS_29_AllocatorDestroyRangeReverseINS_9allocatorI4RuleEENS_16reverse_iteratorIPS3_EEEEED2B8ue170006Ev, symObjAddr: 0x1102C, symBinAddr: 0x1000145F8, symSize: 0x50 }
  - { offsetInCU: 0x4BD09, offset: 0x4BD09, size: 0x8, addend: 0x0, symName: __ZNKSt3__129_AllocatorDestroyRangeReverseINS_9allocatorI4RuleEENS_16reverse_iteratorIPS2_EEEclB8ue170006Ev, symObjAddr: 0x1107C, symBinAddr: 0x100014648, symSize: 0xB4 }
  - { offsetInCU: 0x4BD30, offset: 0x4BD30, size: 0x8, addend: 0x0, symName: __ZNSt3__116reverse_iteratorINS0_IP4RuleEEEC1B8ue170006ES3_, symObjAddr: 0x111A0, symBinAddr: 0x10001476C, symSize: 0x3C }
  - { offsetInCU: 0x4BD68, offset: 0x4BD68, size: 0x8, addend: 0x0, symName: __ZNSt3__116allocator_traitsINS_9allocatorI4RuleEEE7destroyB8ue170006IS2_vEEvRS3_PT_, symObjAddr: 0x1123C, symBinAddr: 0x100014808, symSize: 0x2C }
  - { offsetInCU: 0x4BDA5, offset: 0x4BDA5, size: 0x8, addend: 0x0, symName: __ZNSt3__116reverse_iteratorINS0_IP4RuleEEEppB8ue170006Ev, symObjAddr: 0x1128C, symBinAddr: 0x100014858, symSize: 0x30 }
  - { offsetInCU: 0x4BDCB, offset: 0x4BDCB, size: 0x8, addend: 0x0, symName: __ZNKSt3__116reverse_iteratorINS0_IP4RuleEEE4baseB8ue170006Ev, symObjAddr: 0x112BC, symBinAddr: 0x100014888, symSize: 0x24 }
  - { offsetInCU: 0x4BDF1, offset: 0x4BDF1, size: 0x8, addend: 0x0, symName: __ZNSt3__19allocatorI4RuleE7destroyB8ue170006EPS1_, symObjAddr: 0x112E0, symBinAddr: 0x1000148AC, symSize: 0x28 }
  - { offsetInCU: 0x4BE2B, offset: 0x4BE2B, size: 0x8, addend: 0x0, symName: __ZNSt3__119__to_address_helperINS_16reverse_iteratorINS1_IP4RuleEEEEvE6__callB8ue170006ERKS5_, symObjAddr: 0x11308, symBinAddr: 0x1000148D4, symSize: 0x38 }
  - { offsetInCU: 0x4BE4E, offset: 0x4BE4E, size: 0x8, addend: 0x0, symName: __ZNKSt3__116reverse_iteratorINS0_IP4RuleEEEptB8ue170006Ev, symObjAddr: 0x11340, symBinAddr: 0x10001490C, symSize: 0x24 }
  - { offsetInCU: 0x4BE74, offset: 0x4BE74, size: 0x8, addend: 0x0, symName: __ZNKSt3__116reverse_iteratorINS0_IP4RuleEEEdeB8ue170006Ev, symObjAddr: 0x11364, symBinAddr: 0x100014930, symSize: 0x34 }
  - { offsetInCU: 0x4BEA8, offset: 0x4BEA8, size: 0x8, addend: 0x0, symName: __ZNSt3__116reverse_iteratorIP4RuleEmmB8ue170006Ev, symObjAddr: 0x11398, symBinAddr: 0x100014964, symSize: 0x20 }
  - { offsetInCU: 0x4BECE, offset: 0x4BECE, size: 0x8, addend: 0x0, symName: __ZNSt3__116reverse_iteratorINS0_IP4RuleEEEC2B8ue170006ES3_, symObjAddr: 0x113B8, symBinAddr: 0x100014984, symSize: 0x2C }
  - { offsetInCU: 0x4BF06, offset: 0x4BF06, size: 0x8, addend: 0x0, symName: __ZNSt3__116reverse_iteratorIP4RuleEC2B8ue170006ES2_, symObjAddr: 0x113E4, symBinAddr: 0x1000149B0, symSize: 0x28 }
  - { offsetInCU: 0x4BF3E, offset: 0x4BF3E, size: 0x8, addend: 0x0, symName: __ZNSt3__114__split_bufferI4RuleRNS_9allocatorIS1_EEED2Ev, symObjAddr: 0x1140C, symBinAddr: 0x1000149D8, symSize: 0x8C }
  - { offsetInCU: 0x4BF6A, offset: 0x4BF6A, size: 0x8, addend: 0x0, symName: __ZNSt3__114__split_bufferI4RuleRNS_9allocatorIS1_EEE5clearB8ue170006Ev, symObjAddr: 0x11498, symBinAddr: 0x100014A64, symSize: 0x28 }
  - { offsetInCU: 0x4BF90, offset: 0x4BF90, size: 0x8, addend: 0x0, symName: __ZNSt3__116allocator_traitsINS_9allocatorI4RuleEEE10deallocateB8ue170006ERS3_PS2_m, symObjAddr: 0x114C0, symBinAddr: 0x100014A8C, symSize: 0x34 }
  - { offsetInCU: 0x4BFD2, offset: 0x4BFD2, size: 0x8, addend: 0x0, symName: __ZNKSt3__114__split_bufferI4RuleRNS_9allocatorIS1_EEE8capacityB8ue170006Ev, symObjAddr: 0x114F4, symBinAddr: 0x100014AC0, symSize: 0x40 }
  - { offsetInCU: 0x4BFF8, offset: 0x4BFF8, size: 0x8, addend: 0x0, symName: __ZNSt3__114__split_bufferI4RuleRNS_9allocatorIS1_EEE17__destruct_at_endB8ue170006EPS1_, symObjAddr: 0x11534, symBinAddr: 0x100014B00, symSize: 0x2C }
  - { offsetInCU: 0x4C02C, offset: 0x4C02C, size: 0x8, addend: 0x0, symName: __ZNSt3__114__split_bufferI4RuleRNS_9allocatorIS1_EEE17__destruct_at_endB8ue170006EPS1_NS_17integral_constantIbLb0EEE, symObjAddr: 0x11560, symBinAddr: 0x100014B2C, symSize: 0x80 }
  - { offsetInCU: 0x4C06D, offset: 0x4C06D, size: 0x8, addend: 0x0, symName: __ZNSt3__19allocatorI4RuleE10deallocateB8ue170006EPS1_m, symObjAddr: 0x115E0, symBinAddr: 0x100014BAC, symSize: 0x44 }
  - { offsetInCU: 0x4C0AF, offset: 0x4C0AF, size: 0x8, addend: 0x0, symName: __ZNKSt3__114__split_bufferI4RuleRNS_9allocatorIS1_EEE9__end_capB8ue170006Ev, symObjAddr: 0x11624, symBinAddr: 0x100014BF0, symSize: 0x28 }
  - { offsetInCU: 0x4C0D5, offset: 0x4C0D5, size: 0x8, addend: 0x0, symName: __ZNKSt3__117__compressed_pairIP4RuleRNS_9allocatorIS1_EEE5firstB8ue170006Ev, symObjAddr: 0x1164C, symBinAddr: 0x100014C18, symSize: 0x24 }
  - { offsetInCU: 0x4C0FB, offset: 0x4C0FB, size: 0x8, addend: 0x0, symName: __ZN4RuleC2ERKS_, symObjAddr: 0x11670, symBinAddr: 0x100014C3C, symSize: 0x70 }
  - { offsetInCU: 0x4C130, offset: 0x4C130, size: 0x8, addend: 0x0, symName: __ZNSt3__16vectorI9PredicateNS_9allocatorIS1_EEEC1ERKS4_, symObjAddr: 0x116E0, symBinAddr: 0x100014CAC, symSize: 0x34 }
  - { offsetInCU: 0x4C16B, offset: 0x4C16B, size: 0x8, addend: 0x0, symName: __ZNSt3__16vectorI9PredicateNS_9allocatorIS1_EEEC2ERKS4_, symObjAddr: 0x11714, symBinAddr: 0x100014CE0, symSize: 0x94 }
  - { offsetInCU: 0x4C1A6, offset: 0x4C1A6, size: 0x8, addend: 0x0, symName: __ZNSt3__116allocator_traitsINS_9allocatorI9PredicateEEE37select_on_container_copy_constructionB8ue170006IS3_vvEES3_RKS3_, symObjAddr: 0x117A8, symBinAddr: 0x100014D74, symSize: 0x10 }
  - { offsetInCU: 0x4C1D5, offset: 0x4C1D5, size: 0x8, addend: 0x0, symName: __ZNSt3__16vectorI9PredicateNS_9allocatorIS1_EEE16__init_with_sizeB8ue170006IPS1_S6_EEvT_T0_m, symObjAddr: 0x117B8, symBinAddr: 0x100014D84, symSize: 0xB8 }
  - { offsetInCU: 0x4C249, offset: 0x4C249, size: 0x8, addend: 0x0, symName: __ZNSt3__16vectorI9PredicateNS_9allocatorIS1_EEE16__destroy_vectorC1B8ue170006ERS4_, symObjAddr: 0x118B0, symBinAddr: 0x100014E7C, symSize: 0x34 }
  - { offsetInCU: 0x4C282, offset: 0x4C282, size: 0x8, addend: 0x0, symName: __ZNSt3__16vectorI9PredicateNS_9allocatorIS1_EEE11__vallocateB8ue170006Em, symObjAddr: 0x118E4, symBinAddr: 0x100014EB0, symSize: 0xB4 }
  - { offsetInCU: 0x4C2C6, offset: 0x4C2C6, size: 0x8, addend: 0x0, symName: __ZNSt3__16vectorI9PredicateNS_9allocatorIS1_EEE18__construct_at_endIPS1_S6_EEvT_T0_m, symObjAddr: 0x11998, symBinAddr: 0x100014F64, symSize: 0x8C }
  - { offsetInCU: 0x4C33C, offset: 0x4C33C, size: 0x8, addend: 0x0, symName: __ZNSt3__128__exception_guard_exceptionsINS_6vectorI9PredicateNS_9allocatorIS2_EEE16__destroy_vectorEE10__completeB8ue170006Ev, symObjAddr: 0x11A24, symBinAddr: 0x100014FF0, symSize: 0x1C }
  - { offsetInCU: 0x4C362, offset: 0x4C362, size: 0x8, addend: 0x0, symName: __ZNSt3__128__exception_guard_exceptionsINS_6vectorI9PredicateNS_9allocatorIS2_EEE16__destroy_vectorEED1B8ue170006Ev, symObjAddr: 0x11A40, symBinAddr: 0x10001500C, symSize: 0x2C }
  - { offsetInCU: 0x4C38C, offset: 0x4C38C, size: 0x8, addend: 0x0, symName: __ZNSt3__128__exception_guard_exceptionsINS_6vectorI9PredicateNS_9allocatorIS2_EEE16__destroy_vectorEEC1B8ue170006ES6_, symObjAddr: 0x11A6C, symBinAddr: 0x100015038, symSize: 0x34 }
  - { offsetInCU: 0x4C3C4, offset: 0x4C3C4, size: 0x8, addend: 0x0, symName: __ZNSt3__128__exception_guard_exceptionsINS_6vectorI9PredicateNS_9allocatorIS2_EEE16__destroy_vectorEEC2B8ue170006ES6_, symObjAddr: 0x11AA0, symBinAddr: 0x10001506C, symSize: 0x24 }
  - { offsetInCU: 0x4C3FC, offset: 0x4C3FC, size: 0x8, addend: 0x0, symName: __ZNSt3__16vectorI9PredicateNS_9allocatorIS1_EEE16__destroy_vectorC2B8ue170006ERS4_, symObjAddr: 0x11AC4, symBinAddr: 0x100015090, symSize: 0x20 }
  - { offsetInCU: 0x4C458, offset: 0x4C458, size: 0x8, addend: 0x0, symName: __ZNSt3__14pairIP9PredicateS2_EC1B8ue170006IS2_S2_LPv0EEEOT_OT0_, symObjAddr: 0x11D50, symBinAddr: 0x10001531C, symSize: 0x3C }
  - { offsetInCU: 0x4C4B6, offset: 0x4C4B6, size: 0x8, addend: 0x0, symName: __ZNSt3__14pairIP9PredicateS2_EC2B8ue170006IS2_S2_LPv0EEEOT_OT0_, symObjAddr: 0x11D8C, symBinAddr: 0x100015358, symSize: 0x34 }
  - { offsetInCU: 0x4C514, offset: 0x4C514, size: 0x8, addend: 0x0, symName: __ZNSt3__129_AllocatorDestroyRangeReverseINS_9allocatorI9PredicateEEPS2_EC1B8ue170006ERS3_RS4_S7_, symObjAddr: 0x11E0C, symBinAddr: 0x1000153D8, symSize: 0x44 }
  - { offsetInCU: 0x4C56B, offset: 0x4C56B, size: 0x8, addend: 0x0, symName: __ZNSt3__116allocator_traitsINS_9allocatorI9PredicateEEE9constructB8ue170006IS2_JRS2_EvEEvRS3_PT_DpOT0_, symObjAddr: 0x11E50, symBinAddr: 0x10001541C, symSize: 0x34 }
  - { offsetInCU: 0x4C5C2, offset: 0x4C5C2, size: 0x8, addend: 0x0, symName: __ZNSt3__128__exception_guard_exceptionsINS_29_AllocatorDestroyRangeReverseINS_9allocatorI9PredicateEEPS3_EEE10__completeB8ue170006Ev, symObjAddr: 0x11E84, symBinAddr: 0x100015450, symSize: 0x1C }
  - { offsetInCU: 0x4C5E8, offset: 0x4C5E8, size: 0x8, addend: 0x0, symName: __ZNSt3__128__exception_guard_exceptionsINS_29_AllocatorDestroyRangeReverseINS_9allocatorI9PredicateEEPS3_EEED1B8ue170006Ev, symObjAddr: 0x11EA0, symBinAddr: 0x10001546C, symSize: 0x2C }
  - { offsetInCU: 0x4C612, offset: 0x4C612, size: 0x8, addend: 0x0, symName: __ZNSt3__128__exception_guard_exceptionsINS_29_AllocatorDestroyRangeReverseINS_9allocatorI9PredicateEEPS3_EEEC1B8ue170006ES6_, symObjAddr: 0x11ECC, symBinAddr: 0x100015498, symSize: 0x34 }
  - { offsetInCU: 0x4C64B, offset: 0x4C64B, size: 0x8, addend: 0x0, symName: __ZNSt3__128__exception_guard_exceptionsINS_29_AllocatorDestroyRangeReverseINS_9allocatorI9PredicateEEPS3_EEEC2B8ue170006ES6_, symObjAddr: 0x11F00, symBinAddr: 0x1000154CC, symSize: 0x30 }
  - { offsetInCU: 0x4C684, offset: 0x4C684, size: 0x8, addend: 0x0, symName: __ZNSt3__129_AllocatorDestroyRangeReverseINS_9allocatorI9PredicateEEPS2_EC2B8ue170006ERS3_RS4_S7_, symObjAddr: 0x11F30, symBinAddr: 0x1000154FC, symSize: 0x38 }
  - { offsetInCU: 0x4C6DB, offset: 0x4C6DB, size: 0x8, addend: 0x0, symName: __ZNSt3__19allocatorI9PredicateE9constructB8ue170006IS1_JRS1_EEEvPT_DpOT0_, symObjAddr: 0x11F68, symBinAddr: 0x100015534, symSize: 0x30 }
  - { offsetInCU: 0x4C731, offset: 0x4C731, size: 0x8, addend: 0x0, symName: __ZNSt3__128__exception_guard_exceptionsINS_29_AllocatorDestroyRangeReverseINS_9allocatorI9PredicateEEPS3_EEED2B8ue170006Ev, symObjAddr: 0x11F98, symBinAddr: 0x100015564, symSize: 0x50 }
  - { offsetInCU: 0x4C75B, offset: 0x4C75B, size: 0x8, addend: 0x0, symName: __ZNKSt3__129_AllocatorDestroyRangeReverseINS_9allocatorI9PredicateEEPS2_EclB8ue170006Ev, symObjAddr: 0x11FE8, symBinAddr: 0x1000155B4, symSize: 0x68 }
  - { offsetInCU: 0x4C781, offset: 0x4C781, size: 0x8, addend: 0x0, symName: __ZNSt3__118__unwrap_iter_implIP9PredicateLb1EE8__unwrapB8ue170006ES2_, symObjAddr: 0x120C0, symBinAddr: 0x10001568C, symSize: 0x24 }
  - { offsetInCU: 0x4C7A4, offset: 0x4C7A4, size: 0x8, addend: 0x0, symName: __ZNSt3__118__unwrap_iter_implIP9PredicateLb1EE8__rewrapB8ue170006ES2_S2_, symObjAddr: 0x120E4, symBinAddr: 0x1000156B0, symSize: 0x58 }
  - { offsetInCU: 0x4C7D5, offset: 0x4C7D5, size: 0x8, addend: 0x0, symName: __ZNSt3__128__exception_guard_exceptionsINS_6vectorI9PredicateNS_9allocatorIS2_EEE16__destroy_vectorEED2B8ue170006Ev, symObjAddr: 0x1213C, symBinAddr: 0x100015708, symSize: 0x50 }
  - { offsetInCU: 0x4C7FF, offset: 0x4C7FF, size: 0x8, addend: 0x0, symName: __ZNSt3__16vectorI9PredicateNS_9allocatorIS1_EEE16__destroy_vectorclB8ue170006Ev, symObjAddr: 0x1218C, symBinAddr: 0x100015758, symSize: 0x90 }
  - { offsetInCU: 0x4C825, offset: 0x4C825, size: 0x8, addend: 0x0, symName: __ZNSt3__16vectorI9PredicateNS_9allocatorIS1_EEE7__clearB8ue170006Ev, symObjAddr: 0x1221C, symBinAddr: 0x1000157E8, symSize: 0x28 }
  - { offsetInCU: 0x4C84B, offset: 0x4C84B, size: 0x8, addend: 0x0, symName: __ZNSt3__16vectorI9PredicateNS_9allocatorIS1_EEE22__base_destruct_at_endB8ue170006EPS1_, symObjAddr: 0x12244, symBinAddr: 0x100015810, symSize: 0x8C }
  - { offsetInCU: 0x4C88F, offset: 0x4C88F, size: 0x8, addend: 0x0, symName: __ZN4RuleD2Ev, symObjAddr: 0x122D0, symBinAddr: 0x10001589C, symSize: 0x38 }
  - { offsetInCU: 0x4C8BB, offset: 0x4C8BB, size: 0x8, addend: 0x0, symName: __ZNSt3__16vectorI9PredicateNS_9allocatorIS1_EEED1B8ue170006Ev, symObjAddr: 0x12308, symBinAddr: 0x1000158D4, symSize: 0x2C }
  - { offsetInCU: 0x4C8E5, offset: 0x4C8E5, size: 0x8, addend: 0x0, symName: __ZNSt3__16vectorI9PredicateNS_9allocatorIS1_EEED2B8ue170006Ev, symObjAddr: 0x12334, symBinAddr: 0x100015900, symSize: 0x40 }
  - { offsetInCU: 0x4C90F, offset: 0x4C90F, size: 0x8, addend: 0x0, symName: __ZN6Parser9predicateEv, symObjAddr: 0x12374, symBinAddr: 0x100015940, symSize: 0x270 }
  - { offsetInCU: 0x4C959, offset: 0x4C959, size: 0x8, addend: 0x0, symName: __ZN14DatalogProgram8addQueryE9Predicate, symObjAddr: 0x125E4, symBinAddr: 0x100015BB0, symSize: 0x30 }
  - { offsetInCU: 0x4C98E, offset: 0x4C98E, size: 0x8, addend: 0x0, symName: __ZNK5Token8toStringEv, symObjAddr: 0x12614, symBinAddr: 0x100015BE0, symSize: 0x184 }
  - { offsetInCU: 0x4C9C3, offset: 0x4C9C3, size: 0x8, addend: 0x0, symName: __ZNK5Token8typeNameE9TokenType, symObjAddr: 0x12798, symBinAddr: 0x100015D64, symSize: 0x1D8 }
  - { offsetInCU: 0x4C9F7, offset: 0x4C9F7, size: 0x8, addend: 0x0, symName: __ZN14DatalogProgramC2ERKS_, symObjAddr: 0x129BC, symBinAddr: 0x100015F88, symSize: 0x118 }
  - { offsetInCU: 0x4CA2C, offset: 0x4CA2C, size: 0x8, addend: 0x0, symName: __ZNSt3__16vectorI4RuleNS_9allocatorIS1_EEEC1ERKS4_, symObjAddr: 0x12AD4, symBinAddr: 0x1000160A0, symSize: 0x34 }
  - { offsetInCU: 0x4CA67, offset: 0x4CA67, size: 0x8, addend: 0x0, symName: __ZNSt3__13setINS_12basic_stringIcNS_11char_traitsIcEENS_9allocatorIcEEEENS_4lessIS6_EENS4_IS6_EEEC1B8ue170006ERKSA_, symObjAddr: 0x12B08, symBinAddr: 0x1000160D4, symSize: 0x34 }
  - { offsetInCU: 0x4CAA0, offset: 0x4CAA0, size: 0x8, addend: 0x0, symName: __ZNSt3__16vectorI4RuleNS_9allocatorIS1_EEEC2ERKS4_, symObjAddr: 0x12B3C, symBinAddr: 0x100016108, symSize: 0x94 }
  - { offsetInCU: 0x4CADB, offset: 0x4CADB, size: 0x8, addend: 0x0, symName: __ZNSt3__116allocator_traitsINS_9allocatorI4RuleEEE37select_on_container_copy_constructionB8ue170006IS3_vvEES3_RKS3_, symObjAddr: 0x12BD0, symBinAddr: 0x10001619C, symSize: 0x10 }
  - { offsetInCU: 0x4CB10, offset: 0x4CB10, size: 0x8, addend: 0x0, symName: __ZNSt3__117__compressed_pairIP4RuleNS_9allocatorIS1_EEEC1B8ue170006IDnS4_EEOT_OT0_, symObjAddr: 0x12BE0, symBinAddr: 0x1000161AC, symSize: 0x3C }
  - { offsetInCU: 0x4CB68, offset: 0x4CB68, size: 0x8, addend: 0x0, symName: __ZNSt3__16vectorI4RuleNS_9allocatorIS1_EEE16__init_with_sizeB8ue170006IPS1_S6_EEvT_T0_m, symObjAddr: 0x12C1C, symBinAddr: 0x1000161E8, symSize: 0xB8 }
  - { offsetInCU: 0x4CBDC, offset: 0x4CBDC, size: 0x8, addend: 0x0, symName: __ZNSt3__117__compressed_pairIP4RuleNS_9allocatorIS1_EEEC2B8ue170006IDnS4_EEOT_OT0_, symObjAddr: 0x12CD4, symBinAddr: 0x1000162A0, symSize: 0x44 }
  - { offsetInCU: 0x4CC34, offset: 0x4CC34, size: 0x8, addend: 0x0, symName: __ZNSt3__122__compressed_pair_elemINS_9allocatorI4RuleEELi1ELb1EEC2B8ue170006IS3_vEEOT_, symObjAddr: 0x12D18, symBinAddr: 0x1000162E4, symSize: 0x18 }
  - { offsetInCU: 0x4CC76, offset: 0x4CC76, size: 0x8, addend: 0x0, symName: __ZNSt3__16vectorI4RuleNS_9allocatorIS1_EEE16__destroy_vectorC1B8ue170006ERS4_, symObjAddr: 0x12D70, symBinAddr: 0x10001633C, symSize: 0x34 }
  - { offsetInCU: 0x4CCAF, offset: 0x4CCAF, size: 0x8, addend: 0x0, symName: __ZNSt3__16vectorI4RuleNS_9allocatorIS1_EEE11__vallocateB8ue170006Em, symObjAddr: 0x12DA4, symBinAddr: 0x100016370, symSize: 0xB4 }
  - { offsetInCU: 0x4CCF3, offset: 0x4CCF3, size: 0x8, addend: 0x0, symName: __ZNSt3__16vectorI4RuleNS_9allocatorIS1_EEE18__construct_at_endIPS1_S6_EEvT_T0_m, symObjAddr: 0x12E58, symBinAddr: 0x100016424, symSize: 0x8C }
  - { offsetInCU: 0x4CD69, offset: 0x4CD69, size: 0x8, addend: 0x0, symName: __ZNSt3__128__exception_guard_exceptionsINS_6vectorI4RuleNS_9allocatorIS2_EEE16__destroy_vectorEE10__completeB8ue170006Ev, symObjAddr: 0x12EE4, symBinAddr: 0x1000164B0, symSize: 0x1C }
  - { offsetInCU: 0x4CD8F, offset: 0x4CD8F, size: 0x8, addend: 0x0, symName: __ZNSt3__128__exception_guard_exceptionsINS_6vectorI4RuleNS_9allocatorIS2_EEE16__destroy_vectorEED1B8ue170006Ev, symObjAddr: 0x12F00, symBinAddr: 0x1000164CC, symSize: 0x2C }
  - { offsetInCU: 0x4CDB9, offset: 0x4CDB9, size: 0x8, addend: 0x0, symName: __ZNSt3__128__exception_guard_exceptionsINS_6vectorI4RuleNS_9allocatorIS2_EEE16__destroy_vectorEEC1B8ue170006ES6_, symObjAddr: 0x12F2C, symBinAddr: 0x1000164F8, symSize: 0x34 }
  - { offsetInCU: 0x4CDF1, offset: 0x4CDF1, size: 0x8, addend: 0x0, symName: __ZNSt3__128__exception_guard_exceptionsINS_6vectorI4RuleNS_9allocatorIS2_EEE16__destroy_vectorEEC2B8ue170006ES6_, symObjAddr: 0x12F60, symBinAddr: 0x10001652C, symSize: 0x24 }
  - { offsetInCU: 0x4CE29, offset: 0x4CE29, size: 0x8, addend: 0x0, symName: __ZNSt3__16vectorI4RuleNS_9allocatorIS1_EEE16__destroy_vectorC2B8ue170006ERS4_, symObjAddr: 0x12F84, symBinAddr: 0x100016550, symSize: 0x20 }
  - { offsetInCU: 0x4CE85, offset: 0x4CE85, size: 0x8, addend: 0x0, symName: __ZNSt3__14pairIP4RuleS2_EC1B8ue170006IS2_S2_LPv0EEEOT_OT0_, symObjAddr: 0x13210, symBinAddr: 0x1000167DC, symSize: 0x3C }
  - { offsetInCU: 0x4CEE3, offset: 0x4CEE3, size: 0x8, addend: 0x0, symName: __ZNSt3__14pairIP4RuleS2_EC2B8ue170006IS2_S2_LPv0EEEOT_OT0_, symObjAddr: 0x1324C, symBinAddr: 0x100016818, symSize: 0x34 }
  - { offsetInCU: 0x4CF41, offset: 0x4CF41, size: 0x8, addend: 0x0, symName: __ZNSt3__129_AllocatorDestroyRangeReverseINS_9allocatorI4RuleEEPS2_EC1B8ue170006ERS3_RS4_S7_, symObjAddr: 0x132CC, symBinAddr: 0x100016898, symSize: 0x44 }
  - { offsetInCU: 0x4CF98, offset: 0x4CF98, size: 0x8, addend: 0x0, symName: __ZNSt3__116allocator_traitsINS_9allocatorI4RuleEEE9constructB8ue170006IS2_JRS2_EvEEvRS3_PT_DpOT0_, symObjAddr: 0x13310, symBinAddr: 0x1000168DC, symSize: 0x34 }
  - { offsetInCU: 0x4CFEF, offset: 0x4CFEF, size: 0x8, addend: 0x0, symName: __ZNSt3__128__exception_guard_exceptionsINS_29_AllocatorDestroyRangeReverseINS_9allocatorI4RuleEEPS3_EEE10__completeB8ue170006Ev, symObjAddr: 0x13344, symBinAddr: 0x100016910, symSize: 0x1C }
  - { offsetInCU: 0x4D015, offset: 0x4D015, size: 0x8, addend: 0x0, symName: __ZNSt3__128__exception_guard_exceptionsINS_29_AllocatorDestroyRangeReverseINS_9allocatorI4RuleEEPS3_EEED1B8ue170006Ev, symObjAddr: 0x13360, symBinAddr: 0x10001692C, symSize: 0x2C }
  - { offsetInCU: 0x4D03F, offset: 0x4D03F, size: 0x8, addend: 0x0, symName: __ZNSt3__128__exception_guard_exceptionsINS_29_AllocatorDestroyRangeReverseINS_9allocatorI4RuleEEPS3_EEEC1B8ue170006ES6_, symObjAddr: 0x1338C, symBinAddr: 0x100016958, symSize: 0x34 }
  - { offsetInCU: 0x4D078, offset: 0x4D078, size: 0x8, addend: 0x0, symName: __ZNSt3__128__exception_guard_exceptionsINS_29_AllocatorDestroyRangeReverseINS_9allocatorI4RuleEEPS3_EEEC2B8ue170006ES6_, symObjAddr: 0x133C0, symBinAddr: 0x10001698C, symSize: 0x30 }
  - { offsetInCU: 0x4D0B1, offset: 0x4D0B1, size: 0x8, addend: 0x0, symName: __ZNSt3__129_AllocatorDestroyRangeReverseINS_9allocatorI4RuleEEPS2_EC2B8ue170006ERS3_RS4_S7_, symObjAddr: 0x133F0, symBinAddr: 0x1000169BC, symSize: 0x38 }
  - { offsetInCU: 0x4D108, offset: 0x4D108, size: 0x8, addend: 0x0, symName: __ZNSt3__19allocatorI4RuleE9constructB8ue170006IS1_JRS1_EEEvPT_DpOT0_, symObjAddr: 0x13428, symBinAddr: 0x1000169F4, symSize: 0x30 }
  - { offsetInCU: 0x4D15E, offset: 0x4D15E, size: 0x8, addend: 0x0, symName: __ZNSt3__128__exception_guard_exceptionsINS_29_AllocatorDestroyRangeReverseINS_9allocatorI4RuleEEPS3_EEED2B8ue170006Ev, symObjAddr: 0x13458, symBinAddr: 0x100016A24, symSize: 0x50 }
  - { offsetInCU: 0x4D188, offset: 0x4D188, size: 0x8, addend: 0x0, symName: __ZNKSt3__129_AllocatorDestroyRangeReverseINS_9allocatorI4RuleEEPS2_EclB8ue170006Ev, symObjAddr: 0x134A8, symBinAddr: 0x100016A74, symSize: 0x68 }
  - { offsetInCU: 0x4D1AE, offset: 0x4D1AE, size: 0x8, addend: 0x0, symName: __ZNSt3__118__unwrap_iter_implIP4RuleLb1EE8__unwrapB8ue170006ES2_, symObjAddr: 0x13580, symBinAddr: 0x100016B4C, symSize: 0x24 }
  - { offsetInCU: 0x4D1D1, offset: 0x4D1D1, size: 0x8, addend: 0x0, symName: __ZNSt3__118__unwrap_iter_implIP4RuleLb1EE8__rewrapB8ue170006ES2_S2_, symObjAddr: 0x135A4, symBinAddr: 0x100016B70, symSize: 0x58 }
  - { offsetInCU: 0x4D202, offset: 0x4D202, size: 0x8, addend: 0x0, symName: __ZNSt3__128__exception_guard_exceptionsINS_6vectorI4RuleNS_9allocatorIS2_EEE16__destroy_vectorEED2B8ue170006Ev, symObjAddr: 0x135FC, symBinAddr: 0x100016BC8, symSize: 0x50 }
  - { offsetInCU: 0x4D22C, offset: 0x4D22C, size: 0x8, addend: 0x0, symName: __ZNSt3__16vectorI4RuleNS_9allocatorIS1_EEE16__destroy_vectorclB8ue170006Ev, symObjAddr: 0x1364C, symBinAddr: 0x100016C18, symSize: 0x90 }
  - { offsetInCU: 0x4D252, offset: 0x4D252, size: 0x8, addend: 0x0, symName: __ZNSt3__16vectorI4RuleNS_9allocatorIS1_EEE7__clearB8ue170006Ev, symObjAddr: 0x136DC, symBinAddr: 0x100016CA8, symSize: 0x28 }
  - { offsetInCU: 0x4D278, offset: 0x4D278, size: 0x8, addend: 0x0, symName: __ZNSt3__16vectorI4RuleNS_9allocatorIS1_EEE22__base_destruct_at_endB8ue170006EPS1_, symObjAddr: 0x13704, symBinAddr: 0x100016CD0, symSize: 0x8C }
  - { offsetInCU: 0x4D2BC, offset: 0x4D2BC, size: 0x8, addend: 0x0, symName: __ZNSt3__13setINS_12basic_stringIcNS_11char_traitsIcEENS_9allocatorIcEEEENS_4lessIS6_EENS4_IS6_EEEC2B8ue170006ERKSA_, symObjAddr: 0x13790, symBinAddr: 0x100016D5C, symSize: 0x88 }
  - { offsetInCU: 0x4D2F5, offset: 0x4D2F5, size: 0x8, addend: 0x0, symName: __ZNSt3__16__treeINS_12basic_stringIcNS_11char_traitsIcEENS_9allocatorIcEEEENS_4lessIS6_EENS4_IS6_EEEC1ERKSA_, symObjAddr: 0x13818, symBinAddr: 0x100016DE4, symSize: 0x34 }
  - { offsetInCU: 0x4D330, offset: 0x4D330, size: 0x8, addend: 0x0, symName: __ZNSt3__13setINS_12basic_stringIcNS_11char_traitsIcEENS_9allocatorIcEEEENS_4lessIS6_EENS4_IS6_EEE6insertB8ue170006INS_21__tree_const_iteratorIS6_PNS_11__tree_nodeIS6_PvEElEEEEvT_SI_, symObjAddr: 0x1384C, symBinAddr: 0x100016E18, symSize: 0x80 }
  - { offsetInCU: 0x4D39A, offset: 0x4D39A, size: 0x8, addend: 0x0, symName: __ZNKSt3__13setINS_12basic_stringIcNS_11char_traitsIcEENS_9allocatorIcEEEENS_4lessIS6_EENS4_IS6_EEE5beginB8ue170006Ev, symObjAddr: 0x138CC, symBinAddr: 0x100016E98, symSize: 0x2C }
  - { offsetInCU: 0x4D3C0, offset: 0x4D3C0, size: 0x8, addend: 0x0, symName: __ZNKSt3__13setINS_12basic_stringIcNS_11char_traitsIcEENS_9allocatorIcEEEENS_4lessIS6_EENS4_IS6_EEE3endB8ue170006Ev, symObjAddr: 0x138F8, symBinAddr: 0x100016EC4, symSize: 0x2C }
  - { offsetInCU: 0x4D3E6, offset: 0x4D3E6, size: 0x8, addend: 0x0, symName: __ZNSt3__16__treeINS_12basic_stringIcNS_11char_traitsIcEENS_9allocatorIcEEEENS_4lessIS6_EENS4_IS6_EEED1Ev, symObjAddr: 0x13924, symBinAddr: 0x100016EF0, symSize: 0x2C }
  - { offsetInCU: 0x4D412, offset: 0x4D412, size: 0x8, addend: 0x0, symName: __ZNSt3__16__treeINS_12basic_stringIcNS_11char_traitsIcEENS_9allocatorIcEEEENS_4lessIS6_EENS4_IS6_EEEC2ERKSA_, symObjAddr: 0x13950, symBinAddr: 0x100016F1C, symSize: 0x9C }
  - { offsetInCU: 0x4D44D, offset: 0x4D44D, size: 0x8, addend: 0x0, symName: __ZNSt3__116allocator_traitsINS_9allocatorINS_11__tree_nodeINS_12basic_stringIcNS_11char_traitsIcEENS1_IcEEEEPvEEEEE37select_on_container_copy_constructionB8ue170006ISA_vvEESA_RKSA_, symObjAddr: 0x139EC, symBinAddr: 0x100016FB8, symSize: 0x10 }
  - { offsetInCU: 0x4D47C, offset: 0x4D47C, size: 0x8, addend: 0x0, symName: __ZNKSt3__16__treeINS_12basic_stringIcNS_11char_traitsIcEENS_9allocatorIcEEEENS_4lessIS6_EENS4_IS6_EEE12__node_allocB8ue170006Ev, symObjAddr: 0x139FC, symBinAddr: 0x100016FC8, symSize: 0x28 }
  - { offsetInCU: 0x4D4A8, offset: 0x4D4A8, size: 0x8, addend: 0x0, symName: __ZNSt3__117__compressed_pairINS_15__tree_end_nodeIPNS_16__tree_node_baseIPvEEEENS_9allocatorINS_11__tree_nodeINS_12basic_stringIcNS_11char_traitsIcEENS7_IcEEEES3_EEEEEC1B8ue170006INS_18__default_init_tagESF_EEOT_OT0_, symObjAddr: 0x13A24, symBinAddr: 0x100016FF0, symSize: 0x3C }
  - { offsetInCU: 0x4D500, offset: 0x4D500, size: 0x8, addend: 0x0, symName: __ZNKSt3__16__treeINS_12basic_stringIcNS_11char_traitsIcEENS_9allocatorIcEEEENS_4lessIS6_EENS4_IS6_EEE10value_compB8ue170006Ev, symObjAddr: 0x13A60, symBinAddr: 0x10001702C, symSize: 0x28 }
  - { offsetInCU: 0x4D526, offset: 0x4D526, size: 0x8, addend: 0x0, symName: __ZNKSt3__117__compressed_pairINS_15__tree_end_nodeIPNS_16__tree_node_baseIPvEEEENS_9allocatorINS_11__tree_nodeINS_12basic_stringIcNS_11char_traitsIcEENS7_IcEEEES3_EEEEE6secondB8ue170006Ev, symObjAddr: 0x13A88, symBinAddr: 0x100017054, symSize: 0x24 }
  - { offsetInCU: 0x4D54C, offset: 0x4D54C, size: 0x8, addend: 0x0, symName: __ZNKSt3__122__compressed_pair_elemINS_9allocatorINS_11__tree_nodeINS_12basic_stringIcNS_11char_traitsIcEENS1_IcEEEEPvEEEELi1ELb1EE5__getB8ue170006Ev, symObjAddr: 0x13AAC, symBinAddr: 0x100017078, symSize: 0x14 }
  - { offsetInCU: 0x4D572, offset: 0x4D572, size: 0x8, addend: 0x0, symName: __ZNSt3__117__compressed_pairINS_15__tree_end_nodeIPNS_16__tree_node_baseIPvEEEENS_9allocatorINS_11__tree_nodeINS_12basic_stringIcNS_11char_traitsIcEENS7_IcEEEES3_EEEEEC2B8ue170006INS_18__default_init_tagESF_EEOT_OT0_, symObjAddr: 0x13AC0, symBinAddr: 0x10001708C, symSize: 0x40 }
  - { offsetInCU: 0x4D5CA, offset: 0x4D5CA, size: 0x8, addend: 0x0, symName: __ZNSt3__122__compressed_pair_elemINS_15__tree_end_nodeIPNS_16__tree_node_baseIPvEEEELi0ELb0EEC2B8ue170006ENS_18__default_init_tagE, symObjAddr: 0x13B00, symBinAddr: 0x1000170CC, symSize: 0x2C }
  - { offsetInCU: 0x4D5FF, offset: 0x4D5FF, size: 0x8, addend: 0x0, symName: __ZNSt3__122__compressed_pair_elemINS_9allocatorINS_11__tree_nodeINS_12basic_stringIcNS_11char_traitsIcEENS1_IcEEEEPvEEEELi1ELb1EEC2B8ue170006ISA_vEEOT_, symObjAddr: 0x13B2C, symBinAddr: 0x1000170F8, symSize: 0x18 }
  - { offsetInCU: 0x4D641, offset: 0x4D641, size: 0x8, addend: 0x0, symName: __ZNKSt3__117__compressed_pairImNS_4lessINS_12basic_stringIcNS_11char_traitsIcEENS_9allocatorIcEEEEEEE6secondB8ue170006Ev, symObjAddr: 0x13B44, symBinAddr: 0x100017110, symSize: 0x24 }
  - { offsetInCU: 0x4D667, offset: 0x4D667, size: 0x8, addend: 0x0, symName: __ZNKSt3__122__compressed_pair_elemINS_4lessINS_12basic_stringIcNS_11char_traitsIcEENS_9allocatorIcEEEEEELi1ELb1EE5__getB8ue170006Ev, symObjAddr: 0x13B68, symBinAddr: 0x100017134, symSize: 0x14 }
  - { offsetInCU: 0x4D68D, offset: 0x4D68D, size: 0x8, addend: 0x0, symName: __ZNKSt3__13setINS_12basic_stringIcNS_11char_traitsIcEENS_9allocatorIcEEEENS_4lessIS6_EENS4_IS6_EEE4cendB8ue170006Ev, symObjAddr: 0x13B7C, symBinAddr: 0x100017148, symSize: 0x2C }
  - { offsetInCU: 0x4D6B3, offset: 0x4D6B3, size: 0x8, addend: 0x0, symName: __ZNSt3__16__treeINS_12basic_stringIcNS_11char_traitsIcEENS_9allocatorIcEEEENS_4lessIS6_EENS4_IS6_EEE15__insert_uniqueB8ue170006ENS_21__tree_const_iteratorIS6_PNS_11__tree_nodeIS6_PvEElEERKS6_, symObjAddr: 0x13BDC, symBinAddr: 0x1000171A8, symSize: 0x64 }
  - { offsetInCU: 0x4D6F7, offset: 0x4D6F7, size: 0x8, addend: 0x0, symName: __ZNKSt3__121__tree_const_iteratorINS_12basic_stringIcNS_11char_traitsIcEENS_9allocatorIcEEEEPNS_11__tree_nodeIS6_PvEElEdeB8ue170006Ev, symObjAddr: 0x13C40, symBinAddr: 0x10001720C, symSize: 0x28 }
  - { offsetInCU: 0x4D71D, offset: 0x4D71D, size: 0x8, addend: 0x0, symName: __ZNSt3__121__tree_const_iteratorINS_12basic_stringIcNS_11char_traitsIcEENS_9allocatorIcEEEEPNS_11__tree_nodeIS6_PvEElEppB8ue170006Ev, symObjAddr: 0x13C68, symBinAddr: 0x100017234, symSize: 0x38 }
  - { offsetInCU: 0x4D743, offset: 0x4D743, size: 0x8, addend: 0x0, symName: __ZNSt3__16__treeINS_12basic_stringIcNS_11char_traitsIcEENS_9allocatorIcEEEENS_4lessIS6_EENS4_IS6_EEE30__emplace_hint_unique_key_argsIS6_JRKS6_EEENS_4pairINS_15__tree_iteratorIS6_PNS_11__tree_nodeIS6_PvEElEEbEENS_21__tree_const_iteratorIS6_SJ_lEERKT_DpOT0_, symObjAddr: 0x13CD0, symBinAddr: 0x10001729C, symSize: 0x104 }
  - { offsetInCU: 0x4D80F, offset: 0x4D80F, size: 0x8, addend: 0x0, symName: __ZNSt3__16__treeINS_12basic_stringIcNS_11char_traitsIcEENS_9allocatorIcEEEENS_4lessIS6_EENS4_IS6_EEE12__find_equalIS6_EERPNS_16__tree_node_baseIPvEENS_21__tree_const_iteratorIS6_PNS_11__tree_nodeIS6_SD_EElEERPNS_15__tree_end_nodeISF_EESG_RKT_, symObjAddr: 0x13DD4, symBinAddr: 0x1000173A0, symSize: 0x304 }
  - { offsetInCU: 0x4D8B8, offset: 0x4D8B8, size: 0x8, addend: 0x0, symName: __ZNSt3__16__treeINS_12basic_stringIcNS_11char_traitsIcEENS_9allocatorIcEEEENS_4lessIS6_EENS4_IS6_EEE16__construct_nodeIJRKS6_EEENS_10unique_ptrINS_11__tree_nodeIS6_PvEENS_22__tree_node_destructorINS4_ISH_EEEEEEDpOT_, symObjAddr: 0x140D8, symBinAddr: 0x1000176A4, symSize: 0x108 }
  - { offsetInCU: 0x4D919, offset: 0x4D919, size: 0x8, addend: 0x0, symName: __ZNSt3__16__treeINS_12basic_stringIcNS_11char_traitsIcEENS_9allocatorIcEEEENS_4lessIS6_EENS4_IS6_EEE3endB8ue170006Ev, symObjAddr: 0x141E0, symBinAddr: 0x1000177AC, symSize: 0x34 }
  - { offsetInCU: 0x4D93F, offset: 0x4D93F, size: 0x8, addend: 0x0, symName: __ZNSt3__16__treeINS_12basic_stringIcNS_11char_traitsIcEENS_9allocatorIcEEEENS_4lessIS6_EENS4_IS6_EEE5beginB8ue170006Ev, symObjAddr: 0x14214, symBinAddr: 0x1000177E0, symSize: 0x34 }
  - { offsetInCU: 0x4D965, offset: 0x4D965, size: 0x8, addend: 0x0, symName: __ZNSt3__121__tree_const_iteratorINS_12basic_stringIcNS_11char_traitsIcEENS_9allocatorIcEEEEPNS_11__tree_nodeIS6_PvEElEmmB8ue170006Ev, symObjAddr: 0x14248, symBinAddr: 0x100017814, symSize: 0x38 }
  - { offsetInCU: 0x4D98B, offset: 0x4D98B, size: 0x8, addend: 0x0, symName: __ZNKSt3__121__tree_const_iteratorINS_12basic_stringIcNS_11char_traitsIcEENS_9allocatorIcEEEEPNS_11__tree_nodeIS6_PvEElE8__get_npB8ue170006Ev, symObjAddr: 0x142BC, symBinAddr: 0x100017888, symSize: 0x18 }
  - { offsetInCU: 0x4D9B1, offset: 0x4D9B1, size: 0x8, addend: 0x0, symName: __ZNSt3__115__tree_iteratorINS_12basic_stringIcNS_11char_traitsIcEENS_9allocatorIcEEEEPNS_11__tree_nodeIS6_PvEElEC1B8ue170006EPNS_15__tree_end_nodeIPNS_16__tree_node_baseIS8_EEEE, symObjAddr: 0x142D4, symBinAddr: 0x1000178A0, symSize: 0x34 }
  - { offsetInCU: 0x4D9EA, offset: 0x4D9EA, size: 0x8, addend: 0x0, symName: __ZNSt3__115__tree_iteratorINS_12basic_stringIcNS_11char_traitsIcEENS_9allocatorIcEEEEPNS_11__tree_nodeIS6_PvEElEC2B8ue170006EPNS_15__tree_end_nodeIPNS_16__tree_node_baseIS8_EEEE, symObjAddr: 0x14308, symBinAddr: 0x1000178D4, symSize: 0x20 }
  - { offsetInCU: 0x4DA23, offset: 0x4DA23, size: 0x8, addend: 0x0, symName: __ZNSt3__116allocator_traitsINS_9allocatorINS_11__tree_nodeINS_12basic_stringIcNS_11char_traitsIcEENS1_IcEEEEPvEEEEE9constructB8ue170006IS7_JRKS7_EvEEvRSA_PT_DpOT0_, symObjAddr: 0x144CC, symBinAddr: 0x100017A98, symSize: 0x34 }
  - { offsetInCU: 0x4DA7A, offset: 0x4DA7A, size: 0x8, addend: 0x0, symName: __ZNSt3__19allocatorINS_11__tree_nodeINS_12basic_stringIcNS_11char_traitsIcEENS0_IcEEEEPvEEE9constructB8ue170006IS6_JRKS6_EEEvPT_DpOT0_, symObjAddr: 0x14500, symBinAddr: 0x100017ACC, symSize: 0x30 }
  - { offsetInCU: 0x4DAD0, offset: 0x4DAD0, size: 0x8, addend: 0x0, symName: __ZNKSt3__16__treeINS_12basic_stringIcNS_11char_traitsIcEENS_9allocatorIcEEEENS_4lessIS6_EENS4_IS6_EEE5beginB8ue170006Ev, symObjAddr: 0x145F0, symBinAddr: 0x100017BBC, symSize: 0x34 }
  - { offsetInCU: 0x4DAF6, offset: 0x4DAF6, size: 0x8, addend: 0x0, symName: __ZNKSt3__16__treeINS_12basic_stringIcNS_11char_traitsIcEENS_9allocatorIcEEEENS_4lessIS6_EENS4_IS6_EEE12__begin_nodeB8ue170006Ev, symObjAddr: 0x14624, symBinAddr: 0x100017BF0, symSize: 0x14 }
  - { offsetInCU: 0x4DB1C, offset: 0x4DB1C, size: 0x8, addend: 0x0, symName: __ZNSt3__121__tree_const_iteratorINS_12basic_stringIcNS_11char_traitsIcEENS_9allocatorIcEEEEPNS_11__tree_nodeIS6_PvEElEC1B8ue170006EPNS_15__tree_end_nodeIPNS_16__tree_node_baseIS8_EEEE, symObjAddr: 0x14638, symBinAddr: 0x100017C04, symSize: 0x34 }
  - { offsetInCU: 0x4DB55, offset: 0x4DB55, size: 0x8, addend: 0x0, symName: __ZNSt3__121__tree_const_iteratorINS_12basic_stringIcNS_11char_traitsIcEENS_9allocatorIcEEEEPNS_11__tree_nodeIS6_PvEElEC2B8ue170006EPNS_15__tree_end_nodeIPNS_16__tree_node_baseIS8_EEEE, symObjAddr: 0x1466C, symBinAddr: 0x100017C38, symSize: 0x20 }
  - { offsetInCU: 0x4DB8E, offset: 0x4DB8E, size: 0x8, addend: 0x0, symName: __ZNKSt3__16__treeINS_12basic_stringIcNS_11char_traitsIcEENS_9allocatorIcEEEENS_4lessIS6_EENS4_IS6_EEE3endB8ue170006Ev, symObjAddr: 0x1468C, symBinAddr: 0x100017C58, symSize: 0x34 }
  - { offsetInCU: 0x4DBB4, offset: 0x4DBB4, size: 0x8, addend: 0x0, symName: __ZNSt3__16__treeINS_12basic_stringIcNS_11char_traitsIcEENS_9allocatorIcEEEENS_4lessIS6_EENS4_IS6_EEED2Ev, symObjAddr: 0x146C0, symBinAddr: 0x100017C8C, symSize: 0x38 }
  - { offsetInCU: 0x4DBE0, offset: 0x4DBE0, size: 0x8, addend: 0x0, symName: __ZNSt3__16__treeINS_12basic_stringIcNS_11char_traitsIcEENS_9allocatorIcEEEENS_4lessIS6_EENS4_IS6_EEE7destroyEPNS_11__tree_nodeIS6_PvEE, symObjAddr: 0x146F8, symBinAddr: 0x100017CC4, symSize: 0x9C }
  - { offsetInCU: 0x4DC34, offset: 0x4DC34, size: 0x8, addend: 0x0, symName: __ZN11InterpreterC2E14DatalogProgram, symObjAddr: 0x14794, symBinAddr: 0x100017D60, symSize: 0x210 }
  - { offsetInCU: 0x4DC6D, offset: 0x4DC6D, size: 0x8, addend: 0x0, symName: __ZN8DatabaseC1Ev, symObjAddr: 0x149A4, symBinAddr: 0x100017F70, symSize: 0x2C }
  - { offsetInCU: 0x4DC9D, offset: 0x4DC9D, size: 0x8, addend: 0x0, symName: __ZN14DatalogProgramaSERKS_, symObjAddr: 0x149D0, symBinAddr: 0x100017F9C, symSize: 0x84 }
  - { offsetInCU: 0x4DCCE, offset: 0x4DCCE, size: 0x8, addend: 0x0, symName: __ZN14DatalogProgram10getSchemesEv, symObjAddr: 0x14A54, symBinAddr: 0x100018020, symSize: 0x38 }
  - { offsetInCU: 0x4DCF4, offset: 0x4DCF4, size: 0x8, addend: 0x0, symName: __ZNSt3__16vectorI9PredicateNS_9allocatorIS1_EEEaSB8ue170006EOS4_, symObjAddr: 0x14A8C, symBinAddr: 0x100018058, symSize: 0x34 }
  - { offsetInCU: 0x4DD2B, offset: 0x4DD2B, size: 0x8, addend: 0x0, symName: __ZN14DatalogProgram8getFactsEv, symObjAddr: 0x14AC0, symBinAddr: 0x10001808C, symSize: 0x3C }
  - { offsetInCU: 0x4DD51, offset: 0x4DD51, size: 0x8, addend: 0x0, symName: __ZN14DatalogProgram10getQueriesEv, symObjAddr: 0x14AFC, symBinAddr: 0x1000180C8, symSize: 0x3C }
  - { offsetInCU: 0x4DD77, offset: 0x4DD77, size: 0x8, addend: 0x0, symName: __ZNSt3__16vectorI4RuleNS_9allocatorIS1_EEEaSB8ue170006EOS4_, symObjAddr: 0x14B38, symBinAddr: 0x100018104, symSize: 0x34 }
  - { offsetInCU: 0x4DDAE, offset: 0x4DDAE, size: 0x8, addend: 0x0, symName: __ZN14DatalogProgram9getDomainEv, symObjAddr: 0x14B6C, symBinAddr: 0x100018138, symSize: 0x3C }
  - { offsetInCU: 0x4DDD4, offset: 0x4DDD4, size: 0x8, addend: 0x0, symName: __ZNSt3__13setINS_12basic_stringIcNS_11char_traitsIcEENS_9allocatorIcEEEENS_4lessIS6_EENS4_IS6_EEEaSB8ue170006EOSA_, symObjAddr: 0x14BA8, symBinAddr: 0x100018174, symSize: 0x34 }
  - { offsetInCU: 0x4DE09, offset: 0x4DE09, size: 0x8, addend: 0x0, symName: __ZNSt3__13setINS_12basic_stringIcNS_11char_traitsIcEENS_9allocatorIcEEEENS_4lessIS6_EENS4_IS6_EEED1B8ue170006Ev, symObjAddr: 0x14BDC, symBinAddr: 0x1000181A8, symSize: 0x2C }
  - { offsetInCU: 0x4DE33, offset: 0x4DE33, size: 0x8, addend: 0x0, symName: __ZN11Interpreter15evaluateSchemesEv, symObjAddr: 0x14C08, symBinAddr: 0x1000181D4, symSize: 0x264 }
  - { offsetInCU: 0x4DED8, offset: 0x4DED8, size: 0x8, addend: 0x0, symName: __ZN11Interpreter13evaluateFactsEv, symObjAddr: 0x14E6C, symBinAddr: 0x100018438, symSize: 0x1EC }
  - { offsetInCU: 0x4DF6C, offset: 0x4DF6C, size: 0x8, addend: 0x0, symName: __ZN8DatabaseD1Ev, symObjAddr: 0x15058, symBinAddr: 0x100018624, symSize: 0x2C }
  - { offsetInCU: 0x4DF98, offset: 0x4DF98, size: 0x8, addend: 0x0, symName: __ZN8DatabaseC2Ev, symObjAddr: 0x15084, symBinAddr: 0x100018650, symSize: 0x2C }
  - { offsetInCU: 0x4DFC2, offset: 0x4DFC2, size: 0x8, addend: 0x0, symName: __ZNSt3__13mapINS_12basic_stringIcNS_11char_traitsIcEENS_9allocatorIcEEEE8RelationNS_4lessIS6_EENS4_INS_4pairIKS6_S7_EEEEEC2B8ue170006Ev, symObjAddr: 0x150B0, symBinAddr: 0x10001867C, symSize: 0x40 }
  - { offsetInCU: 0x4DFEC, offset: 0x4DFEC, size: 0x8, addend: 0x0, symName: __ZNSt3__119__map_value_compareINS_12basic_stringIcNS_11char_traitsIcEENS_9allocatorIcEEEENS_12__value_typeIS6_8RelationEENS_4lessIS6_EELb1EEC1B8ue170006ESB_, symObjAddr: 0x150F0, symBinAddr: 0x1000186BC, symSize: 0x2C }
  - { offsetInCU: 0x4E025, offset: 0x4E025, size: 0x8, addend: 0x0, symName: __ZNSt3__16__treeINS_12__value_typeINS_12basic_stringIcNS_11char_traitsIcEENS_9allocatorIcEEEE8RelationEENS_19__map_value_compareIS7_S9_NS_4lessIS7_EELb1EEENS5_IS9_EEEC1ERKSD_, symObjAddr: 0x1511C, symBinAddr: 0x1000186E8, symSize: 0x34 }
  - { offsetInCU: 0x4E060, offset: 0x4E060, size: 0x8, addend: 0x0, symName: __ZNSt3__119__map_value_compareINS_12basic_stringIcNS_11char_traitsIcEENS_9allocatorIcEEEENS_12__value_typeIS6_8RelationEENS_4lessIS6_EELb1EEC2B8ue170006ESB_, symObjAddr: 0x15150, symBinAddr: 0x10001871C, symSize: 0x14 }
  - { offsetInCU: 0x4E099, offset: 0x4E099, size: 0x8, addend: 0x0, symName: __ZNSt3__16__treeINS_12__value_typeINS_12basic_stringIcNS_11char_traitsIcEENS_9allocatorIcEEEE8RelationEENS_19__map_value_compareIS7_S9_NS_4lessIS7_EELb1EEENS5_IS9_EEEC2ERKSD_, symObjAddr: 0x15164, symBinAddr: 0x100018730, symSize: 0x7C }
  - { offsetInCU: 0x4E0D4, offset: 0x4E0D4, size: 0x8, addend: 0x0, symName: __ZNSt3__117__compressed_pairINS_15__tree_end_nodeIPNS_16__tree_node_baseIPvEEEENS_9allocatorINS_11__tree_nodeINS_12__value_typeINS_12basic_stringIcNS_11char_traitsIcEENS7_IcEEEE8RelationEES3_EEEEEC1B8ue170006ILb1EvEEv, symObjAddr: 0x151E0, symBinAddr: 0x1000187AC, symSize: 0x2C }
  - { offsetInCU: 0x4E109, offset: 0x4E109, size: 0x8, addend: 0x0, symName: __ZNSt3__117__compressed_pairImNS_19__map_value_compareINS_12basic_stringIcNS_11char_traitsIcEENS_9allocatorIcEEEENS_12__value_typeIS7_8RelationEENS_4lessIS7_EELb1EEEEC1B8ue170006IiRKSD_EEOT_OT0_, symObjAddr: 0x1520C, symBinAddr: 0x1000187D8, symSize: 0x3C }
  - { offsetInCU: 0x4E161, offset: 0x4E161, size: 0x8, addend: 0x0, symName: __ZNSt3__16__treeINS_12__value_typeINS_12basic_stringIcNS_11char_traitsIcEENS_9allocatorIcEEEE8RelationEENS_19__map_value_compareIS7_S9_NS_4lessIS7_EELb1EEENS5_IS9_EEE10__end_nodeB8ue170006Ev, symObjAddr: 0x15248, symBinAddr: 0x100018814, symSize: 0x2C }
  - { offsetInCU: 0x4E187, offset: 0x4E187, size: 0x8, addend: 0x0, symName: __ZNSt3__16__treeINS_12__value_typeINS_12basic_stringIcNS_11char_traitsIcEENS_9allocatorIcEEEE8RelationEENS_19__map_value_compareIS7_S9_NS_4lessIS7_EELb1EEENS5_IS9_EEE12__begin_nodeB8ue170006Ev, symObjAddr: 0x15274, symBinAddr: 0x100018840, symSize: 0x14 }
  - { offsetInCU: 0x4E1AD, offset: 0x4E1AD, size: 0x8, addend: 0x0, symName: __ZNSt3__117__compressed_pairINS_15__tree_end_nodeIPNS_16__tree_node_baseIPvEEEENS_9allocatorINS_11__tree_nodeINS_12__value_typeINS_12basic_stringIcNS_11char_traitsIcEENS7_IcEEEE8RelationEES3_EEEEEC2B8ue170006ILb1EvEEv, symObjAddr: 0x15288, symBinAddr: 0x100018854, symSize: 0x34 }
  - { offsetInCU: 0x4E1E2, offset: 0x4E1E2, size: 0x8, addend: 0x0, symName: __ZNSt3__122__compressed_pair_elemINS_9allocatorINS_11__tree_nodeINS_12__value_typeINS_12basic_stringIcNS_11char_traitsIcEENS1_IcEEEE8RelationEEPvEEEELi1ELb1EEC2B8ue170006ENS_16__value_init_tagE, symObjAddr: 0x152BC, symBinAddr: 0x100018888, symSize: 0x2C }
  - { offsetInCU: 0x4E217, offset: 0x4E217, size: 0x8, addend: 0x0, symName: __ZNSt3__19allocatorINS_11__tree_nodeINS_12__value_typeINS_12basic_stringIcNS_11char_traitsIcEENS0_IcEEEE8RelationEEPvEEEC2B8ue170006Ev, symObjAddr: 0x152E8, symBinAddr: 0x1000188B4, symSize: 0x2C }
  - { offsetInCU: 0x4E241, offset: 0x4E241, size: 0x8, addend: 0x0, symName: __ZNSt3__116__non_trivial_ifILb1ENS_9allocatorINS_11__tree_nodeINS_12__value_typeINS_12basic_stringIcNS_11char_traitsIcEENS1_IcEEEE8RelationEEPvEEEEEC2B8ue170006Ev, symObjAddr: 0x15314, symBinAddr: 0x1000188E0, symSize: 0x14 }
  - { offsetInCU: 0x4E26B, offset: 0x4E26B, size: 0x8, addend: 0x0, symName: __ZNSt3__117__compressed_pairImNS_19__map_value_compareINS_12basic_stringIcNS_11char_traitsIcEENS_9allocatorIcEEEENS_12__value_typeIS7_8RelationEENS_4lessIS7_EELb1EEEEC2B8ue170006IiRKSD_EEOT_OT0_, symObjAddr: 0x15328, symBinAddr: 0x1000188F4, symSize: 0x44 }
  - { offsetInCU: 0x4E2C3, offset: 0x4E2C3, size: 0x8, addend: 0x0, symName: __ZNSt3__122__compressed_pair_elemINS_19__map_value_compareINS_12basic_stringIcNS_11char_traitsIcEENS_9allocatorIcEEEENS_12__value_typeIS7_8RelationEENS_4lessIS7_EELb1EEELi1ELb1EEC2B8ue170006IRKSD_vEEOT_, symObjAddr: 0x1536C, symBinAddr: 0x100018938, symSize: 0x18 }
  - { offsetInCU: 0x4E305, offset: 0x4E305, size: 0x8, addend: 0x0, symName: __ZNSt3__117__compressed_pairINS_15__tree_end_nodeIPNS_16__tree_node_baseIPvEEEENS_9allocatorINS_11__tree_nodeINS_12__value_typeINS_12basic_stringIcNS_11char_traitsIcEENS7_IcEEEE8RelationEES3_EEEEE5firstB8ue170006Ev, symObjAddr: 0x15384, symBinAddr: 0x100018950, symSize: 0x24 }
  - { offsetInCU: 0x4E32B, offset: 0x4E32B, size: 0x8, addend: 0x0, symName: __ZNSt3__16vectorI9PredicateNS_9allocatorIS1_EEEaSB8ue170006ERKS4_, symObjAddr: 0x153A8, symBinAddr: 0x100018974, symSize: 0x68 }
  - { offsetInCU: 0x4E362, offset: 0x4E362, size: 0x8, addend: 0x0, symName: __ZNSt3__16vectorI4RuleNS_9allocatorIS1_EEEaSB8ue170006ERKS4_, symObjAddr: 0x15410, symBinAddr: 0x1000189DC, symSize: 0x68 }
  - { offsetInCU: 0x4E399, offset: 0x4E399, size: 0x8, addend: 0x0, symName: __ZNSt3__13setINS_12basic_stringIcNS_11char_traitsIcEENS_9allocatorIcEEEENS_4lessIS6_EENS4_IS6_EEEaSB8ue170006ERKSA_, symObjAddr: 0x15478, symBinAddr: 0x100018A44, symSize: 0x34 }
  - { offsetInCU: 0x4E3CE, offset: 0x4E3CE, size: 0x8, addend: 0x0, symName: __ZNSt3__16vectorI9PredicateNS_9allocatorIS1_EEE19__copy_assign_allocB8ue170006ERKS4_, symObjAddr: 0x154AC, symBinAddr: 0x100018A78, symSize: 0x2C }
  - { offsetInCU: 0x4E403, offset: 0x4E403, size: 0x8, addend: 0x0, symName: __ZNSt3__16vectorI9PredicateNS_9allocatorIS1_EEE6assignIPS1_Li0EEEvT_S7_, symObjAddr: 0x154D8, symBinAddr: 0x100018AA4, symSize: 0x5C }
  - { offsetInCU: 0x4E458, offset: 0x4E458, size: 0x8, addend: 0x0, symName: __ZNSt3__16vectorI9PredicateNS_9allocatorIS1_EEE19__copy_assign_allocB8ue170006ERKS4_NS_17integral_constantIbLb0EEE, symObjAddr: 0x15534, symBinAddr: 0x100018B00, symSize: 0x14 }
  - { offsetInCU: 0x4E496, offset: 0x4E496, size: 0x8, addend: 0x0, symName: __ZNSt3__16vectorI9PredicateNS_9allocatorIS1_EEE18__assign_with_sizeB8ue170006IPS1_S6_EEvT_T0_l, symObjAddr: 0x15548, symBinAddr: 0x100018B14, symSize: 0x164 }
  - { offsetInCU: 0x4E546, offset: 0x4E546, size: 0x8, addend: 0x0, symName: __ZNSt3__16vectorI9PredicateNS_9allocatorIS1_EEE17__destruct_at_endB8ue170006EPS1_, symObjAddr: 0x15790, symBinAddr: 0x100018D5C, symSize: 0x4C }
  - { offsetInCU: 0x4E58A, offset: 0x4E58A, size: 0x8, addend: 0x0, symName: __ZNSt3__16vectorI9PredicateNS_9allocatorIS1_EEE13__vdeallocateEv, symObjAddr: 0x157DC, symBinAddr: 0x100018DA8, symSize: 0x94 }
  - { offsetInCU: 0x4E5B2, offset: 0x4E5B2, size: 0x8, addend: 0x0, symName: __ZNKSt3__111__copy_loopINS_17_ClassicAlgPolicyEEclB8ue170006IP9PredicateS5_S5_EENS_4pairIT_T1_EES7_T0_S8_, symObjAddr: 0x159D0, symBinAddr: 0x100018F9C, symSize: 0x88 }
  - { offsetInCU: 0x4E61D, offset: 0x4E61D, size: 0x8, addend: 0x0, symName: __ZNKSt3__16vectorI9PredicateNS_9allocatorIS1_EEE17__annotate_shrinkB8ue170006Em, symObjAddr: 0x15A84, symBinAddr: 0x100019050, symSize: 0xD0 }
  - { offsetInCU: 0x4E652, offset: 0x4E652, size: 0x8, addend: 0x0, symName: __ZNSt3__16vectorI9PredicateNS_9allocatorIS1_EEE5clearB8ue170006Ev, symObjAddr: 0x15B54, symBinAddr: 0x100019120, symSize: 0x44 }
  - { offsetInCU: 0x4E687, offset: 0x4E687, size: 0x8, addend: 0x0, symName: __ZNSt3__16vectorI4RuleNS_9allocatorIS1_EEE19__copy_assign_allocB8ue170006ERKS4_, symObjAddr: 0x15BC0, symBinAddr: 0x10001918C, symSize: 0x2C }
  - { offsetInCU: 0x4E6BC, offset: 0x4E6BC, size: 0x8, addend: 0x0, symName: __ZNSt3__16vectorI4RuleNS_9allocatorIS1_EEE6assignIPS1_Li0EEEvT_S7_, symObjAddr: 0x15BEC, symBinAddr: 0x1000191B8, symSize: 0x5C }
  - { offsetInCU: 0x4E711, offset: 0x4E711, size: 0x8, addend: 0x0, symName: __ZNSt3__16vectorI4RuleNS_9allocatorIS1_EEE19__copy_assign_allocB8ue170006ERKS4_NS_17integral_constantIbLb0EEE, symObjAddr: 0x15C48, symBinAddr: 0x100019214, symSize: 0x14 }
  - { offsetInCU: 0x4E74F, offset: 0x4E74F, size: 0x8, addend: 0x0, symName: __ZNSt3__16vectorI4RuleNS_9allocatorIS1_EEE18__assign_with_sizeB8ue170006IPS1_S6_EEvT_T0_l, symObjAddr: 0x15C5C, symBinAddr: 0x100019228, symSize: 0x164 }
  - { offsetInCU: 0x4E7FF, offset: 0x4E7FF, size: 0x8, addend: 0x0, symName: __ZNSt3__16vectorI4RuleNS_9allocatorIS1_EEE17__destruct_at_endB8ue170006EPS1_, symObjAddr: 0x15EA4, symBinAddr: 0x100019470, symSize: 0x4C }
  - { offsetInCU: 0x4E843, offset: 0x4E843, size: 0x8, addend: 0x0, symName: __ZNSt3__16vectorI4RuleNS_9allocatorIS1_EEE13__vdeallocateEv, symObjAddr: 0x15EF0, symBinAddr: 0x1000194BC, symSize: 0x94 }
  - { offsetInCU: 0x4E86B, offset: 0x4E86B, size: 0x8, addend: 0x0, symName: __ZNKSt3__111__copy_loopINS_17_ClassicAlgPolicyEEclB8ue170006IP4RuleS5_S5_EENS_4pairIT_T1_EES7_T0_S8_, symObjAddr: 0x160E4, symBinAddr: 0x1000196B0, symSize: 0x88 }
  - { offsetInCU: 0x4E8D6, offset: 0x4E8D6, size: 0x8, addend: 0x0, symName: __ZN4RuleaSERKS_, symObjAddr: 0x16198, symBinAddr: 0x100019764, symSize: 0x48 }
  - { offsetInCU: 0x4E907, offset: 0x4E907, size: 0x8, addend: 0x0, symName: __ZNKSt3__16vectorI4RuleNS_9allocatorIS1_EEE17__annotate_shrinkB8ue170006Em, symObjAddr: 0x161E0, symBinAddr: 0x1000197AC, symSize: 0xD0 }
  - { offsetInCU: 0x4E93C, offset: 0x4E93C, size: 0x8, addend: 0x0, symName: __ZNSt3__16vectorI4RuleNS_9allocatorIS1_EEE5clearB8ue170006Ev, symObjAddr: 0x162B0, symBinAddr: 0x10001987C, symSize: 0x44 }
  - { offsetInCU: 0x4E971, offset: 0x4E971, size: 0x8, addend: 0x0, symName: __ZNSt3__16__treeINS_12basic_stringIcNS_11char_traitsIcEENS_9allocatorIcEEEENS_4lessIS6_EENS4_IS6_EEEaSERKSA_, symObjAddr: 0x1631C, symBinAddr: 0x1000198E8, symSize: 0x8C }
  - { offsetInCU: 0x4E9A8, offset: 0x4E9A8, size: 0x8, addend: 0x0, symName: __ZNSt3__16__treeINS_12basic_stringIcNS_11char_traitsIcEENS_9allocatorIcEEEENS_4lessIS6_EENS4_IS6_EEE19__copy_assign_allocB8ue170006ERKSA_, symObjAddr: 0x163A8, symBinAddr: 0x100019974, symSize: 0x2C }
  - { offsetInCU: 0x4E9DD, offset: 0x4E9DD, size: 0x8, addend: 0x0, symName: __ZNSt3__16__treeINS_12basic_stringIcNS_11char_traitsIcEENS_9allocatorIcEEEENS_4lessIS6_EENS4_IS6_EEE14__assign_multiINS_21__tree_const_iteratorIS6_PNS_11__tree_nodeIS6_PvEElEEEEvT_SI_, symObjAddr: 0x163D4, symBinAddr: 0x1000199A0, symSize: 0x170 }
  - { offsetInCU: 0x4EA41, offset: 0x4EA41, size: 0x8, addend: 0x0, symName: __ZNSt3__16__treeINS_12basic_stringIcNS_11char_traitsIcEENS_9allocatorIcEEEENS_4lessIS6_EENS4_IS6_EEE19__copy_assign_allocB8ue170006ERKSA_NS_17integral_constantIbLb0EEE, symObjAddr: 0x16544, symBinAddr: 0x100019B10, symSize: 0x14 }
  - { offsetInCU: 0x4EAA2, offset: 0x4EAA2, size: 0x8, addend: 0x0, symName: __ZNSt3__16__treeINS_12basic_stringIcNS_11char_traitsIcEENS_9allocatorIcEEEENS_4lessIS6_EENS4_IS6_EEE18_DetachedTreeCacheC1B8ue170006EPSA_, symObjAddr: 0x16558, symBinAddr: 0x100019B24, symSize: 0x34 }
  - { offsetInCU: 0x4EADB, offset: 0x4EADB, size: 0x8, addend: 0x0, symName: __ZNKSt3__16__treeINS_12basic_stringIcNS_11char_traitsIcEENS_9allocatorIcEEEENS_4lessIS6_EENS4_IS6_EEE18_DetachedTreeCache5__getB8ue170006Ev, symObjAddr: 0x1658C, symBinAddr: 0x100019B58, symSize: 0x18 }
  - { offsetInCU: 0x4EB01, offset: 0x4EB01, size: 0x8, addend: 0x0, symName: __ZNSt3__16__treeINS_12basic_stringIcNS_11char_traitsIcEENS_9allocatorIcEEEENS_4lessIS6_EENS4_IS6_EEE19__node_insert_multiEPNS_11__tree_nodeIS6_PvEE, symObjAddr: 0x165A4, symBinAddr: 0x100019B70, symSize: 0x70 }
  - { offsetInCU: 0x4EB56, offset: 0x4EB56, size: 0x8, addend: 0x0, symName: __ZNSt3__16__treeINS_12basic_stringIcNS_11char_traitsIcEENS_9allocatorIcEEEENS_4lessIS6_EENS4_IS6_EEE18_DetachedTreeCache9__advanceB8ue170006Ev, symObjAddr: 0x16614, symBinAddr: 0x100019BE0, symSize: 0x58 }
  - { offsetInCU: 0x4EB7C, offset: 0x4EB7C, size: 0x8, addend: 0x0, symName: __ZNSt3__16__treeINS_12basic_stringIcNS_11char_traitsIcEENS_9allocatorIcEEEENS_4lessIS6_EENS4_IS6_EEE18_DetachedTreeCacheD1B8ue170006Ev, symObjAddr: 0x1666C, symBinAddr: 0x100019C38, symSize: 0x2C }
  - { offsetInCU: 0x4EBA6, offset: 0x4EBA6, size: 0x8, addend: 0x0, symName: __ZNSt3__16__treeINS_12basic_stringIcNS_11char_traitsIcEENS_9allocatorIcEEEENS_4lessIS6_EENS4_IS6_EEE14__insert_multiB8ue170006IRKS6_EENS_15__tree_iteratorIS6_PNS_11__tree_nodeIS6_PvEElEEOT_, symObjAddr: 0x16698, symBinAddr: 0x100019C64, symSize: 0x34 }
  - { offsetInCU: 0x4EBE4, offset: 0x4EBE4, size: 0x8, addend: 0x0, symName: __ZNSt3__122__tree_key_value_typesINS_12basic_stringIcNS_11char_traitsIcEENS_9allocatorIcEEEEE11__get_valueB8ue170006ERKS6_, symObjAddr: 0x166CC, symBinAddr: 0x100019C98, symSize: 0x14 }
  - { offsetInCU: 0x4EC08, offset: 0x4EC08, size: 0x8, addend: 0x0, symName: __ZNSt3__16__treeINS_12basic_stringIcNS_11char_traitsIcEENS_9allocatorIcEEEENS_4lessIS6_EENS4_IS6_EEE18_DetachedTreeCacheC2B8ue170006EPSA_, symObjAddr: 0x166E0, symBinAddr: 0x100019CAC, symSize: 0x4C }
  - { offsetInCU: 0x4EC41, offset: 0x4EC41, size: 0x8, addend: 0x0, symName: __ZNSt3__16__treeINS_12basic_stringIcNS_11char_traitsIcEENS_9allocatorIcEEEENS_4lessIS6_EENS4_IS6_EEE18_DetachedTreeCache18__detach_from_treeEPSA_, symObjAddr: 0x1672C, symBinAddr: 0x100019CF8, symSize: 0xA0 }
  - { offsetInCU: 0x4EC76, offset: 0x4EC76, size: 0x8, addend: 0x0, symName: __ZNSt3__16__treeINS_12basic_stringIcNS_11char_traitsIcEENS_9allocatorIcEEEENS_4lessIS6_EENS4_IS6_EEE16__find_leaf_highERPNS_15__tree_end_nodeIPNS_16__tree_node_baseIPvEEEERKS6_, symObjAddr: 0x167CC, symBinAddr: 0x100019D98, symSize: 0x124 }
  - { offsetInCU: 0x4ECCB, offset: 0x4ECCB, size: 0x8, addend: 0x0, symName: __ZNSt3__16__treeINS_12basic_stringIcNS_11char_traitsIcEENS_9allocatorIcEEEENS_4lessIS6_EENS4_IS6_EEE18_DetachedTreeCache13__detach_nextEPNS_11__tree_nodeIS6_PvEE, symObjAddr: 0x168F0, symBinAddr: 0x100019EBC, symSize: 0xF0 }
  - { offsetInCU: 0x4ECF1, offset: 0x4ECF1, size: 0x8, addend: 0x0, symName: __ZNSt3__16__treeINS_12basic_stringIcNS_11char_traitsIcEENS_9allocatorIcEEEENS_4lessIS6_EENS4_IS6_EEE18_DetachedTreeCacheD2B8ue170006Ev, symObjAddr: 0x16A50, symBinAddr: 0x10001A01C, symSize: 0x9C }
  - { offsetInCU: 0x4ED1B, offset: 0x4ED1B, size: 0x8, addend: 0x0, symName: __ZNSt3__16__treeINS_12basic_stringIcNS_11char_traitsIcEENS_9allocatorIcEEEENS_4lessIS6_EENS4_IS6_EEE15__emplace_multiIJRKS6_EEENS_15__tree_iteratorIS6_PNS_11__tree_nodeIS6_PvEElEEDpOT_, symObjAddr: 0x16AEC, symBinAddr: 0x10001A0B8, symSize: 0xAC }
  - { offsetInCU: 0x4ED8A, offset: 0x4ED8A, size: 0x8, addend: 0x0, symName: __ZNSt3__16vectorI9PredicateNS_9allocatorIS1_EEE13__move_assignERS4_NS_17integral_constantIbLb1EEE, symObjAddr: 0x16B98, symBinAddr: 0x10001A164, symSize: 0x94 }
  - { offsetInCU: 0x4EDCD, offset: 0x4EDCD, size: 0x8, addend: 0x0, symName: __ZNSt3__16vectorI9PredicateNS_9allocatorIS1_EEE19__move_assign_allocB8ue170006ERS4_, symObjAddr: 0x16C2C, symBinAddr: 0x10001A1F8, symSize: 0x2C }
  - { offsetInCU: 0x4EE02, offset: 0x4EE02, size: 0x8, addend: 0x0, symName: __ZNSt3__16vectorI9PredicateNS_9allocatorIS1_EEE19__move_assign_allocB8ue170006ERS4_NS_17integral_constantIbLb1EEE, symObjAddr: 0x16C58, symBinAddr: 0x10001A224, symSize: 0x38 }
  - { offsetInCU: 0x4EE43, offset: 0x4EE43, size: 0x8, addend: 0x0, symName: __ZNSt3__16vectorI4RuleNS_9allocatorIS1_EEE13__move_assignERS4_NS_17integral_constantIbLb1EEE, symObjAddr: 0x16C90, symBinAddr: 0x10001A25C, symSize: 0x94 }
  - { offsetInCU: 0x4EE86, offset: 0x4EE86, size: 0x8, addend: 0x0, symName: __ZNSt3__16vectorI4RuleNS_9allocatorIS1_EEE19__move_assign_allocB8ue170006ERS4_, symObjAddr: 0x16D24, symBinAddr: 0x10001A2F0, symSize: 0x2C }
  - { offsetInCU: 0x4EEBB, offset: 0x4EEBB, size: 0x8, addend: 0x0, symName: __ZNSt3__16vectorI4RuleNS_9allocatorIS1_EEE19__move_assign_allocB8ue170006ERS4_NS_17integral_constantIbLb1EEE, symObjAddr: 0x16D50, symBinAddr: 0x10001A31C, symSize: 0x38 }
  - { offsetInCU: 0x4EEFC, offset: 0x4EEFC, size: 0x8, addend: 0x0, symName: __ZNSt3__16__treeINS_12basic_stringIcNS_11char_traitsIcEENS_9allocatorIcEEEENS_4lessIS6_EENS4_IS6_EEEaSEOSA_, symObjAddr: 0x16D88, symBinAddr: 0x10001A354, symSize: 0x34 }
  - { offsetInCU: 0x4EF33, offset: 0x4EF33, size: 0x8, addend: 0x0, symName: __ZNSt3__16__treeINS_12basic_stringIcNS_11char_traitsIcEENS_9allocatorIcEEEENS_4lessIS6_EENS4_IS6_EEE13__move_assignERSA_NS_17integral_constantIbLb1EEE, symObjAddr: 0x16DBC, symBinAddr: 0x10001A388, symSize: 0x138 }
  - { offsetInCU: 0x4EF76, offset: 0x4EF76, size: 0x8, addend: 0x0, symName: __ZNSt3__16__treeINS_12basic_stringIcNS_11char_traitsIcEENS_9allocatorIcEEEENS_4lessIS6_EENS4_IS6_EEE19__move_assign_allocB8ue170006ERSA_, symObjAddr: 0x16EF4, symBinAddr: 0x10001A4C0, symSize: 0x2C }
  - { offsetInCU: 0x4EFAB, offset: 0x4EFAB, size: 0x8, addend: 0x0, symName: __ZNSt3__16__treeINS_12basic_stringIcNS_11char_traitsIcEENS_9allocatorIcEEEENS_4lessIS6_EENS4_IS6_EEE19__move_assign_allocB8ue170006ERSA_NS_17integral_constantIbLb1EEE, symObjAddr: 0x16F20, symBinAddr: 0x10001A4EC, symSize: 0x38 }
  - { offsetInCU: 0x4EFEC, offset: 0x4EFEC, size: 0x8, addend: 0x0, symName: __ZNSt3__13setINS_12basic_stringIcNS_11char_traitsIcEENS_9allocatorIcEEEENS_4lessIS6_EENS4_IS6_EEED2B8ue170006Ev, symObjAddr: 0x16F58, symBinAddr: 0x10001A524, symSize: 0x2C }
  - { offsetInCU: 0x4F016, offset: 0x4F016, size: 0x8, addend: 0x0, symName: __ZN6SchemeC1Ev, symObjAddr: 0x16F84, symBinAddr: 0x10001A550, symSize: 0x2C }
  - { offsetInCU: 0x4F040, offset: 0x4F040, size: 0x8, addend: 0x0, symName: __ZNSt3__16vectorI9PredicateNS_9allocatorIS1_EEE2atEm, symObjAddr: 0x16FB0, symBinAddr: 0x10001A57C, symSize: 0x68 }
  - { offsetInCU: 0x4F077, offset: 0x4F077, size: 0x8, addend: 0x0, symName: __ZN9Predicate7getNameEv, symObjAddr: 0x17018, symBinAddr: 0x10001A5E4, symSize: 0x38 }
  - { offsetInCU: 0x4F09D, offset: 0x4F09D, size: 0x8, addend: 0x0, symName: __ZN9Predicate13getParametersEv, symObjAddr: 0x17050, symBinAddr: 0x10001A61C, symSize: 0x3C }
  - { offsetInCU: 0x4F0C3, offset: 0x4F0C3, size: 0x8, addend: 0x0, symName: __ZNSt3__16vectorI9ParameterNS_9allocatorIS1_EEE2atEm, symObjAddr: 0x1708C, symBinAddr: 0x10001A658, symSize: 0x68 }
  - { offsetInCU: 0x4F0FA, offset: 0x4F0FA, size: 0x8, addend: 0x0, symName: __ZNSt3__16vectorINS_12basic_stringIcNS_11char_traitsIcEENS_9allocatorIcEEEENS4_IS6_EEE9push_backB8ue170006ERKS6_, symObjAddr: 0x170F4, symBinAddr: 0x10001A6C0, symSize: 0x6C }
  - { offsetInCU: 0x4F131, offset: 0x4F131, size: 0x8, addend: 0x0, symName: __ZN8RelationC1ERKNSt3__112basic_stringIcNS0_11char_traitsIcEENS0_9allocatorIcEEEERK6Scheme, symObjAddr: 0x17160, symBinAddr: 0x10001A72C, symSize: 0x3C }
  - { offsetInCU: 0x4F194, offset: 0x4F194, size: 0x8, addend: 0x0, symName: __ZNSt3__13mapINS_12basic_stringIcNS_11char_traitsIcEENS_9allocatorIcEEEE8RelationNS_4lessIS6_EENS4_INS_4pairIKS6_S7_EEEEE6insertB8ue170006INSA_IS6_S7_EEvEENSA_INS_14__map_iteratorINS_15__tree_iteratorINS_12__value_typeIS6_S7_EEPNS_11__tree_nodeISK_PvEElEEEEbEEOT_, symObjAddr: 0x1719C, symBinAddr: 0x10001A768, symSize: 0x4C }
  - { offsetInCU: 0x4F1D3, offset: 0x4F1D3, size: 0x8, addend: 0x0, symName: __ZNSt3__14pairINS_12basic_stringIcNS_11char_traitsIcEENS_9allocatorIcEEEE8RelationEC1B8ue170006IRS6_RS7_LPv0EEEOT_OT0_, symObjAddr: 0x171E8, symBinAddr: 0x10001A7B4, symSize: 0x3C }
  - { offsetInCU: 0x4F231, offset: 0x4F231, size: 0x8, addend: 0x0, symName: __ZNSt3__14pairINS_12basic_stringIcNS_11char_traitsIcEENS_9allocatorIcEEEE8RelationED1Ev, symObjAddr: 0x17224, symBinAddr: 0x10001A7F0, symSize: 0x2C }
  - { offsetInCU: 0x4F25D, offset: 0x4F25D, size: 0x8, addend: 0x0, symName: __ZN8RelationD1Ev, symObjAddr: 0x17250, symBinAddr: 0x10001A81C, symSize: 0x2C }
  - { offsetInCU: 0x4F289, offset: 0x4F289, size: 0x8, addend: 0x0, symName: __ZN6SchemeD1Ev, symObjAddr: 0x1727C, symBinAddr: 0x10001A848, symSize: 0x2C }
  - { offsetInCU: 0x4F2B5, offset: 0x4F2B5, size: 0x8, addend: 0x0, symName: __ZN6SchemeC2Ev, symObjAddr: 0x172A8, symBinAddr: 0x10001A874, symSize: 0x2C }
  - { offsetInCU: 0x4F2DF, offset: 0x4F2DF, size: 0x8, addend: 0x0, symName: __ZNSt3__16vectorINS_12basic_stringIcNS_11char_traitsIcEENS_9allocatorIcEEEENS4_IS6_EEEC2B8ue170006Ev, symObjAddr: 0x172D4, symBinAddr: 0x10001A8A0, symSize: 0x4C }
  - { offsetInCU: 0x4F309, offset: 0x4F309, size: 0x8, addend: 0x0, symName: __ZNSt3__117__compressed_pairIPNS_12basic_stringIcNS_11char_traitsIcEENS_9allocatorIcEEEENS4_IS6_EEEC1B8ue170006IDnNS_18__default_init_tagEEEOT_OT0_, symObjAddr: 0x17320, symBinAddr: 0x10001A8EC, symSize: 0x3C }
  - { offsetInCU: 0x4F361, offset: 0x4F361, size: 0x8, addend: 0x0, symName: __ZNSt3__117__compressed_pairIPNS_12basic_stringIcNS_11char_traitsIcEENS_9allocatorIcEEEENS4_IS6_EEEC2B8ue170006IDnNS_18__default_init_tagEEEOT_OT0_, symObjAddr: 0x1735C, symBinAddr: 0x10001A928, symSize: 0x40 }
  - { offsetInCU: 0x4F3B9, offset: 0x4F3B9, size: 0x8, addend: 0x0, symName: __ZNSt3__122__compressed_pair_elemIPNS_12basic_stringIcNS_11char_traitsIcEENS_9allocatorIcEEEELi0ELb0EEC2B8ue170006IDnvEEOT_, symObjAddr: 0x1739C, symBinAddr: 0x10001A968, symSize: 0x1C }
  - { offsetInCU: 0x4F3FB, offset: 0x4F3FB, size: 0x8, addend: 0x0, symName: __ZNSt3__122__compressed_pair_elemINS_9allocatorINS_12basic_stringIcNS_11char_traitsIcEENS1_IcEEEEEELi1ELb1EEC2B8ue170006ENS_18__default_init_tagE, symObjAddr: 0x173B8, symBinAddr: 0x10001A984, symSize: 0x2C }
  - { offsetInCU: 0x4F430, offset: 0x4F430, size: 0x8, addend: 0x0, symName: __ZNSt3__19allocatorINS_12basic_stringIcNS_11char_traitsIcEENS0_IcEEEEEC2B8ue170006Ev, symObjAddr: 0x173E4, symBinAddr: 0x10001A9B0, symSize: 0x2C }
  - { offsetInCU: 0x4F45A, offset: 0x4F45A, size: 0x8, addend: 0x0, symName: __ZNSt3__116__non_trivial_ifILb1ENS_9allocatorINS_12basic_stringIcNS_11char_traitsIcEENS1_IcEEEEEEEC2B8ue170006Ev, symObjAddr: 0x17410, symBinAddr: 0x10001A9DC, symSize: 0x14 }
  - { offsetInCU: 0x4F484, offset: 0x4F484, size: 0x8, addend: 0x0, symName: __ZNKSt3__16vectorI9PredicateNS_9allocatorIS1_EEE20__throw_out_of_rangeB8ue170006Ev, symObjAddr: 0x17424, symBinAddr: 0x10001A9F0, symSize: 0x1C }
  - { offsetInCU: 0x4F4AA, offset: 0x4F4AA, size: 0x8, addend: 0x0, symName: __ZNKSt3__16vectorI9ParameterNS_9allocatorIS1_EEE20__throw_out_of_rangeB8ue170006Ev, symObjAddr: 0x17440, symBinAddr: 0x10001AA0C, symSize: 0x1C }
  - { offsetInCU: 0x4F4D0, offset: 0x4F4D0, size: 0x8, addend: 0x0, symName: __ZNSt3__16vectorINS_12basic_stringIcNS_11char_traitsIcEENS_9allocatorIcEEEENS4_IS6_EEE9__end_capB8ue170006Ev, symObjAddr: 0x1745C, symBinAddr: 0x10001AA28, symSize: 0x28 }
  - { offsetInCU: 0x4F4F6, offset: 0x4F4F6, size: 0x8, addend: 0x0, symName: __ZNSt3__16vectorINS_12basic_stringIcNS_11char_traitsIcEENS_9allocatorIcEEEENS4_IS6_EEE22__construct_one_at_endB8ue170006IJRKS6_EEEvDpOT_, symObjAddr: 0x17484, symBinAddr: 0x10001AA50, symSize: 0x90 }
  - { offsetInCU: 0x4F545, offset: 0x4F545, size: 0x8, addend: 0x0, symName: __ZNSt3__16vectorINS_12basic_stringIcNS_11char_traitsIcEENS_9allocatorIcEEEENS4_IS6_EEE21__push_back_slow_pathIRKS6_EEvOT_, symObjAddr: 0x17514, symBinAddr: 0x10001AAE0, symSize: 0xD8 }
  - { offsetInCU: 0x4F5A3, offset: 0x4F5A3, size: 0x8, addend: 0x0, symName: __ZNSt3__117__compressed_pairIPNS_12basic_stringIcNS_11char_traitsIcEENS_9allocatorIcEEEENS4_IS6_EEE5firstB8ue170006Ev, symObjAddr: 0x175EC, symBinAddr: 0x10001ABB8, symSize: 0x24 }
  - { offsetInCU: 0x4F5C9, offset: 0x4F5C9, size: 0x8, addend: 0x0, symName: __ZNSt3__122__compressed_pair_elemIPNS_12basic_stringIcNS_11char_traitsIcEENS_9allocatorIcEEEELi0ELb0EE5__getB8ue170006Ev, symObjAddr: 0x17610, symBinAddr: 0x10001ABDC, symSize: 0x14 }
  - { offsetInCU: 0x4F60B, offset: 0x4F60B, size: 0x8, addend: 0x0, symName: __ZNSt3__16vectorINS_12basic_stringIcNS_11char_traitsIcEENS_9allocatorIcEEEENS4_IS6_EEE21_ConstructTransactionC1B8ue170006ERS8_m, symObjAddr: 0x17624, symBinAddr: 0x10001ABF0, symSize: 0x3C }
  - { offsetInCU: 0x4F653, offset: 0x4F653, size: 0x8, addend: 0x0, symName: __ZNSt3__116allocator_traitsINS_9allocatorINS_12basic_stringIcNS_11char_traitsIcEENS1_IcEEEEEEE9constructB8ue170006IS6_JRKS6_EvEEvRS7_PT_DpOT0_, symObjAddr: 0x17660, symBinAddr: 0x10001AC2C, symSize: 0x34 }
  - { offsetInCU: 0x4F6AA, offset: 0x4F6AA, size: 0x8, addend: 0x0, symName: __ZNSt3__16vectorINS_12basic_stringIcNS_11char_traitsIcEENS_9allocatorIcEEEENS4_IS6_EEE7__allocB8ue170006Ev, symObjAddr: 0x17694, symBinAddr: 0x10001AC60, symSize: 0x28 }
  - { offsetInCU: 0x4F6D0, offset: 0x4F6D0, size: 0x8, addend: 0x0, symName: __ZNSt3__16vectorINS_12basic_stringIcNS_11char_traitsIcEENS_9allocatorIcEEEENS4_IS6_EEE21_ConstructTransactionD1B8ue170006Ev, symObjAddr: 0x176D0, symBinAddr: 0x10001AC9C, symSize: 0x2C }
  - { offsetInCU: 0x4F6FA, offset: 0x4F6FA, size: 0x8, addend: 0x0, symName: __ZNSt3__16vectorINS_12basic_stringIcNS_11char_traitsIcEENS_9allocatorIcEEEENS4_IS6_EEE21_ConstructTransactionC2B8ue170006ERS8_m, symObjAddr: 0x176FC, symBinAddr: 0x10001ACC8, symSize: 0x4C }
  - { offsetInCU: 0x4F742, offset: 0x4F742, size: 0x8, addend: 0x0, symName: __ZNSt3__19allocatorINS_12basic_stringIcNS_11char_traitsIcEENS0_IcEEEEE9constructB8ue170006IS5_JRKS5_EEEvPT_DpOT0_, symObjAddr: 0x17748, symBinAddr: 0x10001AD14, symSize: 0x30 }
  - { offsetInCU: 0x4F798, offset: 0x4F798, size: 0x8, addend: 0x0, symName: __ZNSt3__117__compressed_pairIPNS_12basic_stringIcNS_11char_traitsIcEENS_9allocatorIcEEEENS4_IS6_EEE6secondB8ue170006Ev, symObjAddr: 0x17778, symBinAddr: 0x10001AD44, symSize: 0x24 }
  - { offsetInCU: 0x4F7BE, offset: 0x4F7BE, size: 0x8, addend: 0x0, symName: __ZNSt3__122__compressed_pair_elemINS_9allocatorINS_12basic_stringIcNS_11char_traitsIcEENS1_IcEEEEEELi1ELb1EE5__getB8ue170006Ev, symObjAddr: 0x1779C, symBinAddr: 0x10001AD68, symSize: 0x14 }
  - { offsetInCU: 0x4F7E4, offset: 0x4F7E4, size: 0x8, addend: 0x0, symName: __ZNSt3__16vectorINS_12basic_stringIcNS_11char_traitsIcEENS_9allocatorIcEEEENS4_IS6_EEE21_ConstructTransactionD2B8ue170006Ev, symObjAddr: 0x177B0, symBinAddr: 0x10001AD7C, symSize: 0x20 }
  - { offsetInCU: 0x4F80E, offset: 0x4F80E, size: 0x8, addend: 0x0, symName: __ZNKSt3__16vectorINS_12basic_stringIcNS_11char_traitsIcEENS_9allocatorIcEEEENS4_IS6_EEE11__recommendB8ue170006Em, symObjAddr: 0x177D0, symBinAddr: 0x10001AD9C, symSize: 0xB4 }
  - { offsetInCU: 0x4F863, offset: 0x4F863, size: 0x8, addend: 0x0, symName: __ZNKSt3__16vectorINS_12basic_stringIcNS_11char_traitsIcEENS_9allocatorIcEEEENS4_IS6_EEE4sizeB8ue170006Ev, symObjAddr: 0x17884, symBinAddr: 0x10001AE50, symSize: 0x28 }
  - { offsetInCU: 0x4F889, offset: 0x4F889, size: 0x8, addend: 0x0, symName: __ZNSt3__114__split_bufferINS_12basic_stringIcNS_11char_traitsIcEENS_9allocatorIcEEEERNS4_IS6_EEEC1EmmS8_, symObjAddr: 0x178AC, symBinAddr: 0x10001AE78, symSize: 0x44 }
  - { offsetInCU: 0x4F8DF, offset: 0x4F8DF, size: 0x8, addend: 0x0, symName: __ZNSt3__114__split_bufferINS_12basic_stringIcNS_11char_traitsIcEENS_9allocatorIcEEEERNS4_IS6_EEED1Ev, symObjAddr: 0x17A00, symBinAddr: 0x10001AFCC, symSize: 0x2C }
  - { offsetInCU: 0x4F90B, offset: 0x4F90B, size: 0x8, addend: 0x0, symName: __ZNKSt3__16vectorINS_12basic_stringIcNS_11char_traitsIcEENS_9allocatorIcEEEENS4_IS6_EEE8max_sizeEv, symObjAddr: 0x17A2C, symBinAddr: 0x10001AFF8, symSize: 0x60 }
  - { offsetInCU: 0x4F933, offset: 0x4F933, size: 0x8, addend: 0x0, symName: __ZNKSt3__16vectorINS_12basic_stringIcNS_11char_traitsIcEENS_9allocatorIcEEEENS4_IS6_EEE20__throw_length_errorB8ue170006Ev, symObjAddr: 0x17A8C, symBinAddr: 0x10001B058, symSize: 0x1C }
  - { offsetInCU: 0x4F959, offset: 0x4F959, size: 0x8, addend: 0x0, symName: __ZNKSt3__16vectorINS_12basic_stringIcNS_11char_traitsIcEENS_9allocatorIcEEEENS4_IS6_EEE8capacityB8ue170006Ev, symObjAddr: 0x17AA8, symBinAddr: 0x10001B074, symSize: 0x40 }
  - { offsetInCU: 0x4F98A, offset: 0x4F98A, size: 0x8, addend: 0x0, symName: __ZNSt3__116allocator_traitsINS_9allocatorINS_12basic_stringIcNS_11char_traitsIcEENS1_IcEEEEEEE8max_sizeB8ue170006IS7_vEEmRKS7_, symObjAddr: 0x17AE8, symBinAddr: 0x10001B0B4, symSize: 0x24 }
  - { offsetInCU: 0x4F9B8, offset: 0x4F9B8, size: 0x8, addend: 0x0, symName: __ZNKSt3__16vectorINS_12basic_stringIcNS_11char_traitsIcEENS_9allocatorIcEEEENS4_IS6_EEE7__allocB8ue170006Ev, symObjAddr: 0x17B0C, symBinAddr: 0x10001B0D8, symSize: 0x28 }
  - { offsetInCU: 0x4F9DE, offset: 0x4F9DE, size: 0x8, addend: 0x0, symName: __ZNKSt3__19allocatorINS_12basic_stringIcNS_11char_traitsIcEENS0_IcEEEEE8max_sizeB8ue170006Ev, symObjAddr: 0x17B34, symBinAddr: 0x10001B100, symSize: 0x18 }
  - { offsetInCU: 0x4FA04, offset: 0x4FA04, size: 0x8, addend: 0x0, symName: __ZNKSt3__117__compressed_pairIPNS_12basic_stringIcNS_11char_traitsIcEENS_9allocatorIcEEEENS4_IS6_EEE6secondB8ue170006Ev, symObjAddr: 0x17B4C, symBinAddr: 0x10001B118, symSize: 0x24 }
  - { offsetInCU: 0x4FA2A, offset: 0x4FA2A, size: 0x8, addend: 0x0, symName: __ZNKSt3__122__compressed_pair_elemINS_9allocatorINS_12basic_stringIcNS_11char_traitsIcEENS1_IcEEEEEELi1ELb1EE5__getB8ue170006Ev, symObjAddr: 0x17B70, symBinAddr: 0x10001B13C, symSize: 0x14 }
  - { offsetInCU: 0x4FA50, offset: 0x4FA50, size: 0x8, addend: 0x0, symName: __ZNKSt3__16vectorINS_12basic_stringIcNS_11char_traitsIcEENS_9allocatorIcEEEENS4_IS6_EEE9__end_capB8ue170006Ev, symObjAddr: 0x17B84, symBinAddr: 0x10001B150, symSize: 0x28 }
  - { offsetInCU: 0x4FA76, offset: 0x4FA76, size: 0x8, addend: 0x0, symName: __ZNKSt3__117__compressed_pairIPNS_12basic_stringIcNS_11char_traitsIcEENS_9allocatorIcEEEENS4_IS6_EEE5firstB8ue170006Ev, symObjAddr: 0x17BAC, symBinAddr: 0x10001B178, symSize: 0x24 }
  - { offsetInCU: 0x4FA9C, offset: 0x4FA9C, size: 0x8, addend: 0x0, symName: __ZNKSt3__122__compressed_pair_elemIPNS_12basic_stringIcNS_11char_traitsIcEENS_9allocatorIcEEEELi0ELb0EE5__getB8ue170006Ev, symObjAddr: 0x17BD0, symBinAddr: 0x10001B19C, symSize: 0x14 }
  - { offsetInCU: 0x4FAC2, offset: 0x4FAC2, size: 0x8, addend: 0x0, symName: __ZNSt3__114__split_bufferINS_12basic_stringIcNS_11char_traitsIcEENS_9allocatorIcEEEERNS4_IS6_EEEC2EmmS8_, symObjAddr: 0x17BE4, symBinAddr: 0x10001B1B0, symSize: 0xE0 }
  - { offsetInCU: 0x4FB35, offset: 0x4FB35, size: 0x8, addend: 0x0, symName: __ZNSt3__117__compressed_pairIPNS_12basic_stringIcNS_11char_traitsIcEENS_9allocatorIcEEEERNS4_IS6_EEEC1B8ue170006IDnS9_EEOT_OT0_, symObjAddr: 0x17CC4, symBinAddr: 0x10001B290, symSize: 0x3C }
  - { offsetInCU: 0x4FB8D, offset: 0x4FB8D, size: 0x8, addend: 0x0, symName: __ZNSt3__114__split_bufferINS_12basic_stringIcNS_11char_traitsIcEENS_9allocatorIcEEEERNS4_IS6_EEE7__allocB8ue170006Ev, symObjAddr: 0x17D40, symBinAddr: 0x10001B30C, symSize: 0x28 }
  - { offsetInCU: 0x4FBB3, offset: 0x4FBB3, size: 0x8, addend: 0x0, symName: __ZNSt3__114__split_bufferINS_12basic_stringIcNS_11char_traitsIcEENS_9allocatorIcEEEERNS4_IS6_EEE9__end_capB8ue170006Ev, symObjAddr: 0x17D68, symBinAddr: 0x10001B334, symSize: 0x28 }
  - { offsetInCU: 0x4FBD9, offset: 0x4FBD9, size: 0x8, addend: 0x0, symName: __ZNSt3__117__compressed_pairIPNS_12basic_stringIcNS_11char_traitsIcEENS_9allocatorIcEEEERNS4_IS6_EEEC2B8ue170006IDnS9_EEOT_OT0_, symObjAddr: 0x17D90, symBinAddr: 0x10001B35C, symSize: 0x48 }
  - { offsetInCU: 0x4FC31, offset: 0x4FC31, size: 0x8, addend: 0x0, symName: __ZNSt3__122__compressed_pair_elemIRNS_9allocatorINS_12basic_stringIcNS_11char_traitsIcEENS1_IcEEEEEELi1ELb0EEC2B8ue170006IS8_vEEOT_, symObjAddr: 0x17DD8, symBinAddr: 0x10001B3A4, symSize: 0x20 }
  - { offsetInCU: 0x4FC73, offset: 0x4FC73, size: 0x8, addend: 0x0, symName: __ZNSt3__19allocatorINS_12basic_stringIcNS_11char_traitsIcEENS0_IcEEEEE8allocateB8ue170006Em, symObjAddr: 0x17DF8, symBinAddr: 0x10001B3C4, symSize: 0x5C }
  - { offsetInCU: 0x4FCA7, offset: 0x4FCA7, size: 0x8, addend: 0x0, symName: __ZNSt3__117__compressed_pairIPNS_12basic_stringIcNS_11char_traitsIcEENS_9allocatorIcEEEERNS4_IS6_EEE6secondB8ue170006Ev, symObjAddr: 0x17E54, symBinAddr: 0x10001B420, symSize: 0x28 }
  - { offsetInCU: 0x4FCCD, offset: 0x4FCCD, size: 0x8, addend: 0x0, symName: __ZNSt3__122__compressed_pair_elemIRNS_9allocatorINS_12basic_stringIcNS_11char_traitsIcEENS1_IcEEEEEELi1ELb0EE5__getB8ue170006Ev, symObjAddr: 0x17E7C, symBinAddr: 0x10001B448, symSize: 0x18 }
  - { offsetInCU: 0x4FCF3, offset: 0x4FCF3, size: 0x8, addend: 0x0, symName: __ZNSt3__117__compressed_pairIPNS_12basic_stringIcNS_11char_traitsIcEENS_9allocatorIcEEEERNS4_IS6_EEE5firstB8ue170006Ev, symObjAddr: 0x17E94, symBinAddr: 0x10001B460, symSize: 0x24 }
  - { offsetInCU: 0x4FD19, offset: 0x4FD19, size: 0x8, addend: 0x0, symName: __ZNKSt3__16vectorINS_12basic_stringIcNS_11char_traitsIcEENS_9allocatorIcEEEENS4_IS6_EEE17__annotate_deleteB8ue170006Ev, symObjAddr: 0x17EB8, symBinAddr: 0x10001B484, symSize: 0xD4 }
  - { offsetInCU: 0x4FD3F, offset: 0x4FD3F, size: 0x8, addend: 0x0, symName: __ZNSt3__116reverse_iteratorIPNS_12basic_stringIcNS_11char_traitsIcEENS_9allocatorIcEEEEEC1B8ue170006ES7_, symObjAddr: 0x180B8, symBinAddr: 0x10001B684, symSize: 0x34 }
  - { offsetInCU: 0x4FD77, offset: 0x4FD77, size: 0x8, addend: 0x0, symName: __ZNKSt3__116reverse_iteratorIPNS_12basic_stringIcNS_11char_traitsIcEENS_9allocatorIcEEEEE4baseB8ue170006Ev, symObjAddr: 0x180EC, symBinAddr: 0x10001B6B8, symSize: 0x18 }
  - { offsetInCU: 0x4FD9D, offset: 0x4FD9D, size: 0x8, addend: 0x0, symName: __ZNKSt3__16vectorINS_12basic_stringIcNS_11char_traitsIcEENS_9allocatorIcEEEENS4_IS6_EEE14__annotate_newB8ue170006Em, symObjAddr: 0x18140, symBinAddr: 0x10001B70C, symSize: 0xC8 }
  - { offsetInCU: 0x4FDD2, offset: 0x4FDD2, size: 0x8, addend: 0x0, symName: __ZNKSt3__16vectorINS_12basic_stringIcNS_11char_traitsIcEENS_9allocatorIcEEEENS4_IS6_EEE31__annotate_contiguous_containerB8ue170006EPKvSA_SA_SA_, symObjAddr: 0x18208, symBinAddr: 0x10001B7D4, symSize: 0x20 }
  - { offsetInCU: 0x4FE28, offset: 0x4FE28, size: 0x8, addend: 0x0, symName: __ZNKSt3__16vectorINS_12basic_stringIcNS_11char_traitsIcEENS_9allocatorIcEEEENS4_IS6_EEE4dataB8ue170006Ev, symObjAddr: 0x18228, symBinAddr: 0x10001B7F4, symSize: 0x28 }
  - { offsetInCU: 0x4FE4E, offset: 0x4FE4E, size: 0x8, addend: 0x0, symName: __ZNSt3__129_AllocatorDestroyRangeReverseINS_9allocatorINS_12basic_stringIcNS_11char_traitsIcEENS1_IcEEEEEENS_16reverse_iteratorIPS6_EEEC1B8ue170006ERS7_RSA_SD_, symObjAddr: 0x1829C, symBinAddr: 0x10001B868, symSize: 0x44 }
  - { offsetInCU: 0x4FEA5, offset: 0x4FEA5, size: 0x8, addend: 0x0, symName: __ZNSt3__116allocator_traitsINS_9allocatorINS_12basic_stringIcNS_11char_traitsIcEENS1_IcEEEEEEE9constructB8ue170006IS6_JS6_EvEEvRS7_PT_DpOT0_, symObjAddr: 0x18328, symBinAddr: 0x10001B8F4, symSize: 0x34 }
  - { offsetInCU: 0x4FEFC, offset: 0x4FEFC, size: 0x8, addend: 0x0, symName: __ZNKSt3__116reverse_iteratorIPNS_12basic_stringIcNS_11char_traitsIcEENS_9allocatorIcEEEEEdeB8ue170006Ev, symObjAddr: 0x18380, symBinAddr: 0x10001B94C, symSize: 0x28 }
  - { offsetInCU: 0x4FF30, offset: 0x4FF30, size: 0x8, addend: 0x0, symName: __ZNSt3__116reverse_iteratorIPNS_12basic_stringIcNS_11char_traitsIcEENS_9allocatorIcEEEEEppB8ue170006Ev, symObjAddr: 0x183A8, symBinAddr: 0x10001B974, symSize: 0x20 }
  - { offsetInCU: 0x4FF56, offset: 0x4FF56, size: 0x8, addend: 0x0, symName: __ZNSt3__128__exception_guard_exceptionsINS_29_AllocatorDestroyRangeReverseINS_9allocatorINS_12basic_stringIcNS_11char_traitsIcEENS2_IcEEEEEENS_16reverse_iteratorIPS7_EEEEE10__completeB8ue170006Ev, symObjAddr: 0x183C8, symBinAddr: 0x10001B994, symSize: 0x1C }
  - { offsetInCU: 0x4FF7C, offset: 0x4FF7C, size: 0x8, addend: 0x0, symName: __ZNSt3__128__exception_guard_exceptionsINS_29_AllocatorDestroyRangeReverseINS_9allocatorINS_12basic_stringIcNS_11char_traitsIcEENS2_IcEEEEEENS_16reverse_iteratorIPS7_EEEEED1B8ue170006Ev, symObjAddr: 0x183E4, symBinAddr: 0x10001B9B0, symSize: 0x2C }
  - { offsetInCU: 0x4FFA6, offset: 0x4FFA6, size: 0x8, addend: 0x0, symName: __ZNSt3__128__exception_guard_exceptionsINS_29_AllocatorDestroyRangeReverseINS_9allocatorINS_12basic_stringIcNS_11char_traitsIcEENS2_IcEEEEEENS_16reverse_iteratorIPS7_EEEEEC1B8ue170006ESC_, symObjAddr: 0x18410, symBinAddr: 0x10001B9DC, symSize: 0x34 }
  - { offsetInCU: 0x4FFDF, offset: 0x4FFDF, size: 0x8, addend: 0x0, symName: __ZNSt3__128__exception_guard_exceptionsINS_29_AllocatorDestroyRangeReverseINS_9allocatorINS_12basic_stringIcNS_11char_traitsIcEENS2_IcEEEEEENS_16reverse_iteratorIPS7_EEEEEC2B8ue170006ESC_, symObjAddr: 0x18444, symBinAddr: 0x10001BA10, symSize: 0x30 }
  - { offsetInCU: 0x50018, offset: 0x50018, size: 0x8, addend: 0x0, symName: __ZNSt3__129_AllocatorDestroyRangeReverseINS_9allocatorINS_12basic_stringIcNS_11char_traitsIcEENS1_IcEEEEEENS_16reverse_iteratorIPS6_EEEC2B8ue170006ERS7_RSA_SD_, symObjAddr: 0x18474, symBinAddr: 0x10001BA40, symSize: 0x38 }
  - { offsetInCU: 0x5006F, offset: 0x5006F, size: 0x8, addend: 0x0, symName: __ZNSt3__19allocatorINS_12basic_stringIcNS_11char_traitsIcEENS0_IcEEEEE9constructB8ue170006IS5_JS5_EEEvPT_DpOT0_, symObjAddr: 0x184AC, symBinAddr: 0x10001BA78, symSize: 0x30 }
  - { offsetInCU: 0x500CB, offset: 0x500CB, size: 0x8, addend: 0x0, symName: __ZNSt3__119__to_address_helperINS_16reverse_iteratorIPNS_12basic_stringIcNS_11char_traitsIcEENS_9allocatorIcEEEEEEvE6__callB8ue170006ERKS9_, symObjAddr: 0x184DC, symBinAddr: 0x10001BAA8, symSize: 0x38 }
  - { offsetInCU: 0x500EE, offset: 0x500EE, size: 0x8, addend: 0x0, symName: __ZNKSt3__116reverse_iteratorIPNS_12basic_stringIcNS_11char_traitsIcEENS_9allocatorIcEEEEEptB8ue170006Ev, symObjAddr: 0x18514, symBinAddr: 0x10001BAE0, symSize: 0x24 }
  - { offsetInCU: 0x50114, offset: 0x50114, size: 0x8, addend: 0x0, symName: __ZNSt3__128__exception_guard_exceptionsINS_29_AllocatorDestroyRangeReverseINS_9allocatorINS_12basic_stringIcNS_11char_traitsIcEENS2_IcEEEEEENS_16reverse_iteratorIPS7_EEEEED2B8ue170006Ev, symObjAddr: 0x18538, symBinAddr: 0x10001BB04, symSize: 0x50 }
  - { offsetInCU: 0x5013E, offset: 0x5013E, size: 0x8, addend: 0x0, symName: __ZNKSt3__129_AllocatorDestroyRangeReverseINS_9allocatorINS_12basic_stringIcNS_11char_traitsIcEENS1_IcEEEEEENS_16reverse_iteratorIPS6_EEEclB8ue170006Ev, symObjAddr: 0x18588, symBinAddr: 0x10001BB54, symSize: 0xB4 }
  - { offsetInCU: 0x50165, offset: 0x50165, size: 0x8, addend: 0x0, symName: __ZNSt3__116reverse_iteratorINS0_IPNS_12basic_stringIcNS_11char_traitsIcEENS_9allocatorIcEEEEEEEC1B8ue170006ES8_, symObjAddr: 0x186AC, symBinAddr: 0x10001BC78, symSize: 0x3C }
  - { offsetInCU: 0x5019D, offset: 0x5019D, size: 0x8, addend: 0x0, symName: __ZNSt3__116allocator_traitsINS_9allocatorINS_12basic_stringIcNS_11char_traitsIcEENS1_IcEEEEEEE7destroyB8ue170006IS6_vEEvRS7_PT_, symObjAddr: 0x18748, symBinAddr: 0x10001BD14, symSize: 0x2C }
  - { offsetInCU: 0x501DA, offset: 0x501DA, size: 0x8, addend: 0x0, symName: __ZNSt3__116reverse_iteratorINS0_IPNS_12basic_stringIcNS_11char_traitsIcEENS_9allocatorIcEEEEEEEppB8ue170006Ev, symObjAddr: 0x18798, symBinAddr: 0x10001BD64, symSize: 0x30 }
  - { offsetInCU: 0x50200, offset: 0x50200, size: 0x8, addend: 0x0, symName: __ZNKSt3__116reverse_iteratorINS0_IPNS_12basic_stringIcNS_11char_traitsIcEENS_9allocatorIcEEEEEEE4baseB8ue170006Ev, symObjAddr: 0x187C8, symBinAddr: 0x10001BD94, symSize: 0x24 }
  - { offsetInCU: 0x50226, offset: 0x50226, size: 0x8, addend: 0x0, symName: __ZNSt3__19allocatorINS_12basic_stringIcNS_11char_traitsIcEENS0_IcEEEEE7destroyB8ue170006EPS5_, symObjAddr: 0x187EC, symBinAddr: 0x10001BDB8, symSize: 0x28 }
  - { offsetInCU: 0x50260, offset: 0x50260, size: 0x8, addend: 0x0, symName: __ZNSt3__119__to_address_helperINS_16reverse_iteratorINS1_IPNS_12basic_stringIcNS_11char_traitsIcEENS_9allocatorIcEEEEEEEEvE6__callB8ue170006ERKSA_, symObjAddr: 0x18814, symBinAddr: 0x10001BDE0, symSize: 0x38 }
  - { offsetInCU: 0x50283, offset: 0x50283, size: 0x8, addend: 0x0, symName: __ZNKSt3__116reverse_iteratorINS0_IPNS_12basic_stringIcNS_11char_traitsIcEENS_9allocatorIcEEEEEEEptB8ue170006Ev, symObjAddr: 0x1884C, symBinAddr: 0x10001BE18, symSize: 0x24 }
  - { offsetInCU: 0x502A9, offset: 0x502A9, size: 0x8, addend: 0x0, symName: __ZNKSt3__116reverse_iteratorINS0_IPNS_12basic_stringIcNS_11char_traitsIcEENS_9allocatorIcEEEEEEEdeB8ue170006Ev, symObjAddr: 0x18870, symBinAddr: 0x10001BE3C, symSize: 0x34 }
  - { offsetInCU: 0x502DD, offset: 0x502DD, size: 0x8, addend: 0x0, symName: __ZNSt3__116reverse_iteratorIPNS_12basic_stringIcNS_11char_traitsIcEENS_9allocatorIcEEEEEmmB8ue170006Ev, symObjAddr: 0x188A4, symBinAddr: 0x10001BE70, symSize: 0x20 }
  - { offsetInCU: 0x50303, offset: 0x50303, size: 0x8, addend: 0x0, symName: __ZNSt3__116reverse_iteratorINS0_IPNS_12basic_stringIcNS_11char_traitsIcEENS_9allocatorIcEEEEEEEC2B8ue170006ES8_, symObjAddr: 0x188C4, symBinAddr: 0x10001BE90, symSize: 0x2C }
  - { offsetInCU: 0x5033B, offset: 0x5033B, size: 0x8, addend: 0x0, symName: __ZNSt3__116reverse_iteratorIPNS_12basic_stringIcNS_11char_traitsIcEENS_9allocatorIcEEEEEC2B8ue170006ES7_, symObjAddr: 0x188F0, symBinAddr: 0x10001BEBC, symSize: 0x28 }
  - { offsetInCU: 0x50373, offset: 0x50373, size: 0x8, addend: 0x0, symName: __ZNSt3__114__split_bufferINS_12basic_stringIcNS_11char_traitsIcEENS_9allocatorIcEEEERNS4_IS6_EEED2Ev, symObjAddr: 0x18918, symBinAddr: 0x10001BEE4, symSize: 0x8C }
  - { offsetInCU: 0x5039F, offset: 0x5039F, size: 0x8, addend: 0x0, symName: __ZNSt3__114__split_bufferINS_12basic_stringIcNS_11char_traitsIcEENS_9allocatorIcEEEERNS4_IS6_EEE5clearB8ue170006Ev, symObjAddr: 0x189A4, symBinAddr: 0x10001BF70, symSize: 0x28 }
  - { offsetInCU: 0x503C5, offset: 0x503C5, size: 0x8, addend: 0x0, symName: __ZNSt3__116allocator_traitsINS_9allocatorINS_12basic_stringIcNS_11char_traitsIcEENS1_IcEEEEEEE10deallocateB8ue170006ERS7_PS6_m, symObjAddr: 0x189CC, symBinAddr: 0x10001BF98, symSize: 0x34 }
  - { offsetInCU: 0x50407, offset: 0x50407, size: 0x8, addend: 0x0, symName: __ZNKSt3__114__split_bufferINS_12basic_stringIcNS_11char_traitsIcEENS_9allocatorIcEEEERNS4_IS6_EEE8capacityB8ue170006Ev, symObjAddr: 0x18A00, symBinAddr: 0x10001BFCC, symSize: 0x40 }
  - { offsetInCU: 0x5042D, offset: 0x5042D, size: 0x8, addend: 0x0, symName: __ZNSt3__114__split_bufferINS_12basic_stringIcNS_11char_traitsIcEENS_9allocatorIcEEEERNS4_IS6_EEE17__destruct_at_endB8ue170006EPS6_, symObjAddr: 0x18A40, symBinAddr: 0x10001C00C, symSize: 0x2C }
  - { offsetInCU: 0x50461, offset: 0x50461, size: 0x8, addend: 0x0, symName: __ZNSt3__114__split_bufferINS_12basic_stringIcNS_11char_traitsIcEENS_9allocatorIcEEEERNS4_IS6_EEE17__destruct_at_endB8ue170006EPS6_NS_17integral_constantIbLb0EEE, symObjAddr: 0x18A6C, symBinAddr: 0x10001C038, symSize: 0x80 }
  - { offsetInCU: 0x504A2, offset: 0x504A2, size: 0x8, addend: 0x0, symName: __ZNSt3__19allocatorINS_12basic_stringIcNS_11char_traitsIcEENS0_IcEEEEE10deallocateB8ue170006EPS5_m, symObjAddr: 0x18AEC, symBinAddr: 0x10001C0B8, symSize: 0x44 }
  - { offsetInCU: 0x504E4, offset: 0x504E4, size: 0x8, addend: 0x0, symName: __ZNKSt3__114__split_bufferINS_12basic_stringIcNS_11char_traitsIcEENS_9allocatorIcEEEERNS4_IS6_EEE9__end_capB8ue170006Ev, symObjAddr: 0x18B30, symBinAddr: 0x10001C0FC, symSize: 0x28 }
  - { offsetInCU: 0x5050A, offset: 0x5050A, size: 0x8, addend: 0x0, symName: __ZNKSt3__117__compressed_pairIPNS_12basic_stringIcNS_11char_traitsIcEENS_9allocatorIcEEEERNS4_IS6_EEE5firstB8ue170006Ev, symObjAddr: 0x18B58, symBinAddr: 0x10001C124, symSize: 0x24 }
  - { offsetInCU: 0x50530, offset: 0x50530, size: 0x8, addend: 0x0, symName: __ZN8RelationC2ERKNSt3__112basic_stringIcNS0_11char_traitsIcEENS0_9allocatorIcEEEERK6Scheme, symObjAddr: 0x18B7C, symBinAddr: 0x10001C148, symSize: 0x7C }
  - { offsetInCU: 0x50576, offset: 0x50576, size: 0x8, addend: 0x0, symName: __ZN6SchemeC1ERKS_, symObjAddr: 0x18BF8, symBinAddr: 0x10001C1C4, symSize: 0x34 }
  - { offsetInCU: 0x505AB, offset: 0x505AB, size: 0x8, addend: 0x0, symName: __ZNSt3__13setI5TupleNS_4lessIS1_EENS_9allocatorIS1_EEEC1B8ue170006Ev, symObjAddr: 0x18C2C, symBinAddr: 0x10001C1F8, symSize: 0x2C }
  - { offsetInCU: 0x505D5, offset: 0x505D5, size: 0x8, addend: 0x0, symName: __ZN6SchemeC2ERKS_, symObjAddr: 0x18C58, symBinAddr: 0x10001C224, symSize: 0x34 }
  - { offsetInCU: 0x5060A, offset: 0x5060A, size: 0x8, addend: 0x0, symName: __ZNSt3__16vectorINS_12basic_stringIcNS_11char_traitsIcEENS_9allocatorIcEEEENS4_IS6_EEEC2ERKS8_, symObjAddr: 0x18C8C, symBinAddr: 0x10001C258, symSize: 0x94 }
  - { offsetInCU: 0x50645, offset: 0x50645, size: 0x8, addend: 0x0, symName: __ZNSt3__116allocator_traitsINS_9allocatorINS_12basic_stringIcNS_11char_traitsIcEENS1_IcEEEEEEE37select_on_container_copy_constructionB8ue170006IS7_vvEES7_RKS7_, symObjAddr: 0x18D20, symBinAddr: 0x10001C2EC, symSize: 0x10 }
  - { offsetInCU: 0x5067A, offset: 0x5067A, size: 0x8, addend: 0x0, symName: __ZNSt3__117__compressed_pairIPNS_12basic_stringIcNS_11char_traitsIcEENS_9allocatorIcEEEENS4_IS6_EEEC1B8ue170006IDnS8_EEOT_OT0_, symObjAddr: 0x18D30, symBinAddr: 0x10001C2FC, symSize: 0x3C }
  - { offsetInCU: 0x506D2, offset: 0x506D2, size: 0x8, addend: 0x0, symName: __ZNSt3__16vectorINS_12basic_stringIcNS_11char_traitsIcEENS_9allocatorIcEEEENS4_IS6_EEE16__init_with_sizeB8ue170006IPS6_SA_EEvT_T0_m, symObjAddr: 0x18D6C, symBinAddr: 0x10001C338, symSize: 0xB8 }
  - { offsetInCU: 0x50746, offset: 0x50746, size: 0x8, addend: 0x0, symName: __ZNSt3__117__compressed_pairIPNS_12basic_stringIcNS_11char_traitsIcEENS_9allocatorIcEEEENS4_IS6_EEEC2B8ue170006IDnS8_EEOT_OT0_, symObjAddr: 0x18E24, symBinAddr: 0x10001C3F0, symSize: 0x44 }
  - { offsetInCU: 0x5079E, offset: 0x5079E, size: 0x8, addend: 0x0, symName: __ZNSt3__122__compressed_pair_elemINS_9allocatorINS_12basic_stringIcNS_11char_traitsIcEENS1_IcEEEEEELi1ELb1EEC2B8ue170006IS7_vEEOT_, symObjAddr: 0x18E68, symBinAddr: 0x10001C434, symSize: 0x18 }
  - { offsetInCU: 0x507E0, offset: 0x507E0, size: 0x8, addend: 0x0, symName: __ZNSt3__16vectorINS_12basic_stringIcNS_11char_traitsIcEENS_9allocatorIcEEEENS4_IS6_EEE16__destroy_vectorC1B8ue170006ERS8_, symObjAddr: 0x18EC0, symBinAddr: 0x10001C48C, symSize: 0x34 }
  - { offsetInCU: 0x50819, offset: 0x50819, size: 0x8, addend: 0x0, symName: __ZNSt3__16vectorINS_12basic_stringIcNS_11char_traitsIcEENS_9allocatorIcEEEENS4_IS6_EEE11__vallocateB8ue170006Em, symObjAddr: 0x18EF4, symBinAddr: 0x10001C4C0, symSize: 0xB4 }
  - { offsetInCU: 0x5085D, offset: 0x5085D, size: 0x8, addend: 0x0, symName: __ZNSt3__16vectorINS_12basic_stringIcNS_11char_traitsIcEENS_9allocatorIcEEEENS4_IS6_EEE18__construct_at_endIPS6_SA_EEvT_T0_m, symObjAddr: 0x18FA8, symBinAddr: 0x10001C574, symSize: 0x8C }
  - { offsetInCU: 0x508D3, offset: 0x508D3, size: 0x8, addend: 0x0, symName: __ZNSt3__128__exception_guard_exceptionsINS_6vectorINS_12basic_stringIcNS_11char_traitsIcEENS_9allocatorIcEEEENS5_IS7_EEE16__destroy_vectorEE10__completeB8ue170006Ev, symObjAddr: 0x19034, symBinAddr: 0x10001C600, symSize: 0x1C }
  - { offsetInCU: 0x508F9, offset: 0x508F9, size: 0x8, addend: 0x0, symName: __ZNSt3__128__exception_guard_exceptionsINS_6vectorINS_12basic_stringIcNS_11char_traitsIcEENS_9allocatorIcEEEENS5_IS7_EEE16__destroy_vectorEED1B8ue170006Ev, symObjAddr: 0x19050, symBinAddr: 0x10001C61C, symSize: 0x2C }
  - { offsetInCU: 0x50923, offset: 0x50923, size: 0x8, addend: 0x0, symName: __ZNSt3__128__exception_guard_exceptionsINS_6vectorINS_12basic_stringIcNS_11char_traitsIcEENS_9allocatorIcEEEENS5_IS7_EEE16__destroy_vectorEEC1B8ue170006ESA_, symObjAddr: 0x1907C, symBinAddr: 0x10001C648, symSize: 0x34 }
  - { offsetInCU: 0x5095B, offset: 0x5095B, size: 0x8, addend: 0x0, symName: __ZNSt3__128__exception_guard_exceptionsINS_6vectorINS_12basic_stringIcNS_11char_traitsIcEENS_9allocatorIcEEEENS5_IS7_EEE16__destroy_vectorEEC2B8ue170006ESA_, symObjAddr: 0x190B0, symBinAddr: 0x10001C67C, symSize: 0x24 }
  - { offsetInCU: 0x50993, offset: 0x50993, size: 0x8, addend: 0x0, symName: __ZNSt3__16vectorINS_12basic_stringIcNS_11char_traitsIcEENS_9allocatorIcEEEENS4_IS6_EEE16__destroy_vectorC2B8ue170006ERS8_, symObjAddr: 0x190D4, symBinAddr: 0x10001C6A0, symSize: 0x20 }
  - { offsetInCU: 0x509EF, offset: 0x509EF, size: 0x8, addend: 0x0, symName: __ZNSt3__14pairIPNS_12basic_stringIcNS_11char_traitsIcEENS_9allocatorIcEEEES7_EC1B8ue170006IS7_S7_LPv0EEEOT_OT0_, symObjAddr: 0x19360, symBinAddr: 0x10001C92C, symSize: 0x3C }
  - { offsetInCU: 0x50A4D, offset: 0x50A4D, size: 0x8, addend: 0x0, symName: __ZNSt3__14pairIPNS_12basic_stringIcNS_11char_traitsIcEENS_9allocatorIcEEEES7_EC2B8ue170006IS7_S7_LPv0EEEOT_OT0_, symObjAddr: 0x1939C, symBinAddr: 0x10001C968, symSize: 0x34 }
  - { offsetInCU: 0x50AAB, offset: 0x50AAB, size: 0x8, addend: 0x0, symName: __ZNSt3__129_AllocatorDestroyRangeReverseINS_9allocatorINS_12basic_stringIcNS_11char_traitsIcEENS1_IcEEEEEEPS6_EC1B8ue170006ERS7_RS8_SB_, symObjAddr: 0x1941C, symBinAddr: 0x10001C9E8, symSize: 0x44 }
  - { offsetInCU: 0x50B02, offset: 0x50B02, size: 0x8, addend: 0x0, symName: __ZNSt3__116allocator_traitsINS_9allocatorINS_12basic_stringIcNS_11char_traitsIcEENS1_IcEEEEEEE9constructB8ue170006IS6_JRS6_EvEEvRS7_PT_DpOT0_, symObjAddr: 0x19460, symBinAddr: 0x10001CA2C, symSize: 0x34 }
  - { offsetInCU: 0x50B59, offset: 0x50B59, size: 0x8, addend: 0x0, symName: __ZNSt3__128__exception_guard_exceptionsINS_29_AllocatorDestroyRangeReverseINS_9allocatorINS_12basic_stringIcNS_11char_traitsIcEENS2_IcEEEEEEPS7_EEE10__completeB8ue170006Ev, symObjAddr: 0x19494, symBinAddr: 0x10001CA60, symSize: 0x1C }
  - { offsetInCU: 0x50B7F, offset: 0x50B7F, size: 0x8, addend: 0x0, symName: __ZNSt3__128__exception_guard_exceptionsINS_29_AllocatorDestroyRangeReverseINS_9allocatorINS_12basic_stringIcNS_11char_traitsIcEENS2_IcEEEEEEPS7_EEED1B8ue170006Ev, symObjAddr: 0x194B0, symBinAddr: 0x10001CA7C, symSize: 0x2C }
  - { offsetInCU: 0x50BA9, offset: 0x50BA9, size: 0x8, addend: 0x0, symName: __ZNSt3__128__exception_guard_exceptionsINS_29_AllocatorDestroyRangeReverseINS_9allocatorINS_12basic_stringIcNS_11char_traitsIcEENS2_IcEEEEEEPS7_EEEC1B8ue170006ESA_, symObjAddr: 0x194DC, symBinAddr: 0x10001CAA8, symSize: 0x34 }
  - { offsetInCU: 0x50BE2, offset: 0x50BE2, size: 0x8, addend: 0x0, symName: __ZNSt3__128__exception_guard_exceptionsINS_29_AllocatorDestroyRangeReverseINS_9allocatorINS_12basic_stringIcNS_11char_traitsIcEENS2_IcEEEEEEPS7_EEEC2B8ue170006ESA_, symObjAddr: 0x19510, symBinAddr: 0x10001CADC, symSize: 0x30 }
  - { offsetInCU: 0x50C1B, offset: 0x50C1B, size: 0x8, addend: 0x0, symName: __ZNSt3__129_AllocatorDestroyRangeReverseINS_9allocatorINS_12basic_stringIcNS_11char_traitsIcEENS1_IcEEEEEEPS6_EC2B8ue170006ERS7_RS8_SB_, symObjAddr: 0x19540, symBinAddr: 0x10001CB0C, symSize: 0x38 }
  - { offsetInCU: 0x50C72, offset: 0x50C72, size: 0x8, addend: 0x0, symName: __ZNSt3__19allocatorINS_12basic_stringIcNS_11char_traitsIcEENS0_IcEEEEE9constructB8ue170006IS5_JRS5_EEEvPT_DpOT0_, symObjAddr: 0x19578, symBinAddr: 0x10001CB44, symSize: 0x30 }
  - { offsetInCU: 0x50CC8, offset: 0x50CC8, size: 0x8, addend: 0x0, symName: __ZNSt3__128__exception_guard_exceptionsINS_29_AllocatorDestroyRangeReverseINS_9allocatorINS_12basic_stringIcNS_11char_traitsIcEENS2_IcEEEEEEPS7_EEED2B8ue170006Ev, symObjAddr: 0x195A8, symBinAddr: 0x10001CB74, symSize: 0x50 }
  - { offsetInCU: 0x50CF2, offset: 0x50CF2, size: 0x8, addend: 0x0, symName: __ZNKSt3__129_AllocatorDestroyRangeReverseINS_9allocatorINS_12basic_stringIcNS_11char_traitsIcEENS1_IcEEEEEEPS6_EclB8ue170006Ev, symObjAddr: 0x195F8, symBinAddr: 0x10001CBC4, symSize: 0x68 }
  - { offsetInCU: 0x50D18, offset: 0x50D18, size: 0x8, addend: 0x0, symName: __ZNSt3__118__unwrap_iter_implIPNS_12basic_stringIcNS_11char_traitsIcEENS_9allocatorIcEEEELb1EE8__unwrapB8ue170006ES7_, symObjAddr: 0x196D0, symBinAddr: 0x10001CC9C, symSize: 0x24 }
  - { offsetInCU: 0x50D3B, offset: 0x50D3B, size: 0x8, addend: 0x0, symName: __ZNSt3__118__unwrap_iter_implIPNS_12basic_stringIcNS_11char_traitsIcEENS_9allocatorIcEEEELb1EE8__rewrapB8ue170006ES7_S7_, symObjAddr: 0x196F4, symBinAddr: 0x10001CCC0, symSize: 0x58 }
  - { offsetInCU: 0x50D6C, offset: 0x50D6C, size: 0x8, addend: 0x0, symName: __ZNSt3__128__exception_guard_exceptionsINS_6vectorINS_12basic_stringIcNS_11char_traitsIcEENS_9allocatorIcEEEENS5_IS7_EEE16__destroy_vectorEED2B8ue170006Ev, symObjAddr: 0x1974C, symBinAddr: 0x10001CD18, symSize: 0x50 }
  - { offsetInCU: 0x50D96, offset: 0x50D96, size: 0x8, addend: 0x0, symName: __ZNSt3__16vectorINS_12basic_stringIcNS_11char_traitsIcEENS_9allocatorIcEEEENS4_IS6_EEE16__destroy_vectorclB8ue170006Ev, symObjAddr: 0x1979C, symBinAddr: 0x10001CD68, symSize: 0x90 }
  - { offsetInCU: 0x50DBC, offset: 0x50DBC, size: 0x8, addend: 0x0, symName: __ZNSt3__16vectorINS_12basic_stringIcNS_11char_traitsIcEENS_9allocatorIcEEEENS4_IS6_EEE7__clearB8ue170006Ev, symObjAddr: 0x1982C, symBinAddr: 0x10001CDF8, symSize: 0x28 }
  - { offsetInCU: 0x50DE2, offset: 0x50DE2, size: 0x8, addend: 0x0, symName: __ZNSt3__16vectorINS_12basic_stringIcNS_11char_traitsIcEENS_9allocatorIcEEEENS4_IS6_EEE22__base_destruct_at_endB8ue170006EPS6_, symObjAddr: 0x19854, symBinAddr: 0x10001CE20, symSize: 0x8C }
  - { offsetInCU: 0x50E26, offset: 0x50E26, size: 0x8, addend: 0x0, symName: __ZNSt3__13setI5TupleNS_4lessIS1_EENS_9allocatorIS1_EEEC2B8ue170006Ev, symObjAddr: 0x198E0, symBinAddr: 0x10001CEAC, symSize: 0x30 }
  - { offsetInCU: 0x50E50, offset: 0x50E50, size: 0x8, addend: 0x0, symName: __ZNSt3__16__treeI5TupleNS_4lessIS1_EENS_9allocatorIS1_EEEC1ERKS3_, symObjAddr: 0x19910, symBinAddr: 0x10001CEDC, symSize: 0x34 }
  - { offsetInCU: 0x50E8B, offset: 0x50E8B, size: 0x8, addend: 0x0, symName: __ZNSt3__16__treeI5TupleNS_4lessIS1_EENS_9allocatorIS1_EEEC2ERKS3_, symObjAddr: 0x19944, symBinAddr: 0x10001CF10, symSize: 0x7C }
  - { offsetInCU: 0x50EC6, offset: 0x50EC6, size: 0x8, addend: 0x0, symName: __ZNSt3__117__compressed_pairINS_15__tree_end_nodeIPNS_16__tree_node_baseIPvEEEENS_9allocatorINS_11__tree_nodeI5TupleS3_EEEEEC1B8ue170006ILb1EvEEv, symObjAddr: 0x199C0, symBinAddr: 0x10001CF8C, symSize: 0x2C }
  - { offsetInCU: 0x50EFB, offset: 0x50EFB, size: 0x8, addend: 0x0, symName: __ZNSt3__117__compressed_pairImNS_4lessI5TupleEEEC1B8ue170006IiRKS3_EEOT_OT0_, symObjAddr: 0x199EC, symBinAddr: 0x10001CFB8, symSize: 0x3C }
  - { offsetInCU: 0x50F53, offset: 0x50F53, size: 0x8, addend: 0x0, symName: __ZNSt3__16__treeI5TupleNS_4lessIS1_EENS_9allocatorIS1_EEE10__end_nodeB8ue170006Ev, symObjAddr: 0x19A28, symBinAddr: 0x10001CFF4, symSize: 0x2C }
  - { offsetInCU: 0x50F79, offset: 0x50F79, size: 0x8, addend: 0x0, symName: __ZNSt3__16__treeI5TupleNS_4lessIS1_EENS_9allocatorIS1_EEE12__begin_nodeB8ue170006Ev, symObjAddr: 0x19A54, symBinAddr: 0x10001D020, symSize: 0x14 }
  - { offsetInCU: 0x50F9F, offset: 0x50F9F, size: 0x8, addend: 0x0, symName: __ZNSt3__117__compressed_pairINS_15__tree_end_nodeIPNS_16__tree_node_baseIPvEEEENS_9allocatorINS_11__tree_nodeI5TupleS3_EEEEEC2B8ue170006ILb1EvEEv, symObjAddr: 0x19A68, symBinAddr: 0x10001D034, symSize: 0x34 }
  - { offsetInCU: 0x50FD4, offset: 0x50FD4, size: 0x8, addend: 0x0, symName: __ZNSt3__122__compressed_pair_elemINS_9allocatorINS_11__tree_nodeI5TuplePvEEEELi1ELb1EEC2B8ue170006ENS_16__value_init_tagE, symObjAddr: 0x19A9C, symBinAddr: 0x10001D068, symSize: 0x2C }
  - { offsetInCU: 0x51009, offset: 0x51009, size: 0x8, addend: 0x0, symName: __ZNSt3__19allocatorINS_11__tree_nodeI5TuplePvEEEC2B8ue170006Ev, symObjAddr: 0x19AC8, symBinAddr: 0x10001D094, symSize: 0x2C }
  - { offsetInCU: 0x51033, offset: 0x51033, size: 0x8, addend: 0x0, symName: __ZNSt3__116__non_trivial_ifILb1ENS_9allocatorINS_11__tree_nodeI5TuplePvEEEEEC2B8ue170006Ev, symObjAddr: 0x19AF4, symBinAddr: 0x10001D0C0, symSize: 0x14 }
  - { offsetInCU: 0x5105D, offset: 0x5105D, size: 0x8, addend: 0x0, symName: __ZNSt3__117__compressed_pairImNS_4lessI5TupleEEEC2B8ue170006IiRKS3_EEOT_OT0_, symObjAddr: 0x19B08, symBinAddr: 0x10001D0D4, symSize: 0x44 }
  - { offsetInCU: 0x510B5, offset: 0x510B5, size: 0x8, addend: 0x0, symName: __ZNSt3__122__compressed_pair_elemINS_4lessI5TupleEELi1ELb1EEC2B8ue170006IRKS3_vEEOT_, symObjAddr: 0x19B4C, symBinAddr: 0x10001D118, symSize: 0x18 }
  - { offsetInCU: 0x510F7, offset: 0x510F7, size: 0x8, addend: 0x0, symName: __ZNSt3__117__compressed_pairINS_15__tree_end_nodeIPNS_16__tree_node_baseIPvEEEENS_9allocatorINS_11__tree_nodeI5TupleS3_EEEEE5firstB8ue170006Ev, symObjAddr: 0x19B64, symBinAddr: 0x10001D130, symSize: 0x24 }
  - { offsetInCU: 0x5111D, offset: 0x5111D, size: 0x8, addend: 0x0, symName: __ZNSt3__16__treeINS_12__value_typeINS_12basic_stringIcNS_11char_traitsIcEENS_9allocatorIcEEEE8RelationEENS_19__map_value_compareIS7_S9_NS_4lessIS7_EELb1EEENS5_IS9_EEE15__insert_uniqueB8ue170006INS_4pairIS7_S8_EEvEENSH_INS_15__tree_iteratorIS9_PNS_11__tree_nodeIS9_PvEElEEbEEOT_, symObjAddr: 0x19B88, symBinAddr: 0x10001D154, symSize: 0x3C }
  - { offsetInCU: 0x5115C, offset: 0x5115C, size: 0x8, addend: 0x0, symName: __ZNSt3__14pairINS_14__map_iteratorINS_15__tree_iteratorINS_12__value_typeINS_12basic_stringIcNS_11char_traitsIcEENS_9allocatorIcEEEE8RelationEEPNS_11__tree_nodeISB_PvEElEEEEbEC1B8ue170006ISG_bLSD_0EEEONS0_IT_T0_EE, symObjAddr: 0x19BC4, symBinAddr: 0x10001D190, symSize: 0x34 }
  - { offsetInCU: 0x511AD, offset: 0x511AD, size: 0x8, addend: 0x0, symName: __ZNSt3__16__treeINS_12__value_typeINS_12basic_stringIcNS_11char_traitsIcEENS_9allocatorIcEEEE8RelationEENS_19__map_value_compareIS7_S9_NS_4lessIS7_EELb1EEENS5_IS9_EEE16__emplace_uniqueB8ue170006INS_4pairIS7_S8_EEEENSH_INS_15__tree_iteratorIS9_PNS_11__tree_nodeIS9_PvEElEEbEEOT_, symObjAddr: 0x19BF8, symBinAddr: 0x10001D1C4, symSize: 0x3C }
  - { offsetInCU: 0x511EB, offset: 0x511EB, size: 0x8, addend: 0x0, symName: __ZNSt3__16__treeINS_12__value_typeINS_12basic_stringIcNS_11char_traitsIcEENS_9allocatorIcEEEE8RelationEENS_19__map_value_compareIS7_S9_NS_4lessIS7_EELb1EEENS5_IS9_EEE28__emplace_unique_extract_keyB8ue170006INS_4pairIS7_S8_EEEENSH_INS_15__tree_iteratorIS9_PNS_11__tree_nodeIS9_PvEElEEbEEOT_NS_23__extract_key_first_tagE, symObjAddr: 0x19C34, symBinAddr: 0x10001D200, symSize: 0x40 }
  - { offsetInCU: 0x51235, offset: 0x51235, size: 0x8, addend: 0x0, symName: __ZNSt3__16__treeINS_12__value_typeINS_12basic_stringIcNS_11char_traitsIcEENS_9allocatorIcEEEE8RelationEENS_19__map_value_compareIS7_S9_NS_4lessIS7_EELb1EEENS5_IS9_EEE25__emplace_unique_key_argsIS7_JNS_4pairIS7_S8_EEEEENSH_INS_15__tree_iteratorIS9_PNS_11__tree_nodeIS9_PvEElEEbEERKT_DpOT0_, symObjAddr: 0x19C74, symBinAddr: 0x10001D240, symSize: 0xF0 }
  - { offsetInCU: 0x512E1, offset: 0x512E1, size: 0x8, addend: 0x0, symName: __ZNSt3__16__treeINS_12__value_typeINS_12basic_stringIcNS_11char_traitsIcEENS_9allocatorIcEEEE8RelationEENS_19__map_value_compareIS7_S9_NS_4lessIS7_EELb1EEENS5_IS9_EEE12__find_equalIS7_EERPNS_16__tree_node_baseIPvEERPNS_15__tree_end_nodeISK_EERKT_, symObjAddr: 0x19D64, symBinAddr: 0x10001D330, symSize: 0x184 }
  - { offsetInCU: 0x5134E, offset: 0x5134E, size: 0x8, addend: 0x0, symName: __ZNSt3__16__treeINS_12__value_typeINS_12basic_stringIcNS_11char_traitsIcEENS_9allocatorIcEEEE8RelationEENS_19__map_value_compareIS7_S9_NS_4lessIS7_EELb1EEENS5_IS9_EEE16__construct_nodeIJNS_4pairIS7_S8_EEEEENS_10unique_ptrINS_11__tree_nodeIS9_PvEENS_22__tree_node_destructorINS5_ISM_EEEEEEDpOT_, symObjAddr: 0x19EE8, symBinAddr: 0x10001D4B4, symSize: 0x110 }
  - { offsetInCU: 0x513AF, offset: 0x513AF, size: 0x8, addend: 0x0, symName: __ZNSt3__16__treeINS_12__value_typeINS_12basic_stringIcNS_11char_traitsIcEENS_9allocatorIcEEEE8RelationEENS_19__map_value_compareIS7_S9_NS_4lessIS7_EELb1EEENS5_IS9_EEE16__insert_node_atEPNS_15__tree_end_nodeIPNS_16__tree_node_baseIPvEEEERSK_SK_, symObjAddr: 0x19FF8, symBinAddr: 0x10001D5C4, symSize: 0xCC }
  - { offsetInCU: 0x51404, offset: 0x51404, size: 0x8, addend: 0x0, symName: __ZNKSt3__110unique_ptrINS_11__tree_nodeINS_12__value_typeINS_12basic_stringIcNS_11char_traitsIcEENS_9allocatorIcEEEE8RelationEEPvEENS_22__tree_node_destructorINS6_ISC_EEEEE3getB8ue170006Ev, symObjAddr: 0x1A0C4, symBinAddr: 0x10001D690, symSize: 0x28 }
  - { offsetInCU: 0x5142A, offset: 0x5142A, size: 0x8, addend: 0x0, symName: __ZNSt3__110unique_ptrINS_11__tree_nodeINS_12__value_typeINS_12basic_stringIcNS_11char_traitsIcEENS_9allocatorIcEEEE8RelationEEPvEENS_22__tree_node_destructorINS6_ISC_EEEEE7releaseB8ue170006Ev, symObjAddr: 0x1A0EC, symBinAddr: 0x10001D6B8, symSize: 0x44 }
  - { offsetInCU: 0x5145F, offset: 0x5145F, size: 0x8, addend: 0x0, symName: __ZNSt3__110unique_ptrINS_11__tree_nodeINS_12__value_typeINS_12basic_stringIcNS_11char_traitsIcEENS_9allocatorIcEEEE8RelationEEPvEENS_22__tree_node_destructorINS6_ISC_EEEEED1B8ue170006Ev, symObjAddr: 0x1A130, symBinAddr: 0x10001D6FC, symSize: 0x2C }
  - { offsetInCU: 0x51489, offset: 0x51489, size: 0x8, addend: 0x0, symName: __ZNSt3__115__tree_iteratorINS_12__value_typeINS_12basic_stringIcNS_11char_traitsIcEENS_9allocatorIcEEEE8RelationEEPNS_11__tree_nodeIS9_PvEElEC1B8ue170006ESD_, symObjAddr: 0x1A15C, symBinAddr: 0x10001D728, symSize: 0x34 }
  - { offsetInCU: 0x514C8, offset: 0x514C8, size: 0x8, addend: 0x0, symName: __ZNSt3__14pairINS_15__tree_iteratorINS_12__value_typeINS_12basic_stringIcNS_11char_traitsIcEENS_9allocatorIcEEEE8RelationEEPNS_11__tree_nodeISA_PvEElEEbEC1B8ue170006ISF_RbLSC_0EEEOT_OT0_, symObjAddr: 0x1A190, symBinAddr: 0x10001D75C, symSize: 0x3C }
  - { offsetInCU: 0x51526, offset: 0x51526, size: 0x8, addend: 0x0, symName: __ZNKSt3__16__treeINS_12__value_typeINS_12basic_stringIcNS_11char_traitsIcEENS_9allocatorIcEEEE8RelationEENS_19__map_value_compareIS7_S9_NS_4lessIS7_EELb1EEENS5_IS9_EEE6__rootB8ue170006Ev, symObjAddr: 0x1A1CC, symBinAddr: 0x10001D798, symSize: 0x28 }
  - { offsetInCU: 0x5154C, offset: 0x5154C, size: 0x8, addend: 0x0, symName: __ZNKSt3__16__treeINS_12__value_typeINS_12basic_stringIcNS_11char_traitsIcEENS_9allocatorIcEEEE8RelationEENS_19__map_value_compareIS7_S9_NS_4lessIS7_EELb1EEENS5_IS9_EEE10__root_ptrB8ue170006Ev, symObjAddr: 0x1A1F4, symBinAddr: 0x10001D7C0, symSize: 0x24 }
  - { offsetInCU: 0x51572, offset: 0x51572, size: 0x8, addend: 0x0, symName: __ZNSt3__16__treeINS_12__value_typeINS_12basic_stringIcNS_11char_traitsIcEENS_9allocatorIcEEEE8RelationEENS_19__map_value_compareIS7_S9_NS_4lessIS7_EELb1EEENS5_IS9_EEE10value_compB8ue170006Ev, symObjAddr: 0x1A218, symBinAddr: 0x10001D7E4, symSize: 0x28 }
  - { offsetInCU: 0x51598, offset: 0x51598, size: 0x8, addend: 0x0, symName: __ZNKSt3__119__map_value_compareINS_12basic_stringIcNS_11char_traitsIcEENS_9allocatorIcEEEENS_12__value_typeIS6_8RelationEENS_4lessIS6_EELb1EEclB8ue170006ERKS6_RKS9_, symObjAddr: 0x1A240, symBinAddr: 0x10001D80C, symSize: 0x50 }
  - { offsetInCU: 0x515DC, offset: 0x515DC, size: 0x8, addend: 0x0, symName: __ZNKSt3__119__map_value_compareINS_12basic_stringIcNS_11char_traitsIcEENS_9allocatorIcEEEENS_12__value_typeIS6_8RelationEENS_4lessIS6_EELb1EEclB8ue170006ERKS9_RKS6_, symObjAddr: 0x1A290, symBinAddr: 0x10001D85C, symSize: 0x48 }
  - { offsetInCU: 0x51620, offset: 0x51620, size: 0x8, addend: 0x0, symName: __ZNKSt3__16__treeINS_12__value_typeINS_12basic_stringIcNS_11char_traitsIcEENS_9allocatorIcEEEE8RelationEENS_19__map_value_compareIS7_S9_NS_4lessIS7_EELb1EEENS5_IS9_EEE10__end_nodeB8ue170006Ev, symObjAddr: 0x1A2D8, symBinAddr: 0x10001D8A4, symSize: 0x2C }
  - { offsetInCU: 0x51646, offset: 0x51646, size: 0x8, addend: 0x0, symName: __ZNKSt3__117__compressed_pairINS_15__tree_end_nodeIPNS_16__tree_node_baseIPvEEEENS_9allocatorINS_11__tree_nodeINS_12__value_typeINS_12basic_stringIcNS_11char_traitsIcEENS7_IcEEEE8RelationEES3_EEEEE5firstB8ue170006Ev, symObjAddr: 0x1A304, symBinAddr: 0x10001D8D0, symSize: 0x24 }
  - { offsetInCU: 0x5166C, offset: 0x5166C, size: 0x8, addend: 0x0, symName: __ZNSt3__117__compressed_pairImNS_19__map_value_compareINS_12basic_stringIcNS_11char_traitsIcEENS_9allocatorIcEEEENS_12__value_typeIS7_8RelationEENS_4lessIS7_EELb1EEEE6secondB8ue170006Ev, symObjAddr: 0x1A328, symBinAddr: 0x10001D8F4, symSize: 0x24 }
  - { offsetInCU: 0x51692, offset: 0x51692, size: 0x8, addend: 0x0, symName: __ZNSt3__122__compressed_pair_elemINS_19__map_value_compareINS_12basic_stringIcNS_11char_traitsIcEENS_9allocatorIcEEEENS_12__value_typeIS7_8RelationEENS_4lessIS7_EELb1EEELi1ELb1EE5__getB8ue170006Ev, symObjAddr: 0x1A34C, symBinAddr: 0x10001D918, symSize: 0x14 }
  - { offsetInCU: 0x516B8, offset: 0x516B8, size: 0x8, addend: 0x0, symName: __ZNKSt3__112__value_typeINS_12basic_stringIcNS_11char_traitsIcEENS_9allocatorIcEEEE8RelationE11__get_valueB8ue170006Ev, symObjAddr: 0x1A360, symBinAddr: 0x10001D92C, symSize: 0x24 }
  - { offsetInCU: 0x516DE, offset: 0x516DE, size: 0x8, addend: 0x0, symName: __ZNSt3__16__treeINS_12__value_typeINS_12basic_stringIcNS_11char_traitsIcEENS_9allocatorIcEEEE8RelationEENS_19__map_value_compareIS7_S9_NS_4lessIS7_EELb1EEENS5_IS9_EEE12__node_allocB8ue170006Ev, symObjAddr: 0x1A3BC, symBinAddr: 0x10001D988, symSize: 0x28 }
  - { offsetInCU: 0x51704, offset: 0x51704, size: 0x8, addend: 0x0, symName: __ZNSt3__116allocator_traitsINS_9allocatorINS_11__tree_nodeINS_12__value_typeINS_12basic_stringIcNS_11char_traitsIcEENS1_IcEEEE8RelationEEPvEEEEE8allocateB8ue170006ERSD_m, symObjAddr: 0x1A3E4, symBinAddr: 0x10001D9B0, symSize: 0x2C }
  - { offsetInCU: 0x51737, offset: 0x51737, size: 0x8, addend: 0x0, symName: __ZNSt3__122__tree_node_destructorINS_9allocatorINS_11__tree_nodeINS_12__value_typeINS_12basic_stringIcNS_11char_traitsIcEENS1_IcEEEE8RelationEEPvEEEEEC1B8ue170006ERSD_b, symObjAddr: 0x1A410, symBinAddr: 0x10001D9DC, symSize: 0x48 }
  - { offsetInCU: 0x51785, offset: 0x51785, size: 0x8, addend: 0x0, symName: __ZNSt3__110unique_ptrINS_11__tree_nodeINS_12__value_typeINS_12basic_stringIcNS_11char_traitsIcEENS_9allocatorIcEEEE8RelationEEPvEENS_22__tree_node_destructorINS6_ISC_EEEEEC1B8ue170006ILb1EvEEPSC_NS_16__dependent_typeINS_27__unique_ptr_deleter_sfinaeISF_EEXT_EE20__good_rval_ref_typeE, symObjAddr: 0x1A458, symBinAddr: 0x10001DA24, symSize: 0x3C }
  - { offsetInCU: 0x517D6, offset: 0x517D6, size: 0x8, addend: 0x0, symName: __ZNSt3__116allocator_traitsINS_9allocatorINS_11__tree_nodeINS_12__value_typeINS_12basic_stringIcNS_11char_traitsIcEENS1_IcEEEE8RelationEEPvEEEEE9constructB8ue170006INS_4pairIKS8_S9_EEJNSG_IS8_S9_EEEvEEvRSD_PT_DpOT0_, symObjAddr: 0x1A494, symBinAddr: 0x10001DA60, symSize: 0x34 }
  - { offsetInCU: 0x5182D, offset: 0x5182D, size: 0x8, addend: 0x0, symName: __ZNSt3__122__tree_key_value_typesINS_12__value_typeINS_12basic_stringIcNS_11char_traitsIcEENS_9allocatorIcEEEE8RelationEEE9__get_ptrB8ue170006ERS9_, symObjAddr: 0x1A4C8, symBinAddr: 0x10001DA94, symSize: 0x24 }
  - { offsetInCU: 0x51851, offset: 0x51851, size: 0x8, addend: 0x0, symName: __ZNKSt3__110unique_ptrINS_11__tree_nodeINS_12__value_typeINS_12basic_stringIcNS_11char_traitsIcEENS_9allocatorIcEEEE8RelationEEPvEENS_22__tree_node_destructorINS6_ISC_EEEEEptB8ue170006Ev, symObjAddr: 0x1A4EC, symBinAddr: 0x10001DAB8, symSize: 0x28 }
  - { offsetInCU: 0x51877, offset: 0x51877, size: 0x8, addend: 0x0, symName: __ZNSt3__110unique_ptrINS_11__tree_nodeINS_12__value_typeINS_12basic_stringIcNS_11char_traitsIcEENS_9allocatorIcEEEE8RelationEEPvEENS_22__tree_node_destructorINS6_ISC_EEEEE11get_deleterB8ue170006Ev, symObjAddr: 0x1A514, symBinAddr: 0x10001DAE0, symSize: 0x24 }
  - { offsetInCU: 0x5189D, offset: 0x5189D, size: 0x8, addend: 0x0, symName: __ZNSt3__117__compressed_pairINS_15__tree_end_nodeIPNS_16__tree_node_baseIPvEEEENS_9allocatorINS_11__tree_nodeINS_12__value_typeINS_12basic_stringIcNS_11char_traitsIcEENS7_IcEEEE8RelationEES3_EEEEE6secondB8ue170006Ev, symObjAddr: 0x1A538, symBinAddr: 0x10001DB04, symSize: 0x24 }
  - { offsetInCU: 0x518C3, offset: 0x518C3, size: 0x8, addend: 0x0, symName: __ZNSt3__122__compressed_pair_elemINS_9allocatorINS_11__tree_nodeINS_12__value_typeINS_12basic_stringIcNS_11char_traitsIcEENS1_IcEEEE8RelationEEPvEEEELi1ELb1EE5__getB8ue170006Ev, symObjAddr: 0x1A55C, symBinAddr: 0x10001DB28, symSize: 0x14 }
  - { offsetInCU: 0x518E9, offset: 0x518E9, size: 0x8, addend: 0x0, symName: __ZNSt3__19allocatorINS_11__tree_nodeINS_12__value_typeINS_12basic_stringIcNS_11char_traitsIcEENS0_IcEEEE8RelationEEPvEEE8allocateB8ue170006Em, symObjAddr: 0x1A570, symBinAddr: 0x10001DB3C, symSize: 0x58 }
  - { offsetInCU: 0x51928, offset: 0x51928, size: 0x8, addend: 0x0, symName: __ZNSt3__116allocator_traitsINS_9allocatorINS_11__tree_nodeINS_12__value_typeINS_12basic_stringIcNS_11char_traitsIcEENS1_IcEEEE8RelationEEPvEEEEE8max_sizeB8ue170006ISD_vEEmRKSD_, symObjAddr: 0x1A5C8, symBinAddr: 0x10001DB94, symSize: 0x24 }
  - { offsetInCU: 0x51956, offset: 0x51956, size: 0x8, addend: 0x0, symName: __ZNKSt3__19allocatorINS_11__tree_nodeINS_12__value_typeINS_12basic_stringIcNS_11char_traitsIcEENS0_IcEEEE8RelationEEPvEEE8max_sizeB8ue170006Ev, symObjAddr: 0x1A5EC, symBinAddr: 0x10001DBB8, symSize: 0x14 }
  - { offsetInCU: 0x5197C, offset: 0x5197C, size: 0x8, addend: 0x0, symName: __ZNSt3__122__tree_node_destructorINS_9allocatorINS_11__tree_nodeINS_12__value_typeINS_12basic_stringIcNS_11char_traitsIcEENS1_IcEEEE8RelationEEPvEEEEEC2B8ue170006ERSD_b, symObjAddr: 0x1A600, symBinAddr: 0x10001DBCC, symSize: 0x38 }
  - { offsetInCU: 0x519C4, offset: 0x519C4, size: 0x8, addend: 0x0, symName: __ZNSt3__110unique_ptrINS_11__tree_nodeINS_12__value_typeINS_12basic_stringIcNS_11char_traitsIcEENS_9allocatorIcEEEE8RelationEEPvEENS_22__tree_node_destructorINS6_ISC_EEEEEC2B8ue170006ILb1EvEEPSC_NS_16__dependent_typeINS_27__unique_ptr_deleter_sfinaeISF_EEXT_EE20__good_rval_ref_typeE, symObjAddr: 0x1A638, symBinAddr: 0x10001DC04, symSize: 0x48 }
  - { offsetInCU: 0x51A15, offset: 0x51A15, size: 0x8, addend: 0x0, symName: __ZNSt3__117__compressed_pairIPNS_11__tree_nodeINS_12__value_typeINS_12basic_stringIcNS_11char_traitsIcEENS_9allocatorIcEEEE8RelationEEPvEENS_22__tree_node_destructorINS6_ISC_EEEEEC1B8ue170006IRSD_SG_EEOT_OT0_, symObjAddr: 0x1A680, symBinAddr: 0x10001DC4C, symSize: 0x3C }
  - { offsetInCU: 0x51A6D, offset: 0x51A6D, size: 0x8, addend: 0x0, symName: __ZNSt3__117__compressed_pairIPNS_11__tree_nodeINS_12__value_typeINS_12basic_stringIcNS_11char_traitsIcEENS_9allocatorIcEEEE8RelationEEPvEENS_22__tree_node_destructorINS6_ISC_EEEEEC2B8ue170006IRSD_SG_EEOT_OT0_, symObjAddr: 0x1A6BC, symBinAddr: 0x10001DC88, symSize: 0x48 }
  - { offsetInCU: 0x51AC5, offset: 0x51AC5, size: 0x8, addend: 0x0, symName: __ZNSt3__122__compressed_pair_elemIPNS_11__tree_nodeINS_12__value_typeINS_12basic_stringIcNS_11char_traitsIcEENS_9allocatorIcEEEE8RelationEEPvEELi0ELb0EEC2B8ue170006IRSD_vEEOT_, symObjAddr: 0x1A704, symBinAddr: 0x10001DCD0, symSize: 0x24 }
  - { offsetInCU: 0x51B07, offset: 0x51B07, size: 0x8, addend: 0x0, symName: __ZNSt3__122__compressed_pair_elemINS_22__tree_node_destructorINS_9allocatorINS_11__tree_nodeINS_12__value_typeINS_12basic_stringIcNS_11char_traitsIcEENS2_IcEEEE8RelationEEPvEEEEEELi1ELb0EEC2B8ue170006ISF_vEEOT_, symObjAddr: 0x1A728, symBinAddr: 0x10001DCF4, symSize: 0x24 }
  - { offsetInCU: 0x51B49, offset: 0x51B49, size: 0x8, addend: 0x0, symName: __ZNSt3__19allocatorINS_11__tree_nodeINS_12__value_typeINS_12basic_stringIcNS_11char_traitsIcEENS0_IcEEEE8RelationEEPvEEE9constructB8ue170006INS_4pairIKS7_S8_EEJNSE_IS7_S8_EEEEEvPT_DpOT0_, symObjAddr: 0x1A74C, symBinAddr: 0x10001DD18, symSize: 0x30 }
  - { offsetInCU: 0x51B9F, offset: 0x51B9F, size: 0x8, addend: 0x0, symName: __ZNSt3__14pairIKNS_12basic_stringIcNS_11char_traitsIcEENS_9allocatorIcEEEE8RelationEC1B8ue170006IS6_S8_LPv0EEEONS0_IT_T0_EE, symObjAddr: 0x1A77C, symBinAddr: 0x10001DD48, symSize: 0x34 }
  - { offsetInCU: 0x51BF0, offset: 0x51BF0, size: 0x8, addend: 0x0, symName: __ZNSt3__14pairIKNS_12basic_stringIcNS_11char_traitsIcEENS_9allocatorIcEEEE8RelationEC2B8ue170006IS6_S8_LPv0EEEONS0_IT_T0_EE, symObjAddr: 0x1A7B0, symBinAddr: 0x10001DD7C, symSize: 0x48 }
  - { offsetInCU: 0x51C47, offset: 0x51C47, size: 0x8, addend: 0x0, symName: __ZN8RelationC1EOS_, symObjAddr: 0x1A7F8, symBinAddr: 0x10001DDC4, symSize: 0x34 }
  - { offsetInCU: 0x51C7C, offset: 0x51C7C, size: 0x8, addend: 0x0, symName: __ZN8RelationC2EOS_, symObjAddr: 0x1A82C, symBinAddr: 0x10001DDF8, symSize: 0x5C }
  - { offsetInCU: 0x51CB7, offset: 0x51CB7, size: 0x8, addend: 0x0, symName: __ZN6SchemeC1EOS_, symObjAddr: 0x1A888, symBinAddr: 0x10001DE54, symSize: 0x34 }
  - { offsetInCU: 0x51CEC, offset: 0x51CEC, size: 0x8, addend: 0x0, symName: __ZNSt3__13setI5TupleNS_4lessIS1_EENS_9allocatorIS1_EEEC1B8ue170006EOS6_, symObjAddr: 0x1A8BC, symBinAddr: 0x10001DE88, symSize: 0x34 }
  - { offsetInCU: 0x51D25, offset: 0x51D25, size: 0x8, addend: 0x0, symName: __ZN6SchemeC2EOS_, symObjAddr: 0x1A8F0, symBinAddr: 0x10001DEBC, symSize: 0x34 }
  - { offsetInCU: 0x51D5A, offset: 0x51D5A, size: 0x8, addend: 0x0, symName: __ZNSt3__16vectorINS_12basic_stringIcNS_11char_traitsIcEENS_9allocatorIcEEEENS4_IS6_EEEC2B8ue170006EOS8_, symObjAddr: 0x1A924, symBinAddr: 0x10001DEF0, symSize: 0xC4 }
  - { offsetInCU: 0x51D95, offset: 0x51D95, size: 0x8, addend: 0x0, symName: __ZNSt3__13setI5TupleNS_4lessIS1_EENS_9allocatorIS1_EEEC2B8ue170006EOS6_, symObjAddr: 0x1A9E8, symBinAddr: 0x10001DFB4, symSize: 0x34 }
  - { offsetInCU: 0x51DCE, offset: 0x51DCE, size: 0x8, addend: 0x0, symName: __ZNSt3__16__treeI5TupleNS_4lessIS1_EENS_9allocatorIS1_EEEC1EOS6_, symObjAddr: 0x1AA1C, symBinAddr: 0x10001DFE8, symSize: 0x34 }
  - { offsetInCU: 0x51E09, offset: 0x51E09, size: 0x8, addend: 0x0, symName: __ZNSt3__16__treeI5TupleNS_4lessIS1_EENS_9allocatorIS1_EEEC2EOS6_, symObjAddr: 0x1AA50, symBinAddr: 0x10001E01C, symSize: 0xFC }
  - { offsetInCU: 0x51E44, offset: 0x51E44, size: 0x8, addend: 0x0, symName: __ZNSt3__16__treeI5TupleNS_4lessIS1_EENS_9allocatorIS1_EEE4sizeB8ue170006Ev, symObjAddr: 0x1AB4C, symBinAddr: 0x10001E118, symSize: 0x28 }
  - { offsetInCU: 0x51E6A, offset: 0x51E6A, size: 0x8, addend: 0x0, symName: __ZNSt3__117__compressed_pairImNS_4lessI5TupleEEE5firstB8ue170006Ev, symObjAddr: 0x1AB74, symBinAddr: 0x10001E140, symSize: 0x24 }
  - { offsetInCU: 0x51E90, offset: 0x51E90, size: 0x8, addend: 0x0, symName: __ZNSt3__112__value_typeINS_12basic_stringIcNS_11char_traitsIcEENS_9allocatorIcEEEE8RelationE11__get_valueB8ue170006Ev, symObjAddr: 0x1AB98, symBinAddr: 0x10001E164, symSize: 0x24 }
  - { offsetInCU: 0x51EB6, offset: 0x51EB6, size: 0x8, addend: 0x0, symName: __ZNKSt3__117__compressed_pairIPNS_11__tree_nodeINS_12__value_typeINS_12basic_stringIcNS_11char_traitsIcEENS_9allocatorIcEEEE8RelationEEPvEENS_22__tree_node_destructorINS6_ISC_EEEEE5firstB8ue170006Ev, symObjAddr: 0x1ABF4, symBinAddr: 0x10001E1C0, symSize: 0x24 }
  - { offsetInCU: 0x51EDC, offset: 0x51EDC, size: 0x8, addend: 0x0, symName: __ZNKSt3__122__compressed_pair_elemIPNS_11__tree_nodeINS_12__value_typeINS_12basic_stringIcNS_11char_traitsIcEENS_9allocatorIcEEEE8RelationEEPvEELi0ELb0EE5__getB8ue170006Ev, symObjAddr: 0x1AC18, symBinAddr: 0x10001E1E4, symSize: 0x14 }
  - { offsetInCU: 0x51F02, offset: 0x51F02, size: 0x8, addend: 0x0, symName: __ZNSt3__117__compressed_pairIPNS_11__tree_nodeINS_12__value_typeINS_12basic_stringIcNS_11char_traitsIcEENS_9allocatorIcEEEE8RelationEEPvEENS_22__tree_node_destructorINS6_ISC_EEEEE6secondB8ue170006Ev, symObjAddr: 0x1AC2C, symBinAddr: 0x10001E1F8, symSize: 0x28 }
  - { offsetInCU: 0x51F28, offset: 0x51F28, size: 0x8, addend: 0x0, symName: __ZNSt3__122__compressed_pair_elemINS_22__tree_node_destructorINS_9allocatorINS_11__tree_nodeINS_12__value_typeINS_12basic_stringIcNS_11char_traitsIcEENS2_IcEEEE8RelationEEPvEEEEEELi1ELb0EE5__getB8ue170006Ev, symObjAddr: 0x1AC54, symBinAddr: 0x10001E220, symSize: 0x14 }
  - { offsetInCU: 0x51F4E, offset: 0x51F4E, size: 0x8, addend: 0x0, symName: __ZNSt3__16__treeINS_12__value_typeINS_12basic_stringIcNS_11char_traitsIcEENS_9allocatorIcEEEE8RelationEENS_19__map_value_compareIS7_S9_NS_4lessIS7_EELb1EEENS5_IS9_EEE4sizeB8ue170006Ev, symObjAddr: 0x1AC68, symBinAddr: 0x10001E234, symSize: 0x28 }
  - { offsetInCU: 0x51F74, offset: 0x51F74, size: 0x8, addend: 0x0, symName: __ZNSt3__117__compressed_pairImNS_19__map_value_compareINS_12basic_stringIcNS_11char_traitsIcEENS_9allocatorIcEEEENS_12__value_typeIS7_8RelationEENS_4lessIS7_EELb1EEEE5firstB8ue170006Ev, symObjAddr: 0x1AC90, symBinAddr: 0x10001E25C, symSize: 0x24 }
  - { offsetInCU: 0x51F9A, offset: 0x51F9A, size: 0x8, addend: 0x0, symName: __ZNSt3__117__compressed_pairIPNS_11__tree_nodeINS_12__value_typeINS_12basic_stringIcNS_11char_traitsIcEENS_9allocatorIcEEEE8RelationEEPvEENS_22__tree_node_destructorINS6_ISC_EEEEE5firstB8ue170006Ev, symObjAddr: 0x1ACB4, symBinAddr: 0x10001E280, symSize: 0x24 }
  - { offsetInCU: 0x51FC0, offset: 0x51FC0, size: 0x8, addend: 0x0, symName: __ZNSt3__122__compressed_pair_elemIPNS_11__tree_nodeINS_12__value_typeINS_12basic_stringIcNS_11char_traitsIcEENS_9allocatorIcEEEE8RelationEEPvEELi0ELb0EE5__getB8ue170006Ev, symObjAddr: 0x1ACD8, symBinAddr: 0x10001E2A4, symSize: 0x14 }
  - { offsetInCU: 0x51FE6, offset: 0x51FE6, size: 0x8, addend: 0x0, symName: __ZNSt3__110unique_ptrINS_11__tree_nodeINS_12__value_typeINS_12basic_stringIcNS_11char_traitsIcEENS_9allocatorIcEEEE8RelationEEPvEENS_22__tree_node_destructorINS6_ISC_EEEEED2B8ue170006Ev, symObjAddr: 0x1ACEC, symBinAddr: 0x10001E2B8, symSize: 0x30 }
  - { offsetInCU: 0x52010, offset: 0x52010, size: 0x8, addend: 0x0, symName: __ZNSt3__110unique_ptrINS_11__tree_nodeINS_12__value_typeINS_12basic_stringIcNS_11char_traitsIcEENS_9allocatorIcEEEE8RelationEEPvEENS_22__tree_node_destructorINS6_ISC_EEEEE5resetB8ue170006EPSC_, symObjAddr: 0x1AD1C, symBinAddr: 0x10001E2E8, symSize: 0x78 }
  - { offsetInCU: 0x52054, offset: 0x52054, size: 0x8, addend: 0x0, symName: __ZNSt3__122__tree_node_destructorINS_9allocatorINS_11__tree_nodeINS_12__value_typeINS_12basic_stringIcNS_11char_traitsIcEENS1_IcEEEE8RelationEEPvEEEEEclB8ue170006EPSC_, symObjAddr: 0x1AD94, symBinAddr: 0x10001E360, symSize: 0x98 }
  - { offsetInCU: 0x52089, offset: 0x52089, size: 0x8, addend: 0x0, symName: __ZNSt3__116allocator_traitsINS_9allocatorINS_11__tree_nodeINS_12__value_typeINS_12basic_stringIcNS_11char_traitsIcEENS1_IcEEEE8RelationEEPvEEEEE7destroyB8ue170006INS_4pairIKS8_S9_EEvvEEvRSD_PT_, symObjAddr: 0x1AE2C, symBinAddr: 0x10001E3F8, symSize: 0x28 }
  - { offsetInCU: 0x520C4, offset: 0x520C4, size: 0x8, addend: 0x0, symName: __ZNSt3__116allocator_traitsINS_9allocatorINS_11__tree_nodeINS_12__value_typeINS_12basic_stringIcNS_11char_traitsIcEENS1_IcEEEE8RelationEEPvEEEEE10deallocateB8ue170006ERSD_PSC_m, symObjAddr: 0x1AE54, symBinAddr: 0x10001E420, symSize: 0x34 }
  - { offsetInCU: 0x52106, offset: 0x52106, size: 0x8, addend: 0x0, symName: __ZNSt3__14pairIKNS_12basic_stringIcNS_11char_traitsIcEENS_9allocatorIcEEEE8RelationED1Ev, symObjAddr: 0x1AE88, symBinAddr: 0x10001E454, symSize: 0x2C }
  - { offsetInCU: 0x52132, offset: 0x52132, size: 0x8, addend: 0x0, symName: __ZNSt3__14pairIKNS_12basic_stringIcNS_11char_traitsIcEENS_9allocatorIcEEEE8RelationED2Ev, symObjAddr: 0x1AEB4, symBinAddr: 0x10001E480, symSize: 0x38 }
  - { offsetInCU: 0x5215E, offset: 0x5215E, size: 0x8, addend: 0x0, symName: __ZNSt3__19allocatorINS_11__tree_nodeINS_12__value_typeINS_12basic_stringIcNS_11char_traitsIcEENS0_IcEEEE8RelationEEPvEEE10deallocateB8ue170006EPSB_m, symObjAddr: 0x1AEEC, symBinAddr: 0x10001E4B8, symSize: 0x40 }
  - { offsetInCU: 0x521A0, offset: 0x521A0, size: 0x8, addend: 0x0, symName: __ZNSt3__115__tree_iteratorINS_12__value_typeINS_12basic_stringIcNS_11char_traitsIcEENS_9allocatorIcEEEE8RelationEEPNS_11__tree_nodeIS9_PvEElEC2B8ue170006ESD_, symObjAddr: 0x1AF2C, symBinAddr: 0x10001E4F8, symSize: 0x20 }
  - { offsetInCU: 0x521D9, offset: 0x521D9, size: 0x8, addend: 0x0, symName: __ZNSt3__14pairINS_15__tree_iteratorINS_12__value_typeINS_12basic_stringIcNS_11char_traitsIcEENS_9allocatorIcEEEE8RelationEEPNS_11__tree_nodeISA_PvEElEEbEC2B8ue170006ISF_RbLSC_0EEEOT_OT0_, symObjAddr: 0x1AF4C, symBinAddr: 0x10001E518, symSize: 0x38 }
  - { offsetInCU: 0x52237, offset: 0x52237, size: 0x8, addend: 0x0, symName: __ZNSt3__14pairINS_14__map_iteratorINS_15__tree_iteratorINS_12__value_typeINS_12basic_stringIcNS_11char_traitsIcEENS_9allocatorIcEEEE8RelationEEPNS_11__tree_nodeISB_PvEElEEEEbEC2B8ue170006ISG_bLSD_0EEEONS0_IT_T0_EE, symObjAddr: 0x1AF84, symBinAddr: 0x10001E550, symSize: 0x50 }
  - { offsetInCU: 0x52288, offset: 0x52288, size: 0x8, addend: 0x0, symName: __ZNSt3__114__map_iteratorINS_15__tree_iteratorINS_12__value_typeINS_12basic_stringIcNS_11char_traitsIcEENS_9allocatorIcEEEE8RelationEEPNS_11__tree_nodeISA_PvEElEEEC1B8ue170006ESF_, symObjAddr: 0x1AFD4, symBinAddr: 0x10001E5A0, symSize: 0x34 }
  - { offsetInCU: 0x522C1, offset: 0x522C1, size: 0x8, addend: 0x0, symName: __ZNSt3__114__map_iteratorINS_15__tree_iteratorINS_12__value_typeINS_12basic_stringIcNS_11char_traitsIcEENS_9allocatorIcEEEE8RelationEEPNS_11__tree_nodeISA_PvEElEEEC2B8ue170006ESF_, symObjAddr: 0x1B008, symBinAddr: 0x10001E5D4, symSize: 0x20 }
  - { offsetInCU: 0x522FA, offset: 0x522FA, size: 0x8, addend: 0x0, symName: __ZNSt3__14pairINS_12basic_stringIcNS_11char_traitsIcEENS_9allocatorIcEEEE8RelationEC2B8ue170006IRS6_RS7_LPv0EEEOT_OT0_, symObjAddr: 0x1B028, symBinAddr: 0x10001E5F4, symSize: 0x70 }
  - { offsetInCU: 0x52358, offset: 0x52358, size: 0x8, addend: 0x0, symName: __ZN8RelationC1ERKS_, symObjAddr: 0x1B098, symBinAddr: 0x10001E664, symSize: 0x34 }
  - { offsetInCU: 0x5238D, offset: 0x5238D, size: 0x8, addend: 0x0, symName: __ZN8RelationC2ERKS_, symObjAddr: 0x1B0CC, symBinAddr: 0x10001E698, symSize: 0xA8 }
  - { offsetInCU: 0x523C2, offset: 0x523C2, size: 0x8, addend: 0x0, symName: __ZNSt3__13setI5TupleNS_4lessIS1_EENS_9allocatorIS1_EEEC1B8ue170006ERKS6_, symObjAddr: 0x1B174, symBinAddr: 0x10001E740, symSize: 0x34 }
  - { offsetInCU: 0x523FB, offset: 0x523FB, size: 0x8, addend: 0x0, symName: __ZNSt3__13setI5TupleNS_4lessIS1_EENS_9allocatorIS1_EEEC2B8ue170006ERKS6_, symObjAddr: 0x1B1A8, symBinAddr: 0x10001E774, symSize: 0x88 }
  - { offsetInCU: 0x52434, offset: 0x52434, size: 0x8, addend: 0x0, symName: __ZNSt3__16__treeI5TupleNS_4lessIS1_EENS_9allocatorIS1_EEEC1ERKS6_, symObjAddr: 0x1B230, symBinAddr: 0x10001E7FC, symSize: 0x34 }
  - { offsetInCU: 0x5246F, offset: 0x5246F, size: 0x8, addend: 0x0, symName: __ZNSt3__13setI5TupleNS_4lessIS1_EENS_9allocatorIS1_EEE6insertB8ue170006INS_21__tree_const_iteratorIS1_PNS_11__tree_nodeIS1_PvEElEEEEvT_SE_, symObjAddr: 0x1B264, symBinAddr: 0x10001E830, symSize: 0x80 }
  - { offsetInCU: 0x524D9, offset: 0x524D9, size: 0x8, addend: 0x0, symName: __ZNKSt3__13setI5TupleNS_4lessIS1_EENS_9allocatorIS1_EEE5beginB8ue170006Ev, symObjAddr: 0x1B2E4, symBinAddr: 0x10001E8B0, symSize: 0x2C }
  - { offsetInCU: 0x524FF, offset: 0x524FF, size: 0x8, addend: 0x0, symName: __ZNKSt3__13setI5TupleNS_4lessIS1_EENS_9allocatorIS1_EEE3endB8ue170006Ev, symObjAddr: 0x1B310, symBinAddr: 0x10001E8DC, symSize: 0x2C }
  - { offsetInCU: 0x52525, offset: 0x52525, size: 0x8, addend: 0x0, symName: __ZNSt3__16__treeI5TupleNS_4lessIS1_EENS_9allocatorIS1_EEED1Ev, symObjAddr: 0x1B33C, symBinAddr: 0x10001E908, symSize: 0x2C }
  - { offsetInCU: 0x52551, offset: 0x52551, size: 0x8, addend: 0x0, symName: __ZNSt3__16__treeI5TupleNS_4lessIS1_EENS_9allocatorIS1_EEEC2ERKS6_, symObjAddr: 0x1B368, symBinAddr: 0x10001E934, symSize: 0x9C }
  - { offsetInCU: 0x52597, offset: 0x52597, size: 0x8, addend: 0x0, symName: __ZNSt3__116allocator_traitsINS_9allocatorINS_11__tree_nodeI5TuplePvEEEEE37select_on_container_copy_constructionB8ue170006IS6_vvEES6_RKS6_, symObjAddr: 0x1B404, symBinAddr: 0x10001E9D0, symSize: 0x10 }
  - { offsetInCU: 0x525C6, offset: 0x525C6, size: 0x8, addend: 0x0, symName: __ZNKSt3__16__treeI5TupleNS_4lessIS1_EENS_9allocatorIS1_EEE12__node_allocB8ue170006Ev, symObjAddr: 0x1B414, symBinAddr: 0x10001E9E0, symSize: 0x28 }
  - { offsetInCU: 0x525F2, offset: 0x525F2, size: 0x8, addend: 0x0, symName: __ZNSt3__117__compressed_pairINS_15__tree_end_nodeIPNS_16__tree_node_baseIPvEEEENS_9allocatorINS_11__tree_nodeI5TupleS3_EEEEEC1B8ue170006INS_18__default_init_tagESB_EEOT_OT0_, symObjAddr: 0x1B43C, symBinAddr: 0x10001EA08, symSize: 0x3C }
  - { offsetInCU: 0x5264A, offset: 0x5264A, size: 0x8, addend: 0x0, symName: __ZNKSt3__16__treeI5TupleNS_4lessIS1_EENS_9allocatorIS1_EEE10value_compB8ue170006Ev, symObjAddr: 0x1B478, symBinAddr: 0x10001EA44, symSize: 0x28 }
  - { offsetInCU: 0x52670, offset: 0x52670, size: 0x8, addend: 0x0, symName: __ZNKSt3__117__compressed_pairINS_15__tree_end_nodeIPNS_16__tree_node_baseIPvEEEENS_9allocatorINS_11__tree_nodeI5TupleS3_EEEEE6secondB8ue170006Ev, symObjAddr: 0x1B4A0, symBinAddr: 0x10001EA6C, symSize: 0x24 }
  - { offsetInCU: 0x52696, offset: 0x52696, size: 0x8, addend: 0x0, symName: __ZNKSt3__122__compressed_pair_elemINS_9allocatorINS_11__tree_nodeI5TuplePvEEEELi1ELb1EE5__getB8ue170006Ev, symObjAddr: 0x1B4C4, symBinAddr: 0x10001EA90, symSize: 0x14 }
  - { offsetInCU: 0x526BC, offset: 0x526BC, size: 0x8, addend: 0x0, symName: __ZNSt3__117__compressed_pairINS_15__tree_end_nodeIPNS_16__tree_node_baseIPvEEEENS_9allocatorINS_11__tree_nodeI5TupleS3_EEEEEC2B8ue170006INS_18__default_init_tagESB_EEOT_OT0_, symObjAddr: 0x1B4D8, symBinAddr: 0x10001EAA4, symSize: 0x40 }
  - { offsetInCU: 0x52714, offset: 0x52714, size: 0x8, addend: 0x0, symName: __ZNSt3__122__compressed_pair_elemINS_9allocatorINS_11__tree_nodeI5TuplePvEEEELi1ELb1EEC2B8ue170006IS6_vEEOT_, symObjAddr: 0x1B518, symBinAddr: 0x10001EAE4, symSize: 0x18 }
  - { offsetInCU: 0x52756, offset: 0x52756, size: 0x8, addend: 0x0, symName: __ZNKSt3__117__compressed_pairImNS_4lessI5TupleEEE6secondB8ue170006Ev, symObjAddr: 0x1B530, symBinAddr: 0x10001EAFC, symSize: 0x24 }
  - { offsetInCU: 0x5277C, offset: 0x5277C, size: 0x8, addend: 0x0, symName: __ZNKSt3__122__compressed_pair_elemINS_4lessI5TupleEELi1ELb1EE5__getB8ue170006Ev, symObjAddr: 0x1B554, symBinAddr: 0x10001EB20, symSize: 0x14 }
  - { offsetInCU: 0x527A2, offset: 0x527A2, size: 0x8, addend: 0x0, symName: __ZNKSt3__13setI5TupleNS_4lessIS1_EENS_9allocatorIS1_EEE4cendB8ue170006Ev, symObjAddr: 0x1B568, symBinAddr: 0x10001EB34, symSize: 0x2C }
  - { offsetInCU: 0x527C8, offset: 0x527C8, size: 0x8, addend: 0x0, symName: __ZNSt3__16__treeI5TupleNS_4lessIS1_EENS_9allocatorIS1_EEE15__insert_uniqueB8ue170006ENS_21__tree_const_iteratorIS1_PNS_11__tree_nodeIS1_PvEElEERKS1_, symObjAddr: 0x1B5C8, symBinAddr: 0x10001EB94, symSize: 0x64 }
  - { offsetInCU: 0x5280C, offset: 0x5280C, size: 0x8, addend: 0x0, symName: __ZNKSt3__121__tree_const_iteratorI5TuplePNS_11__tree_nodeIS1_PvEElEdeB8ue170006Ev, symObjAddr: 0x1B62C, symBinAddr: 0x10001EBF8, symSize: 0x28 }
  - { offsetInCU: 0x52832, offset: 0x52832, size: 0x8, addend: 0x0, symName: __ZNSt3__121__tree_const_iteratorI5TuplePNS_11__tree_nodeIS1_PvEElEppB8ue170006Ev, symObjAddr: 0x1B654, symBinAddr: 0x10001EC20, symSize: 0x38 }
  - { offsetInCU: 0x52858, offset: 0x52858, size: 0x8, addend: 0x0, symName: __ZNSt3__16__treeI5TupleNS_4lessIS1_EENS_9allocatorIS1_EEE30__emplace_hint_unique_key_argsIS1_JRKS1_EEENS_4pairINS_15__tree_iteratorIS1_PNS_11__tree_nodeIS1_PvEElEEbEENS_21__tree_const_iteratorIS1_SF_lEERKT_DpOT0_, symObjAddr: 0x1B6BC, symBinAddr: 0x10001EC88, symSize: 0x104 }
  - { offsetInCU: 0x52924, offset: 0x52924, size: 0x8, addend: 0x0, symName: __ZNSt3__122__tree_key_value_typesI5TupleE9__get_keyB8ue170006ERKS1_, symObjAddr: 0x1B7C0, symBinAddr: 0x10001ED8C, symSize: 0x14 }
  - { offsetInCU: 0x52948, offset: 0x52948, size: 0x8, addend: 0x0, symName: __ZNSt3__16__treeI5TupleNS_4lessIS1_EENS_9allocatorIS1_EEE12__find_equalIS1_EERPNS_16__tree_node_baseIPvEENS_21__tree_const_iteratorIS1_PNS_11__tree_nodeIS1_S9_EElEERPNS_15__tree_end_nodeISB_EESC_RKT_, symObjAddr: 0x1B7D4, symBinAddr: 0x10001EDA0, symSize: 0x304 }
  - { offsetInCU: 0x529F1, offset: 0x529F1, size: 0x8, addend: 0x0, symName: __ZNSt3__16__treeI5TupleNS_4lessIS1_EENS_9allocatorIS1_EEE16__construct_nodeIJRKS1_EEENS_10unique_ptrINS_11__tree_nodeIS1_PvEENS_22__tree_node_destructorINS4_ISD_EEEEEEDpOT_, symObjAddr: 0x1BAD8, symBinAddr: 0x10001F0A4, symSize: 0x110 }
  - { offsetInCU: 0x52A52, offset: 0x52A52, size: 0x8, addend: 0x0, symName: __ZNSt3__16__treeI5TupleNS_4lessIS1_EENS_9allocatorIS1_EEE16__insert_node_atEPNS_15__tree_end_nodeIPNS_16__tree_node_baseIPvEEEERSB_SB_, symObjAddr: 0x1BBE8, symBinAddr: 0x10001F1B4, symSize: 0xCC }
  - { offsetInCU: 0x52AA7, offset: 0x52AA7, size: 0x8, addend: 0x0, symName: __ZNKSt3__110unique_ptrINS_11__tree_nodeI5TuplePvEENS_22__tree_node_destructorINS_9allocatorIS4_EEEEE3getB8ue170006Ev, symObjAddr: 0x1BCB4, symBinAddr: 0x10001F280, symSize: 0x28 }
  - { offsetInCU: 0x52ACD, offset: 0x52ACD, size: 0x8, addend: 0x0, symName: __ZNSt3__110unique_ptrINS_11__tree_nodeI5TuplePvEENS_22__tree_node_destructorINS_9allocatorIS4_EEEEE7releaseB8ue170006Ev, symObjAddr: 0x1BCDC, symBinAddr: 0x10001F2A8, symSize: 0x44 }
  - { offsetInCU: 0x52B02, offset: 0x52B02, size: 0x8, addend: 0x0, symName: __ZNSt3__110unique_ptrINS_11__tree_nodeI5TuplePvEENS_22__tree_node_destructorINS_9allocatorIS4_EEEEED1B8ue170006Ev, symObjAddr: 0x1BD20, symBinAddr: 0x10001F2EC, symSize: 0x2C }
  - { offsetInCU: 0x52B2C, offset: 0x52B2C, size: 0x8, addend: 0x0, symName: __ZNSt3__115__tree_iteratorI5TuplePNS_11__tree_nodeIS1_PvEElEC1B8ue170006ES5_, symObjAddr: 0x1BD4C, symBinAddr: 0x10001F318, symSize: 0x34 }
  - { offsetInCU: 0x52B6B, offset: 0x52B6B, size: 0x8, addend: 0x0, symName: __ZNSt3__14pairINS_15__tree_iteratorI5TuplePNS_11__tree_nodeIS2_PvEElEEbEC1B8ue170006IS7_RbLS4_0EEEOT_OT0_, symObjAddr: 0x1BD80, symBinAddr: 0x10001F34C, symSize: 0x3C }
  - { offsetInCU: 0x52BC9, offset: 0x52BC9, size: 0x8, addend: 0x0, symName: __ZNSt3__16__treeI5TupleNS_4lessIS1_EENS_9allocatorIS1_EEE3endB8ue170006Ev, symObjAddr: 0x1BDBC, symBinAddr: 0x10001F388, symSize: 0x34 }
  - { offsetInCU: 0x52BEF, offset: 0x52BEF, size: 0x8, addend: 0x0, symName: __ZNSt3__121__tree_const_iteratorI5TuplePNS_11__tree_nodeIS1_PvEElEC1B8ue170006ENS_15__tree_iteratorIS1_S5_lEE, symObjAddr: 0x1BDF0, symBinAddr: 0x10001F3BC, symSize: 0x34 }
  - { offsetInCU: 0x52C28, offset: 0x52C28, size: 0x8, addend: 0x0, symName: __ZNSt3__16__treeI5TupleNS_4lessIS1_EENS_9allocatorIS1_EEE10value_compB8ue170006Ev, symObjAddr: 0x1BE24, symBinAddr: 0x10001F3F0, symSize: 0x28 }
  - { offsetInCU: 0x52C4E, offset: 0x52C4E, size: 0x8, addend: 0x0, symName: __ZNKSt3__14lessI5TupleEclB8ue170006ERKS1_S4_, symObjAddr: 0x1BE4C, symBinAddr: 0x10001F418, symSize: 0x34 }
  - { offsetInCU: 0x52C92, offset: 0x52C92, size: 0x8, addend: 0x0, symName: __ZNSt3__16__treeI5TupleNS_4lessIS1_EENS_9allocatorIS1_EEE5beginB8ue170006Ev, symObjAddr: 0x1BE80, symBinAddr: 0x10001F44C, symSize: 0x34 }
  - { offsetInCU: 0x52CB8, offset: 0x52CB8, size: 0x8, addend: 0x0, symName: __ZNSt3__121__tree_const_iteratorI5TuplePNS_11__tree_nodeIS1_PvEElEmmB8ue170006Ev, symObjAddr: 0x1BEB4, symBinAddr: 0x10001F480, symSize: 0x38 }
  - { offsetInCU: 0x52CDE, offset: 0x52CDE, size: 0x8, addend: 0x0, symName: __ZNSt3__16__treeI5TupleNS_4lessIS1_EENS_9allocatorIS1_EEE12__find_equalIS1_EERPNS_16__tree_node_baseIPvEERPNS_15__tree_end_nodeISB_EERKT_, symObjAddr: 0x1BEEC, symBinAddr: 0x10001F4B8, symSize: 0x184 }
  - { offsetInCU: 0x52D4B, offset: 0x52D4B, size: 0x8, addend: 0x0, symName: __ZNKSt3__121__tree_const_iteratorI5TuplePNS_11__tree_nodeIS1_PvEElE8__get_npB8ue170006Ev, symObjAddr: 0x1C0AC, symBinAddr: 0x10001F678, symSize: 0x18 }
  - { offsetInCU: 0x52D71, offset: 0x52D71, size: 0x8, addend: 0x0, symName: __ZNSt3__115__tree_iteratorI5TuplePNS_11__tree_nodeIS1_PvEElEC1B8ue170006EPNS_15__tree_end_nodeIPNS_16__tree_node_baseIS3_EEEE, symObjAddr: 0x1C0C4, symBinAddr: 0x10001F690, symSize: 0x34 }
  - { offsetInCU: 0x52DAA, offset: 0x52DAA, size: 0x8, addend: 0x0, symName: __ZNSt3__115__tree_iteratorI5TuplePNS_11__tree_nodeIS1_PvEElEC2B8ue170006EPNS_15__tree_end_nodeIPNS_16__tree_node_baseIS3_EEEE, symObjAddr: 0x1C0F8, symBinAddr: 0x10001F6C4, symSize: 0x20 }
  - { offsetInCU: 0x52DE3, offset: 0x52DE3, size: 0x8, addend: 0x0, symName: __ZNSt3__121__tree_const_iteratorI5TuplePNS_11__tree_nodeIS1_PvEElEC2B8ue170006ENS_15__tree_iteratorIS1_S5_lEE, symObjAddr: 0x1C118, symBinAddr: 0x10001F6E4, symSize: 0x20 }
  - { offsetInCU: 0x52E1C, offset: 0x52E1C, size: 0x8, addend: 0x0, symName: __ZNSt3__117__compressed_pairImNS_4lessI5TupleEEE6secondB8ue170006Ev, symObjAddr: 0x1C138, symBinAddr: 0x10001F704, symSize: 0x24 }
  - { offsetInCU: 0x52E42, offset: 0x52E42, size: 0x8, addend: 0x0, symName: __ZNSt3__122__compressed_pair_elemINS_4lessI5TupleEELi1ELb1EE5__getB8ue170006Ev, symObjAddr: 0x1C15C, symBinAddr: 0x10001F728, symSize: 0x14 }
  - { offsetInCU: 0x52E68, offset: 0x52E68, size: 0x8, addend: 0x0, symName: __ZNKSt3__16vectorINS_12basic_stringIcNS_11char_traitsIcEENS_9allocatorIcEEEENS4_IS6_EEE5beginB8ue170006Ev, symObjAddr: 0x1C238, symBinAddr: 0x10001F804, symSize: 0x30 }
  - { offsetInCU: 0x52E90, offset: 0x52E90, size: 0x8, addend: 0x0, symName: __ZNKSt3__16vectorINS_12basic_stringIcNS_11char_traitsIcEENS_9allocatorIcEEEENS4_IS6_EEE3endB8ue170006Ev, symObjAddr: 0x1C268, symBinAddr: 0x10001F834, symSize: 0x30 }
  - { offsetInCU: 0x52EB8, offset: 0x52EB8, size: 0x8, addend: 0x0, symName: __ZNKSt3__16__lessIvvEclB8ue170006INS_12basic_stringIcNS_11char_traitsIcEENS_9allocatorIcEEEES8_EEbRKT_RKT0_, symObjAddr: 0x1C494, symBinAddr: 0x10001FA60, symSize: 0x34 }
  - { offsetInCU: 0x52F0C, offset: 0x52F0C, size: 0x8, addend: 0x0, symName: __ZNKSt3__111__wrap_iterIPKNS_12basic_stringIcNS_11char_traitsIcEENS_9allocatorIcEEEEEdeB8ue170006Ev, symObjAddr: 0x1C4C8, symBinAddr: 0x10001FA94, symSize: 0x18 }
  - { offsetInCU: 0x52F32, offset: 0x52F32, size: 0x8, addend: 0x0, symName: __ZNSt3__111__wrap_iterIPKNS_12basic_stringIcNS_11char_traitsIcEENS_9allocatorIcEEEEEppB8ue170006Ev, symObjAddr: 0x1C4E0, symBinAddr: 0x10001FAAC, symSize: 0x20 }
  - { offsetInCU: 0x52F58, offset: 0x52F58, size: 0x8, addend: 0x0, symName: __ZNKSt3__111__wrap_iterIPKNS_12basic_stringIcNS_11char_traitsIcEENS_9allocatorIcEEEEE4baseB8ue170006Ev, symObjAddr: 0x1C500, symBinAddr: 0x10001FACC, symSize: 0x18 }
  - { offsetInCU: 0x52F7E, offset: 0x52F7E, size: 0x8, addend: 0x0, symName: __ZNKSt3__16vectorINS_12basic_stringIcNS_11char_traitsIcEENS_9allocatorIcEEEENS4_IS6_EEE11__make_iterB8ue170006EPKS6_, symObjAddr: 0x1C518, symBinAddr: 0x10001FAE4, symSize: 0x30 }
  - { offsetInCU: 0x52FB3, offset: 0x52FB3, size: 0x8, addend: 0x0, symName: __ZNSt3__111__wrap_iterIPKNS_12basic_stringIcNS_11char_traitsIcEENS_9allocatorIcEEEEEC1B8ue170006ES8_, symObjAddr: 0x1C548, symBinAddr: 0x10001FB14, symSize: 0x34 }
  - { offsetInCU: 0x52FEB, offset: 0x52FEB, size: 0x8, addend: 0x0, symName: __ZNSt3__111__wrap_iterIPKNS_12basic_stringIcNS_11char_traitsIcEENS_9allocatorIcEEEEEC2B8ue170006ES8_, symObjAddr: 0x1C57C, symBinAddr: 0x10001FB48, symSize: 0x20 }
  - { offsetInCU: 0x53023, offset: 0x53023, size: 0x8, addend: 0x0, symName: __ZNKSt3__16__treeI5TupleNS_4lessIS1_EENS_9allocatorIS1_EEE6__rootB8ue170006Ev, symObjAddr: 0x1C59C, symBinAddr: 0x10001FB68, symSize: 0x28 }
  - { offsetInCU: 0x53049, offset: 0x53049, size: 0x8, addend: 0x0, symName: __ZNKSt3__16__treeI5TupleNS_4lessIS1_EENS_9allocatorIS1_EEE10__root_ptrB8ue170006Ev, symObjAddr: 0x1C5C4, symBinAddr: 0x10001FB90, symSize: 0x24 }
  - { offsetInCU: 0x5306F, offset: 0x5306F, size: 0x8, addend: 0x0, symName: __ZNKSt3__16__treeI5TupleNS_4lessIS1_EENS_9allocatorIS1_EEE10__end_nodeB8ue170006Ev, symObjAddr: 0x1C5E8, symBinAddr: 0x10001FBB4, symSize: 0x2C }
  - { offsetInCU: 0x53095, offset: 0x53095, size: 0x8, addend: 0x0, symName: __ZNKSt3__117__compressed_pairINS_15__tree_end_nodeIPNS_16__tree_node_baseIPvEEEENS_9allocatorINS_11__tree_nodeI5TupleS3_EEEEE5firstB8ue170006Ev, symObjAddr: 0x1C614, symBinAddr: 0x10001FBE0, symSize: 0x24 }
  - { offsetInCU: 0x530BB, offset: 0x530BB, size: 0x8, addend: 0x0, symName: __ZNSt3__16__treeI5TupleNS_4lessIS1_EENS_9allocatorIS1_EEE12__node_allocB8ue170006Ev, symObjAddr: 0x1C714, symBinAddr: 0x10001FCE0, symSize: 0x28 }
  - { offsetInCU: 0x530E1, offset: 0x530E1, size: 0x8, addend: 0x0, symName: __ZNSt3__116allocator_traitsINS_9allocatorINS_11__tree_nodeI5TuplePvEEEEE8allocateB8ue170006ERS6_m, symObjAddr: 0x1C73C, symBinAddr: 0x10001FD08, symSize: 0x2C }
  - { offsetInCU: 0x53114, offset: 0x53114, size: 0x8, addend: 0x0, symName: __ZNSt3__122__tree_node_destructorINS_9allocatorINS_11__tree_nodeI5TuplePvEEEEEC1B8ue170006ERS6_b, symObjAddr: 0x1C768, symBinAddr: 0x10001FD34, symSize: 0x48 }
  - { offsetInCU: 0x53162, offset: 0x53162, size: 0x8, addend: 0x0, symName: __ZNSt3__110unique_ptrINS_11__tree_nodeI5TuplePvEENS_22__tree_node_destructorINS_9allocatorIS4_EEEEEC1B8ue170006ILb1EvEEPS4_NS_16__dependent_typeINS_27__unique_ptr_deleter_sfinaeIS8_EEXT_EE20__good_rval_ref_typeE, symObjAddr: 0x1C7B0, symBinAddr: 0x10001FD7C, symSize: 0x3C }
  - { offsetInCU: 0x531B3, offset: 0x531B3, size: 0x8, addend: 0x0, symName: __ZNSt3__116allocator_traitsINS_9allocatorINS_11__tree_nodeI5TuplePvEEEEE9constructB8ue170006IS3_JRKS3_EvEEvRS6_PT_DpOT0_, symObjAddr: 0x1C7EC, symBinAddr: 0x10001FDB8, symSize: 0x34 }
  - { offsetInCU: 0x5320A, offset: 0x5320A, size: 0x8, addend: 0x0, symName: __ZNSt3__122__tree_key_value_typesI5TupleE9__get_ptrB8ue170006ERS1_, symObjAddr: 0x1C820, symBinAddr: 0x10001FDEC, symSize: 0x14 }
  - { offsetInCU: 0x5322E, offset: 0x5322E, size: 0x8, addend: 0x0, symName: __ZNKSt3__110unique_ptrINS_11__tree_nodeI5TuplePvEENS_22__tree_node_destructorINS_9allocatorIS4_EEEEEptB8ue170006Ev, symObjAddr: 0x1C834, symBinAddr: 0x10001FE00, symSize: 0x28 }
  - { offsetInCU: 0x53254, offset: 0x53254, size: 0x8, addend: 0x0, symName: __ZNSt3__110unique_ptrINS_11__tree_nodeI5TuplePvEENS_22__tree_node_destructorINS_9allocatorIS4_EEEEE11get_deleterB8ue170006Ev, symObjAddr: 0x1C85C, symBinAddr: 0x10001FE28, symSize: 0x24 }
  - { offsetInCU: 0x5327A, offset: 0x5327A, size: 0x8, addend: 0x0, symName: __ZNSt3__117__compressed_pairINS_15__tree_end_nodeIPNS_16__tree_node_baseIPvEEEENS_9allocatorINS_11__tree_nodeI5TupleS3_EEEEE6secondB8ue170006Ev, symObjAddr: 0x1C880, symBinAddr: 0x10001FE4C, symSize: 0x24 }
  - { offsetInCU: 0x532A0, offset: 0x532A0, size: 0x8, addend: 0x0, symName: __ZNSt3__122__compressed_pair_elemINS_9allocatorINS_11__tree_nodeI5TuplePvEEEELi1ELb1EE5__getB8ue170006Ev, symObjAddr: 0x1C8A4, symBinAddr: 0x10001FE70, symSize: 0x14 }
  - { offsetInCU: 0x532C6, offset: 0x532C6, size: 0x8, addend: 0x0, symName: __ZNSt3__19allocatorINS_11__tree_nodeI5TuplePvEEE8allocateB8ue170006Em, symObjAddr: 0x1C8B8, symBinAddr: 0x10001FE84, symSize: 0x5C }
  - { offsetInCU: 0x532FA, offset: 0x532FA, size: 0x8, addend: 0x0, symName: __ZNSt3__116allocator_traitsINS_9allocatorINS_11__tree_nodeI5TuplePvEEEEE8max_sizeB8ue170006IS6_vEEmRKS6_, symObjAddr: 0x1C914, symBinAddr: 0x10001FEE0, symSize: 0x24 }
  - { offsetInCU: 0x53328, offset: 0x53328, size: 0x8, addend: 0x0, symName: __ZNKSt3__19allocatorINS_11__tree_nodeI5TuplePvEEE8max_sizeB8ue170006Ev, symObjAddr: 0x1C938, symBinAddr: 0x10001FF04, symSize: 0x20 }
  - { offsetInCU: 0x5334E, offset: 0x5334E, size: 0x8, addend: 0x0, symName: __ZNSt3__122__tree_node_destructorINS_9allocatorINS_11__tree_nodeI5TuplePvEEEEEC2B8ue170006ERS6_b, symObjAddr: 0x1C958, symBinAddr: 0x10001FF24, symSize: 0x38 }
  - { offsetInCU: 0x53396, offset: 0x53396, size: 0x8, addend: 0x0, symName: __ZNSt3__110unique_ptrINS_11__tree_nodeI5TuplePvEENS_22__tree_node_destructorINS_9allocatorIS4_EEEEEC2B8ue170006ILb1EvEEPS4_NS_16__dependent_typeINS_27__unique_ptr_deleter_sfinaeIS8_EEXT_EE20__good_rval_ref_typeE, symObjAddr: 0x1C990, symBinAddr: 0x10001FF5C, symSize: 0x48 }
  - { offsetInCU: 0x533E7, offset: 0x533E7, size: 0x8, addend: 0x0, symName: __ZNSt3__117__compressed_pairIPNS_11__tree_nodeI5TuplePvEENS_22__tree_node_destructorINS_9allocatorIS4_EEEEEC1B8ue170006IRS5_S9_EEOT_OT0_, symObjAddr: 0x1C9D8, symBinAddr: 0x10001FFA4, symSize: 0x3C }
  - { offsetInCU: 0x5343F, offset: 0x5343F, size: 0x8, addend: 0x0, symName: __ZNSt3__117__compressed_pairIPNS_11__tree_nodeI5TuplePvEENS_22__tree_node_destructorINS_9allocatorIS4_EEEEEC2B8ue170006IRS5_S9_EEOT_OT0_, symObjAddr: 0x1CA14, symBinAddr: 0x10001FFE0, symSize: 0x48 }
  - { offsetInCU: 0x53497, offset: 0x53497, size: 0x8, addend: 0x0, symName: __ZNSt3__122__compressed_pair_elemIPNS_11__tree_nodeI5TuplePvEELi0ELb0EEC2B8ue170006IRS5_vEEOT_, symObjAddr: 0x1CA5C, symBinAddr: 0x100020028, symSize: 0x24 }
  - { offsetInCU: 0x534D9, offset: 0x534D9, size: 0x8, addend: 0x0, symName: __ZNSt3__122__compressed_pair_elemINS_22__tree_node_destructorINS_9allocatorINS_11__tree_nodeI5TuplePvEEEEEELi1ELb0EEC2B8ue170006IS8_vEEOT_, symObjAddr: 0x1CA80, symBinAddr: 0x10002004C, symSize: 0x24 }
  - { offsetInCU: 0x5351B, offset: 0x5351B, size: 0x8, addend: 0x0, symName: __ZNSt3__19allocatorINS_11__tree_nodeI5TuplePvEEE9constructB8ue170006IS2_JRKS2_EEEvPT_DpOT0_, symObjAddr: 0x1CAA4, symBinAddr: 0x100020070, symSize: 0x30 }
  - { offsetInCU: 0x53571, offset: 0x53571, size: 0x8, addend: 0x0, symName: __ZN5TupleC1ERKS_, symObjAddr: 0x1CAD4, symBinAddr: 0x1000200A0, symSize: 0x34 }
  - { offsetInCU: 0x535A6, offset: 0x535A6, size: 0x8, addend: 0x0, symName: __ZN5TupleC2ERKS_, symObjAddr: 0x1CB08, symBinAddr: 0x1000200D4, symSize: 0x34 }
  - { offsetInCU: 0x535DB, offset: 0x535DB, size: 0x8, addend: 0x0, symName: __ZNKSt3__117__compressed_pairIPNS_11__tree_nodeI5TuplePvEENS_22__tree_node_destructorINS_9allocatorIS4_EEEEE5firstB8ue170006Ev, symObjAddr: 0x1CB3C, symBinAddr: 0x100020108, symSize: 0x24 }
  - { offsetInCU: 0x53601, offset: 0x53601, size: 0x8, addend: 0x0, symName: __ZNKSt3__122__compressed_pair_elemIPNS_11__tree_nodeI5TuplePvEELi0ELb0EE5__getB8ue170006Ev, symObjAddr: 0x1CB60, symBinAddr: 0x10002012C, symSize: 0x14 }
  - { offsetInCU: 0x53627, offset: 0x53627, size: 0x8, addend: 0x0, symName: __ZNSt3__117__compressed_pairIPNS_11__tree_nodeI5TuplePvEENS_22__tree_node_destructorINS_9allocatorIS4_EEEEE6secondB8ue170006Ev, symObjAddr: 0x1CB74, symBinAddr: 0x100020140, symSize: 0x28 }
  - { offsetInCU: 0x5364D, offset: 0x5364D, size: 0x8, addend: 0x0, symName: __ZNSt3__122__compressed_pair_elemINS_22__tree_node_destructorINS_9allocatorINS_11__tree_nodeI5TuplePvEEEEEELi1ELb0EE5__getB8ue170006Ev, symObjAddr: 0x1CB9C, symBinAddr: 0x100020168, symSize: 0x14 }
  - { offsetInCU: 0x53673, offset: 0x53673, size: 0x8, addend: 0x0, symName: __ZNSt3__117__compressed_pairIPNS_11__tree_nodeI5TuplePvEENS_22__tree_node_destructorINS_9allocatorIS4_EEEEE5firstB8ue170006Ev, symObjAddr: 0x1CBB0, symBinAddr: 0x10002017C, symSize: 0x24 }
  - { offsetInCU: 0x53699, offset: 0x53699, size: 0x8, addend: 0x0, symName: __ZNSt3__122__compressed_pair_elemIPNS_11__tree_nodeI5TuplePvEELi0ELb0EE5__getB8ue170006Ev, symObjAddr: 0x1CBD4, symBinAddr: 0x1000201A0, symSize: 0x14 }
  - { offsetInCU: 0x536BF, offset: 0x536BF, size: 0x8, addend: 0x0, symName: __ZNSt3__110unique_ptrINS_11__tree_nodeI5TuplePvEENS_22__tree_node_destructorINS_9allocatorIS4_EEEEED2B8ue170006Ev, symObjAddr: 0x1CBE8, symBinAddr: 0x1000201B4, symSize: 0x30 }
  - { offsetInCU: 0x536E9, offset: 0x536E9, size: 0x8, addend: 0x0, symName: __ZNSt3__110unique_ptrINS_11__tree_nodeI5TuplePvEENS_22__tree_node_destructorINS_9allocatorIS4_EEEEE5resetB8ue170006EPS4_, symObjAddr: 0x1CC18, symBinAddr: 0x1000201E4, symSize: 0x78 }
  - { offsetInCU: 0x5372D, offset: 0x5372D, size: 0x8, addend: 0x0, symName: __ZNSt3__122__tree_node_destructorINS_9allocatorINS_11__tree_nodeI5TuplePvEEEEEclB8ue170006EPS5_, symObjAddr: 0x1CC90, symBinAddr: 0x10002025C, symSize: 0x90 }
  - { offsetInCU: 0x53762, offset: 0x53762, size: 0x8, addend: 0x0, symName: __ZNSt3__116allocator_traitsINS_9allocatorINS_11__tree_nodeI5TuplePvEEEEE7destroyB8ue170006IS3_vvEEvRS6_PT_, symObjAddr: 0x1CD20, symBinAddr: 0x1000202EC, symSize: 0x28 }
  - { offsetInCU: 0x5379D, offset: 0x5379D, size: 0x8, addend: 0x0, symName: __ZNSt3__116allocator_traitsINS_9allocatorINS_11__tree_nodeI5TuplePvEEEEE10deallocateB8ue170006ERS6_PS5_m, symObjAddr: 0x1CD48, symBinAddr: 0x100020314, symSize: 0x34 }
  - { offsetInCU: 0x537DF, offset: 0x537DF, size: 0x8, addend: 0x0, symName: __ZN5TupleD1Ev, symObjAddr: 0x1CD7C, symBinAddr: 0x100020348, symSize: 0x2C }
  - { offsetInCU: 0x5380B, offset: 0x5380B, size: 0x8, addend: 0x0, symName: __ZN5TupleD2Ev, symObjAddr: 0x1CDA8, symBinAddr: 0x100020374, symSize: 0x2C }
  - { offsetInCU: 0x53837, offset: 0x53837, size: 0x8, addend: 0x0, symName: __ZNSt3__16vectorINS_12basic_stringIcNS_11char_traitsIcEENS_9allocatorIcEEEENS4_IS6_EEED2B8ue170006Ev, symObjAddr: 0x1CDD4, symBinAddr: 0x1000203A0, symSize: 0x40 }
  - { offsetInCU: 0x53861, offset: 0x53861, size: 0x8, addend: 0x0, symName: __ZNSt3__19allocatorINS_11__tree_nodeI5TuplePvEEE10deallocateB8ue170006EPS4_m, symObjAddr: 0x1CE14, symBinAddr: 0x1000203E0, symSize: 0x44 }
  - { offsetInCU: 0x538A3, offset: 0x538A3, size: 0x8, addend: 0x0, symName: __ZNSt3__115__tree_iteratorI5TuplePNS_11__tree_nodeIS1_PvEElEC2B8ue170006ES5_, symObjAddr: 0x1CE58, symBinAddr: 0x100020424, symSize: 0x20 }
  - { offsetInCU: 0x538DC, offset: 0x538DC, size: 0x8, addend: 0x0, symName: __ZNSt3__14pairINS_15__tree_iteratorI5TuplePNS_11__tree_nodeIS2_PvEElEEbEC2B8ue170006IS7_RbLS4_0EEEOT_OT0_, symObjAddr: 0x1CE78, symBinAddr: 0x100020444, symSize: 0x38 }
  - { offsetInCU: 0x5393A, offset: 0x5393A, size: 0x8, addend: 0x0, symName: __ZNKSt3__16__treeI5TupleNS_4lessIS1_EENS_9allocatorIS1_EEE5beginB8ue170006Ev, symObjAddr: 0x1CEB0, symBinAddr: 0x10002047C, symSize: 0x34 }
  - { offsetInCU: 0x53960, offset: 0x53960, size: 0x8, addend: 0x0, symName: __ZNKSt3__16__treeI5TupleNS_4lessIS1_EENS_9allocatorIS1_EEE12__begin_nodeB8ue170006Ev, symObjAddr: 0x1CEE4, symBinAddr: 0x1000204B0, symSize: 0x14 }
  - { offsetInCU: 0x53986, offset: 0x53986, size: 0x8, addend: 0x0, symName: __ZNSt3__121__tree_const_iteratorI5TuplePNS_11__tree_nodeIS1_PvEElEC1B8ue170006EPNS_15__tree_end_nodeIPNS_16__tree_node_baseIS3_EEEE, symObjAddr: 0x1CEF8, symBinAddr: 0x1000204C4, symSize: 0x34 }
  - { offsetInCU: 0x539BF, offset: 0x539BF, size: 0x8, addend: 0x0, symName: __ZNSt3__121__tree_const_iteratorI5TuplePNS_11__tree_nodeIS1_PvEElEC2B8ue170006EPNS_15__tree_end_nodeIPNS_16__tree_node_baseIS3_EEEE, symObjAddr: 0x1CF2C, symBinAddr: 0x1000204F8, symSize: 0x20 }
  - { offsetInCU: 0x539F8, offset: 0x539F8, size: 0x8, addend: 0x0, symName: __ZNKSt3__16__treeI5TupleNS_4lessIS1_EENS_9allocatorIS1_EEE3endB8ue170006Ev, symObjAddr: 0x1CF4C, symBinAddr: 0x100020518, symSize: 0x34 }
  - { offsetInCU: 0x53A1E, offset: 0x53A1E, size: 0x8, addend: 0x0, symName: __ZNSt3__16__treeI5TupleNS_4lessIS1_EENS_9allocatorIS1_EEED2Ev, symObjAddr: 0x1CF80, symBinAddr: 0x10002054C, symSize: 0x38 }
  - { offsetInCU: 0x53A4A, offset: 0x53A4A, size: 0x8, addend: 0x0, symName: __ZNSt3__16__treeI5TupleNS_4lessIS1_EENS_9allocatorIS1_EEE7destroyEPNS_11__tree_nodeIS1_PvEE, symObjAddr: 0x1CFB8, symBinAddr: 0x100020584, symSize: 0x9C }
  - { offsetInCU: 0x53A9E, offset: 0x53A9E, size: 0x8, addend: 0x0, symName: __ZNSt3__14pairINS_12basic_stringIcNS_11char_traitsIcEENS_9allocatorIcEEEE8RelationED2Ev, symObjAddr: 0x1D054, symBinAddr: 0x100020620, symSize: 0x38 }
  - { offsetInCU: 0x53ACA, offset: 0x53ACA, size: 0x8, addend: 0x0, symName: __ZN8RelationD2Ev, symObjAddr: 0x1D08C, symBinAddr: 0x100020658, symSize: 0x44 }
  - { offsetInCU: 0x53AF6, offset: 0x53AF6, size: 0x8, addend: 0x0, symName: __ZNSt3__13setI5TupleNS_4lessIS1_EENS_9allocatorIS1_EEED1B8ue170006Ev, symObjAddr: 0x1D0D0, symBinAddr: 0x10002069C, symSize: 0x2C }
  - { offsetInCU: 0x53B20, offset: 0x53B20, size: 0x8, addend: 0x0, symName: __ZNSt3__13setI5TupleNS_4lessIS1_EENS_9allocatorIS1_EEED2B8ue170006Ev, symObjAddr: 0x1D0FC, symBinAddr: 0x1000206C8, symSize: 0x2C }
  - { offsetInCU: 0x53B4A, offset: 0x53B4A, size: 0x8, addend: 0x0, symName: __ZN6SchemeD2Ev, symObjAddr: 0x1D128, symBinAddr: 0x1000206F4, symSize: 0x2C }
  - { offsetInCU: 0x53B76, offset: 0x53B76, size: 0x8, addend: 0x0, symName: __ZN5TupleC1Ev, symObjAddr: 0x1D154, symBinAddr: 0x100020720, symSize: 0x2C }
  - { offsetInCU: 0x53BA0, offset: 0x53BA0, size: 0x8, addend: 0x0, symName: __ZNSt3__13mapINS_12basic_stringIcNS_11char_traitsIcEENS_9allocatorIcEEEE8RelationNS_4lessIS6_EENS4_INS_4pairIKS6_S7_EEEEE2atERSB_, symObjAddr: 0x1D180, symBinAddr: 0x10002074C, symSize: 0x6C }
  - { offsetInCU: 0x53BF5, offset: 0x53BF5, size: 0x8, addend: 0x0, symName: __ZN8Relation8addTupleERK5Tuple, symObjAddr: 0x1D1EC, symBinAddr: 0x1000207B8, symSize: 0x38 }
  - { offsetInCU: 0x53C29, offset: 0x53C29, size: 0x8, addend: 0x0, symName: __ZN5TupleC2Ev, symObjAddr: 0x1D224, symBinAddr: 0x1000207F0, symSize: 0x2C }
  - { offsetInCU: 0x53C53, offset: 0x53C53, size: 0x8, addend: 0x0, symName: __ZNSt3__13setI5TupleNS_4lessIS1_EENS_9allocatorIS1_EEE6insertB8ue170006ERKS1_, symObjAddr: 0x1D250, symBinAddr: 0x10002081C, symSize: 0x4C }
  - { offsetInCU: 0x53C88, offset: 0x53C88, size: 0x8, addend: 0x0, symName: __ZNSt3__16__treeI5TupleNS_4lessIS1_EENS_9allocatorIS1_EEE15__insert_uniqueB8ue170006ERKS1_, symObjAddr: 0x1D29C, symBinAddr: 0x100020868, symSize: 0x50 }
  - { offsetInCU: 0x53CBD, offset: 0x53CBD, size: 0x8, addend: 0x0, symName: __ZNSt3__14pairINS_21__tree_const_iteratorI5TuplePNS_11__tree_nodeIS2_PvEElEEbEC1B8ue170006INS_15__tree_iteratorIS2_S6_lEEbLS4_0EEEONS0_IT_T0_EE, symObjAddr: 0x1D2EC, symBinAddr: 0x1000208B8, symSize: 0x34 }
  - { offsetInCU: 0x53D0E, offset: 0x53D0E, size: 0x8, addend: 0x0, symName: __ZNSt3__16__treeI5TupleNS_4lessIS1_EENS_9allocatorIS1_EEE25__emplace_unique_key_argsIS1_JRKS1_EEENS_4pairINS_15__tree_iteratorIS1_PNS_11__tree_nodeIS1_PvEElEEbEERKT_DpOT0_, symObjAddr: 0x1D320, symBinAddr: 0x1000208EC, symSize: 0xF0 }
  - { offsetInCU: 0x53DBA, offset: 0x53DBA, size: 0x8, addend: 0x0, symName: __ZNSt3__14pairINS_21__tree_const_iteratorI5TuplePNS_11__tree_nodeIS2_PvEElEEbEC2B8ue170006INS_15__tree_iteratorIS2_S6_lEEbLS4_0EEEONS0_IT_T0_EE, symObjAddr: 0x1D410, symBinAddr: 0x1000209DC, symSize: 0x50 }
  - { offsetInCU: 0x53E0B, offset: 0x53E0B, size: 0x8, addend: 0x0, symName: __ZN8DatabaseD2Ev, symObjAddr: 0x1D460, symBinAddr: 0x100020A2C, symSize: 0x2C }
  - { offsetInCU: 0x53E37, offset: 0x53E37, size: 0x8, addend: 0x0, symName: __ZNSt3__13mapINS_12basic_stringIcNS_11char_traitsIcEENS_9allocatorIcEEEE8RelationNS_4lessIS6_EENS4_INS_4pairIKS6_S7_EEEEED2B8ue170006Ev, symObjAddr: 0x1D48C, symBinAddr: 0x100020A58, symSize: 0x2C }
  - { offsetInCU: 0x53E61, offset: 0x53E61, size: 0x8, addend: 0x0, symName: __ZNSt3__16__treeINS_12__value_typeINS_12basic_stringIcNS_11char_traitsIcEENS_9allocatorIcEEEE8RelationEENS_19__map_value_compareIS7_S9_NS_4lessIS7_EELb1EEENS5_IS9_EEED1Ev, symObjAddr: 0x1D4B8, symBinAddr: 0x100020A84, symSize: 0x2C }
  - { offsetInCU: 0x53E8D, offset: 0x53E8D, size: 0x8, addend: 0x0, symName: __ZNSt3__16__treeINS_12__value_typeINS_12basic_stringIcNS_11char_traitsIcEENS_9allocatorIcEEEE8RelationEENS_19__map_value_compareIS7_S9_NS_4lessIS7_EELb1EEENS5_IS9_EEED2Ev, symObjAddr: 0x1D4E4, symBinAddr: 0x100020AB0, symSize: 0x38 }
  - { offsetInCU: 0x53EB9, offset: 0x53EB9, size: 0x8, addend: 0x0, symName: __ZNSt3__16__treeINS_12__value_typeINS_12basic_stringIcNS_11char_traitsIcEENS_9allocatorIcEEEE8RelationEENS_19__map_value_compareIS7_S9_NS_4lessIS7_EELb1EEENS5_IS9_EEE7destroyEPNS_11__tree_nodeIS9_PvEE, symObjAddr: 0x1D51C, symBinAddr: 0x100020AE8, symSize: 0xA8 }
  - { offsetInCU: 0x53F05, offset: 0x53F05, size: 0x8, addend: 0x0, symName: __ZN14DatalogProgramD2Ev, symObjAddr: 0x1D5C4, symBinAddr: 0x100020B90, symSize: 0x5C }
  - { offsetInCU: 0x53F31, offset: 0x53F31, size: 0x8, addend: 0x0, symName: __ZN5GraphC1Ei, symObjAddr: 0x1D620, symBinAddr: 0x100020BEC, symSize: 0x34 }
  - { offsetInCU: 0x53F69, offset: 0x53F69, size: 0x8, addend: 0x0, symName: __ZNKSt3__16vectorI4RuleNS_9allocatorIS1_EEEixB8ue170006Em, symObjAddr: 0x1D654, symBinAddr: 0x100020C20, symSize: 0x2C }
  - { offsetInCU: 0x53FA0, offset: 0x53FA0, size: 0x8, addend: 0x0, symName: __ZN4Rule11getBodySizeEv, symObjAddr: 0x1D680, symBinAddr: 0x100020C4C, symSize: 0x28 }
  - { offsetInCU: 0x53FC6, offset: 0x53FC6, size: 0x8, addend: 0x0, symName: __ZN4Rule11getBodyPredEi, symObjAddr: 0x1D6A8, symBinAddr: 0x100020C74, symSize: 0x44 }
  - { offsetInCU: 0x53FFA, offset: 0x53FFA, size: 0x8, addend: 0x0, symName: __ZN4Rule7getHeadEv, symObjAddr: 0x1D834, symBinAddr: 0x100020E00, symSize: 0x38 }
  - { offsetInCU: 0x54020, offset: 0x54020, size: 0x8, addend: 0x0, symName: __ZN5Graph7addEdgeEii, symObjAddr: 0x1D86C, symBinAddr: 0x100020E38, symSize: 0x3C }
  - { offsetInCU: 0x54062, offset: 0x54062, size: 0x8, addend: 0x0, symName: __ZN5GraphC2Ei, symObjAddr: 0x1D8E8, symBinAddr: 0x100020EB4, symSize: 0x100 }
  - { offsetInCU: 0x540B6, offset: 0x540B6, size: 0x8, addend: 0x0, symName: __ZNSt3__13mapIi4NodeNS_4lessIiEENS_9allocatorINS_4pairIKiS1_EEEEEC1B8ue170006Ev, symObjAddr: 0x1D9E8, symBinAddr: 0x100020FB4, symSize: 0x2C }
  - { offsetInCU: 0x540E0, offset: 0x540E0, size: 0x8, addend: 0x0, symName: __ZNSt3__16vectorI4NodeNS_9allocatorIS1_EEEC1B8ue170006Ev, symObjAddr: 0x1DA14, symBinAddr: 0x100020FE0, symSize: 0x2C }
  - { offsetInCU: 0x5410A, offset: 0x5410A, size: 0x8, addend: 0x0, symName: __ZNSt3__15stackIiNS_5dequeIiNS_9allocatorIiEEEEEC1B8ue170006Ev, symObjAddr: 0x1DA40, symBinAddr: 0x10002100C, symSize: 0x2C }
  - { offsetInCU: 0x54134, offset: 0x54134, size: 0x8, addend: 0x0, symName: __ZN4NodeC1Ev, symObjAddr: 0x1DA6C, symBinAddr: 0x100021038, symSize: 0x2C }
  - { offsetInCU: 0x54160, offset: 0x54160, size: 0x8, addend: 0x0, symName: __ZNSt3__13mapIi4NodeNS_4lessIiEENS_9allocatorINS_4pairIKiS1_EEEEEixERS6_, symObjAddr: 0x1DA98, symBinAddr: 0x100021064, symSize: 0x80 }
  - { offsetInCU: 0x5419D, offset: 0x5419D, size: 0x8, addend: 0x0, symName: __ZN4NodeaSEOS_, symObjAddr: 0x1DB18, symBinAddr: 0x1000210E4, symSize: 0x44 }
  - { offsetInCU: 0x541CE, offset: 0x541CE, size: 0x8, addend: 0x0, symName: __ZN4NodeD1Ev, symObjAddr: 0x1DB5C, symBinAddr: 0x100021128, symSize: 0x2C }
  - { offsetInCU: 0x541FA, offset: 0x541FA, size: 0x8, addend: 0x0, symName: __ZNSt3__16vectorI4NodeNS_9allocatorIS1_EEED1B8ue170006Ev, symObjAddr: 0x1DB88, symBinAddr: 0x100021154, symSize: 0x2C }
  - { offsetInCU: 0x54224, offset: 0x54224, size: 0x8, addend: 0x0, symName: __ZNSt3__13mapIi4NodeNS_4lessIiEENS_9allocatorINS_4pairIKiS1_EEEEED1B8ue170006Ev, symObjAddr: 0x1DBB4, symBinAddr: 0x100021180, symSize: 0x2C }
  - { offsetInCU: 0x5424E, offset: 0x5424E, size: 0x8, addend: 0x0, symName: __ZNSt3__13mapIi4NodeNS_4lessIiEENS_9allocatorINS_4pairIKiS1_EEEEEC2B8ue170006Ev, symObjAddr: 0x1DBE0, symBinAddr: 0x1000211AC, symSize: 0x40 }
  - { offsetInCU: 0x54278, offset: 0x54278, size: 0x8, addend: 0x0, symName: __ZNSt3__119__map_value_compareIiNS_12__value_typeIi4NodeEENS_4lessIiEELb1EEC1B8ue170006ES5_, symObjAddr: 0x1DC20, symBinAddr: 0x1000211EC, symSize: 0x2C }
  - { offsetInCU: 0x542B1, offset: 0x542B1, size: 0x8, addend: 0x0, symName: __ZNSt3__16__treeINS_12__value_typeIi4NodeEENS_19__map_value_compareIiS3_NS_4lessIiEELb1EEENS_9allocatorIS3_EEEC1ERKS7_, symObjAddr: 0x1DC4C, symBinAddr: 0x100021218, symSize: 0x34 }
  - { offsetInCU: 0x542EC, offset: 0x542EC, size: 0x8, addend: 0x0, symName: __ZNSt3__119__map_value_compareIiNS_12__value_typeIi4NodeEENS_4lessIiEELb1EEC2B8ue170006ES5_, symObjAddr: 0x1DC80, symBinAddr: 0x10002124C, symSize: 0x14 }
  - { offsetInCU: 0x54325, offset: 0x54325, size: 0x8, addend: 0x0, symName: __ZNSt3__16__treeINS_12__value_typeIi4NodeEENS_19__map_value_compareIiS3_NS_4lessIiEELb1EEENS_9allocatorIS3_EEEC2ERKS7_, symObjAddr: 0x1DC94, symBinAddr: 0x100021260, symSize: 0x7C }
  - { offsetInCU: 0x54360, offset: 0x54360, size: 0x8, addend: 0x0, symName: __ZNSt3__117__compressed_pairINS_15__tree_end_nodeIPNS_16__tree_node_baseIPvEEEENS_9allocatorINS_11__tree_nodeINS_12__value_typeIi4NodeEES3_EEEEEC1B8ue170006ILb1EvEEv, symObjAddr: 0x1DD10, symBinAddr: 0x1000212DC, symSize: 0x2C }
  - { offsetInCU: 0x54395, offset: 0x54395, size: 0x8, addend: 0x0, symName: __ZNSt3__117__compressed_pairImNS_19__map_value_compareIiNS_12__value_typeIi4NodeEENS_4lessIiEELb1EEEEC1B8ue170006IiRKS7_EEOT_OT0_, symObjAddr: 0x1DD3C, symBinAddr: 0x100021308, symSize: 0x3C }
  - { offsetInCU: 0x543ED, offset: 0x543ED, size: 0x8, addend: 0x0, symName: __ZNSt3__16__treeINS_12__value_typeIi4NodeEENS_19__map_value_compareIiS3_NS_4lessIiEELb1EEENS_9allocatorIS3_EEE10__end_nodeB8ue170006Ev, symObjAddr: 0x1DD78, symBinAddr: 0x100021344, symSize: 0x2C }
  - { offsetInCU: 0x54413, offset: 0x54413, size: 0x8, addend: 0x0, symName: __ZNSt3__16__treeINS_12__value_typeIi4NodeEENS_19__map_value_compareIiS3_NS_4lessIiEELb1EEENS_9allocatorIS3_EEE12__begin_nodeB8ue170006Ev, symObjAddr: 0x1DDA4, symBinAddr: 0x100021370, symSize: 0x14 }
  - { offsetInCU: 0x54439, offset: 0x54439, size: 0x8, addend: 0x0, symName: __ZNSt3__117__compressed_pairINS_15__tree_end_nodeIPNS_16__tree_node_baseIPvEEEENS_9allocatorINS_11__tree_nodeINS_12__value_typeIi4NodeEES3_EEEEEC2B8ue170006ILb1EvEEv, symObjAddr: 0x1DDB8, symBinAddr: 0x100021384, symSize: 0x34 }
  - { offsetInCU: 0x5446E, offset: 0x5446E, size: 0x8, addend: 0x0, symName: __ZNSt3__122__compressed_pair_elemINS_9allocatorINS_11__tree_nodeINS_12__value_typeIi4NodeEEPvEEEELi1ELb1EEC2B8ue170006ENS_16__value_init_tagE, symObjAddr: 0x1DDEC, symBinAddr: 0x1000213B8, symSize: 0x2C }
  - { offsetInCU: 0x544A3, offset: 0x544A3, size: 0x8, addend: 0x0, symName: __ZNSt3__19allocatorINS_11__tree_nodeINS_12__value_typeIi4NodeEEPvEEEC2B8ue170006Ev, symObjAddr: 0x1DE18, symBinAddr: 0x1000213E4, symSize: 0x2C }
  - { offsetInCU: 0x544CD, offset: 0x544CD, size: 0x8, addend: 0x0, symName: __ZNSt3__116__non_trivial_ifILb1ENS_9allocatorINS_11__tree_nodeINS_12__value_typeIi4NodeEEPvEEEEEC2B8ue170006Ev, symObjAddr: 0x1DE44, symBinAddr: 0x100021410, symSize: 0x14 }
  - { offsetInCU: 0x544F7, offset: 0x544F7, size: 0x8, addend: 0x0, symName: __ZNSt3__117__compressed_pairImNS_19__map_value_compareIiNS_12__value_typeIi4NodeEENS_4lessIiEELb1EEEEC2B8ue170006IiRKS7_EEOT_OT0_, symObjAddr: 0x1DE58, symBinAddr: 0x100021424, symSize: 0x44 }
  - { offsetInCU: 0x5454F, offset: 0x5454F, size: 0x8, addend: 0x0, symName: __ZNSt3__122__compressed_pair_elemINS_19__map_value_compareIiNS_12__value_typeIi4NodeEENS_4lessIiEELb1EEELi1ELb1EEC2B8ue170006IRKS7_vEEOT_, symObjAddr: 0x1DE9C, symBinAddr: 0x100021468, symSize: 0x18 }
  - { offsetInCU: 0x54591, offset: 0x54591, size: 0x8, addend: 0x0, symName: __ZNSt3__117__compressed_pairINS_15__tree_end_nodeIPNS_16__tree_node_baseIPvEEEENS_9allocatorINS_11__tree_nodeINS_12__value_typeIi4NodeEES3_EEEEE5firstB8ue170006Ev, symObjAddr: 0x1DEB4, symBinAddr: 0x100021480, symSize: 0x24 }
  - { offsetInCU: 0x545B7, offset: 0x545B7, size: 0x8, addend: 0x0, symName: __ZNSt3__16vectorI4NodeNS_9allocatorIS1_EEEC2B8ue170006Ev, symObjAddr: 0x1DED8, symBinAddr: 0x1000214A4, symSize: 0x4C }
  - { offsetInCU: 0x545E1, offset: 0x545E1, size: 0x8, addend: 0x0, symName: __ZNSt3__117__compressed_pairIP4NodeNS_9allocatorIS1_EEEC1B8ue170006IDnNS_18__default_init_tagEEEOT_OT0_, symObjAddr: 0x1DF24, symBinAddr: 0x1000214F0, symSize: 0x3C }
  - { offsetInCU: 0x54639, offset: 0x54639, size: 0x8, addend: 0x0, symName: __ZNSt3__117__compressed_pairIP4NodeNS_9allocatorIS1_EEEC2B8ue170006IDnNS_18__default_init_tagEEEOT_OT0_, symObjAddr: 0x1DF60, symBinAddr: 0x10002152C, symSize: 0x40 }
  - { offsetInCU: 0x54691, offset: 0x54691, size: 0x8, addend: 0x0, symName: __ZNSt3__122__compressed_pair_elemIP4NodeLi0ELb0EEC2B8ue170006IDnvEEOT_, symObjAddr: 0x1DFA0, symBinAddr: 0x10002156C, symSize: 0x1C }
  - { offsetInCU: 0x546D3, offset: 0x546D3, size: 0x8, addend: 0x0, symName: __ZNSt3__122__compressed_pair_elemINS_9allocatorI4NodeEELi1ELb1EEC2B8ue170006ENS_18__default_init_tagE, symObjAddr: 0x1DFBC, symBinAddr: 0x100021588, symSize: 0x2C }
  - { offsetInCU: 0x54708, offset: 0x54708, size: 0x8, addend: 0x0, symName: __ZNSt3__19allocatorI4NodeEC2B8ue170006Ev, symObjAddr: 0x1DFE8, symBinAddr: 0x1000215B4, symSize: 0x2C }
  - { offsetInCU: 0x54732, offset: 0x54732, size: 0x8, addend: 0x0, symName: __ZNSt3__116__non_trivial_ifILb1ENS_9allocatorI4NodeEEEC2B8ue170006Ev, symObjAddr: 0x1E014, symBinAddr: 0x1000215E0, symSize: 0x14 }
  - { offsetInCU: 0x5475C, offset: 0x5475C, size: 0x8, addend: 0x0, symName: __ZNSt3__15stackIiNS_5dequeIiNS_9allocatorIiEEEEEC2B8ue170006Ev, symObjAddr: 0x1E028, symBinAddr: 0x1000215F4, symSize: 0x2C }
  - { offsetInCU: 0x54786, offset: 0x54786, size: 0x8, addend: 0x0, symName: __ZNSt3__15dequeIiNS_9allocatorIiEEEC1B8ue170006Ev, symObjAddr: 0x1E054, symBinAddr: 0x100021620, symSize: 0x2C }
  - { offsetInCU: 0x547B0, offset: 0x547B0, size: 0x8, addend: 0x0, symName: __ZNSt3__15dequeIiNS_9allocatorIiEEEC2B8ue170006Ev, symObjAddr: 0x1E080, symBinAddr: 0x10002164C, symSize: 0x5C }
  - { offsetInCU: 0x547DA, offset: 0x547DA, size: 0x8, addend: 0x0, symName: __ZNSt3__114__split_bufferIPiNS_9allocatorIS1_EEEC1B8ue170006Ev, symObjAddr: 0x1E0DC, symBinAddr: 0x1000216A8, symSize: 0x2C }
  - { offsetInCU: 0x54804, offset: 0x54804, size: 0x8, addend: 0x0, symName: __ZNSt3__117__compressed_pairImNS_9allocatorIiEEEC1B8ue170006IiNS_18__default_init_tagEEEOT_OT0_, symObjAddr: 0x1E108, symBinAddr: 0x1000216D4, symSize: 0x3C }
  - { offsetInCU: 0x5485C, offset: 0x5485C, size: 0x8, addend: 0x0, symName: __ZNKSt3__15dequeIiNS_9allocatorIiEEE14__annotate_newB8ue170006Em, symObjAddr: 0x1E144, symBinAddr: 0x100021710, symSize: 0xC8 }
  - { offsetInCU: 0x54891, offset: 0x54891, size: 0x8, addend: 0x0, symName: __ZNSt3__114__split_bufferIPiNS_9allocatorIS1_EEEC2B8ue170006Ev, symObjAddr: 0x1E20C, symBinAddr: 0x1000217D8, symSize: 0x50 }
  - { offsetInCU: 0x548BB, offset: 0x548BB, size: 0x8, addend: 0x0, symName: __ZNSt3__117__compressed_pairIPPiNS_9allocatorIS1_EEEC1B8ue170006IDnNS_18__default_init_tagEEEOT_OT0_, symObjAddr: 0x1E25C, symBinAddr: 0x100021828, symSize: 0x3C }
  - { offsetInCU: 0x54913, offset: 0x54913, size: 0x8, addend: 0x0, symName: __ZNSt3__117__compressed_pairIPPiNS_9allocatorIS1_EEEC2B8ue170006IDnNS_18__default_init_tagEEEOT_OT0_, symObjAddr: 0x1E298, symBinAddr: 0x100021864, symSize: 0x40 }
  - { offsetInCU: 0x5496B, offset: 0x5496B, size: 0x8, addend: 0x0, symName: __ZNSt3__122__compressed_pair_elemIPPiLi0ELb0EEC2B8ue170006IDnvEEOT_, symObjAddr: 0x1E2D8, symBinAddr: 0x1000218A4, symSize: 0x1C }
  - { offsetInCU: 0x549AD, offset: 0x549AD, size: 0x8, addend: 0x0, symName: __ZNSt3__122__compressed_pair_elemINS_9allocatorIPiEELi1ELb1EEC2B8ue170006ENS_18__default_init_tagE, symObjAddr: 0x1E2F4, symBinAddr: 0x1000218C0, symSize: 0x2C }
  - { offsetInCU: 0x549E2, offset: 0x549E2, size: 0x8, addend: 0x0, symName: __ZNSt3__19allocatorIPiEC2B8ue170006Ev, symObjAddr: 0x1E320, symBinAddr: 0x1000218EC, symSize: 0x2C }
  - { offsetInCU: 0x54A0C, offset: 0x54A0C, size: 0x8, addend: 0x0, symName: __ZNSt3__116__non_trivial_ifILb1ENS_9allocatorIPiEEEC2B8ue170006Ev, symObjAddr: 0x1E34C, symBinAddr: 0x100021918, symSize: 0x14 }
  - { offsetInCU: 0x54A36, offset: 0x54A36, size: 0x8, addend: 0x0, symName: __ZNSt3__117__compressed_pairImNS_9allocatorIiEEEC2B8ue170006IiNS_18__default_init_tagEEEOT_OT0_, symObjAddr: 0x1E360, symBinAddr: 0x10002192C, symSize: 0x40 }
  - { offsetInCU: 0x54A8E, offset: 0x54A8E, size: 0x8, addend: 0x0, symName: __ZNSt3__122__compressed_pair_elemINS_9allocatorIiEELi1ELb1EEC2B8ue170006ENS_18__default_init_tagE, symObjAddr: 0x1E3A0, symBinAddr: 0x10002196C, symSize: 0x2C }
  - { offsetInCU: 0x54AC3, offset: 0x54AC3, size: 0x8, addend: 0x0, symName: __ZNSt3__19allocatorIiEC2B8ue170006Ev, symObjAddr: 0x1E3CC, symBinAddr: 0x100021998, symSize: 0x2C }
  - { offsetInCU: 0x54AED, offset: 0x54AED, size: 0x8, addend: 0x0, symName: __ZNSt3__116__non_trivial_ifILb1ENS_9allocatorIiEEEC2B8ue170006Ev, symObjAddr: 0x1E3F8, symBinAddr: 0x1000219C4, symSize: 0x14 }
  - { offsetInCU: 0x54B17, offset: 0x54B17, size: 0x8, addend: 0x0, symName: __ZNKSt3__15dequeIiNS_9allocatorIiEEE18__annotate_from_toB8ue170006EmmNS3_22__asan_annotation_typeENS3_23__asan_annotation_placeE, symObjAddr: 0x1E40C, symBinAddr: 0x1000219D8, symSize: 0x580 }
  - { offsetInCU: 0x54CD3, offset: 0x54CD3, size: 0x8, addend: 0x0, symName: __ZNKSt3__114__split_bufferIPiNS_9allocatorIS1_EEE4sizeB8ue170006Ev, symObjAddr: 0x1E98C, symBinAddr: 0x100021F58, symSize: 0x28 }
  - { offsetInCU: 0x54CF9, offset: 0x54CF9, size: 0x8, addend: 0x0, symName: __ZNKSt3__114__split_bufferIPiNS_9allocatorIS1_EEE5beginB8ue170006Ev, symObjAddr: 0x1E9B4, symBinAddr: 0x100021F80, symSize: 0x18 }
  - { offsetInCU: 0x54D1F, offset: 0x54D1F, size: 0x8, addend: 0x0, symName: __ZNKSt3__15dequeIiNS_9allocatorIiEEE4sizeB8ue170006Ev, symObjAddr: 0x1E9CC, symBinAddr: 0x100021F98, symSize: 0x28 }
  - { offsetInCU: 0x54D45, offset: 0x54D45, size: 0x8, addend: 0x0, symName: __ZNKSt3__15dequeIiNS_9allocatorIiEEE5emptyB8ue170006Ev, symObjAddr: 0x1E9F4, symBinAddr: 0x100021FC0, symSize: 0x30 }
  - { offsetInCU: 0x54D6B, offset: 0x54D6B, size: 0x8, addend: 0x0, symName: __ZNKSt3__15dequeIiNS_9allocatorIiEEE44__annotate_double_ended_contiguous_containerB8ue170006EPKvS5_S5_S5_S5_S5_, symObjAddr: 0x1EA38, symBinAddr: 0x100022004, symSize: 0x28 }
  - { offsetInCU: 0x54DD9, offset: 0x54DD9, size: 0x8, addend: 0x0, symName: __ZNKSt3__15dequeIiNS_9allocatorIiEEE6__sizeB8ue170006Ev, symObjAddr: 0x1EA60, symBinAddr: 0x10002202C, symSize: 0x28 }
  - { offsetInCU: 0x54DFF, offset: 0x54DFF, size: 0x8, addend: 0x0, symName: __ZNKSt3__117__compressed_pairImNS_9allocatorIiEEE5firstB8ue170006Ev, symObjAddr: 0x1EA88, symBinAddr: 0x100022054, symSize: 0x24 }
  - { offsetInCU: 0x54E25, offset: 0x54E25, size: 0x8, addend: 0x0, symName: __ZNKSt3__122__compressed_pair_elemImLi0ELb0EE5__getB8ue170006Ev, symObjAddr: 0x1EAAC, symBinAddr: 0x100022078, symSize: 0x14 }
  - { offsetInCU: 0x54E4B, offset: 0x54E4B, size: 0x8, addend: 0x0, symName: __ZN4NodeC2Ev, symObjAddr: 0x1EAC0, symBinAddr: 0x10002208C, symSize: 0x2C }
  - { offsetInCU: 0x54E77, offset: 0x54E77, size: 0x8, addend: 0x0, symName: __ZNSt3__13setIiNS_4lessIiEENS_9allocatorIiEEEC1B8ue170006Ev, symObjAddr: 0x1EAEC, symBinAddr: 0x1000220B8, symSize: 0x2C }
  - { offsetInCU: 0x54EA1, offset: 0x54EA1, size: 0x8, addend: 0x0, symName: __ZNSt3__13setIiNS_4lessIiEENS_9allocatorIiEEEC2B8ue170006Ev, symObjAddr: 0x1EB18, symBinAddr: 0x1000220E4, symSize: 0x30 }
  - { offsetInCU: 0x54ECB, offset: 0x54ECB, size: 0x8, addend: 0x0, symName: __ZNSt3__16__treeIiNS_4lessIiEENS_9allocatorIiEEEC1ERKS2_, symObjAddr: 0x1EB48, symBinAddr: 0x100022114, symSize: 0x34 }
  - { offsetInCU: 0x54F06, offset: 0x54F06, size: 0x8, addend: 0x0, symName: __ZNSt3__16__treeIiNS_4lessIiEENS_9allocatorIiEEEC2ERKS2_, symObjAddr: 0x1EB7C, symBinAddr: 0x100022148, symSize: 0x7C }
  - { offsetInCU: 0x54F41, offset: 0x54F41, size: 0x8, addend: 0x0, symName: __ZNSt3__117__compressed_pairINS_15__tree_end_nodeIPNS_16__tree_node_baseIPvEEEENS_9allocatorINS_11__tree_nodeIiS3_EEEEEC1B8ue170006ILb1EvEEv, symObjAddr: 0x1EBF8, symBinAddr: 0x1000221C4, symSize: 0x2C }
  - { offsetInCU: 0x54F76, offset: 0x54F76, size: 0x8, addend: 0x0, symName: __ZNSt3__117__compressed_pairImNS_4lessIiEEEC1B8ue170006IiRKS2_EEOT_OT0_, symObjAddr: 0x1EC24, symBinAddr: 0x1000221F0, symSize: 0x3C }
  - { offsetInCU: 0x54FCE, offset: 0x54FCE, size: 0x8, addend: 0x0, symName: __ZNSt3__16__treeIiNS_4lessIiEENS_9allocatorIiEEE10__end_nodeB8ue170006Ev, symObjAddr: 0x1EC60, symBinAddr: 0x10002222C, symSize: 0x2C }
  - { offsetInCU: 0x54FF4, offset: 0x54FF4, size: 0x8, addend: 0x0, symName: __ZNSt3__16__treeIiNS_4lessIiEENS_9allocatorIiEEE12__begin_nodeB8ue170006Ev, symObjAddr: 0x1EC8C, symBinAddr: 0x100022258, symSize: 0x14 }
  - { offsetInCU: 0x5501A, offset: 0x5501A, size: 0x8, addend: 0x0, symName: __ZNSt3__117__compressed_pairINS_15__tree_end_nodeIPNS_16__tree_node_baseIPvEEEENS_9allocatorINS_11__tree_nodeIiS3_EEEEEC2B8ue170006ILb1EvEEv, symObjAddr: 0x1ECA0, symBinAddr: 0x10002226C, symSize: 0x34 }
  - { offsetInCU: 0x5504F, offset: 0x5504F, size: 0x8, addend: 0x0, symName: __ZNSt3__122__compressed_pair_elemINS_9allocatorINS_11__tree_nodeIiPvEEEELi1ELb1EEC2B8ue170006ENS_16__value_init_tagE, symObjAddr: 0x1ECD4, symBinAddr: 0x1000222A0, symSize: 0x2C }
  - { offsetInCU: 0x55084, offset: 0x55084, size: 0x8, addend: 0x0, symName: __ZNSt3__19allocatorINS_11__tree_nodeIiPvEEEC2B8ue170006Ev, symObjAddr: 0x1ED00, symBinAddr: 0x1000222CC, symSize: 0x2C }
  - { offsetInCU: 0x550AE, offset: 0x550AE, size: 0x8, addend: 0x0, symName: __ZNSt3__116__non_trivial_ifILb1ENS_9allocatorINS_11__tree_nodeIiPvEEEEEC2B8ue170006Ev, symObjAddr: 0x1ED2C, symBinAddr: 0x1000222F8, symSize: 0x14 }
  - { offsetInCU: 0x550D8, offset: 0x550D8, size: 0x8, addend: 0x0, symName: __ZNSt3__117__compressed_pairImNS_4lessIiEEEC2B8ue170006IiRKS2_EEOT_OT0_, symObjAddr: 0x1ED40, symBinAddr: 0x10002230C, symSize: 0x44 }
  - { offsetInCU: 0x55130, offset: 0x55130, size: 0x8, addend: 0x0, symName: __ZNSt3__122__compressed_pair_elemINS_4lessIiEELi1ELb1EEC2B8ue170006IRKS2_vEEOT_, symObjAddr: 0x1ED84, symBinAddr: 0x100022350, symSize: 0x18 }
  - { offsetInCU: 0x55172, offset: 0x55172, size: 0x8, addend: 0x0, symName: __ZNSt3__117__compressed_pairINS_15__tree_end_nodeIPNS_16__tree_node_baseIPvEEEENS_9allocatorINS_11__tree_nodeIiS3_EEEEE5firstB8ue170006Ev, symObjAddr: 0x1ED9C, symBinAddr: 0x100022368, symSize: 0x24 }
  - { offsetInCU: 0x551B0, offset: 0x551B0, size: 0x8, addend: 0x0, symName: __ZNSt3__16__treeINS_12__value_typeIi4NodeEENS_19__map_value_compareIiS3_NS_4lessIiEELb1EEENS_9allocatorIS3_EEE25__emplace_unique_key_argsIiJRKNS_21piecewise_construct_tENS_5tupleIJRKiEEENSF_IJEEEEEENS_4pairINS_15__tree_iteratorIS3_PNS_11__tree_nodeIS3_PvEElEEbEERKT_DpOT0_, symObjAddr: 0x1EDC0, symBinAddr: 0x10002238C, symSize: 0x100 }
  - { offsetInCU: 0x55286, offset: 0x55286, size: 0x8, addend: 0x0, symName: __ZNKSt3__115__tree_iteratorINS_12__value_typeIi4NodeEEPNS_11__tree_nodeIS3_PvEElEptB8ue170006Ev, symObjAddr: 0x1EEF0, symBinAddr: 0x1000224BC, symSize: 0x2C }
  - { offsetInCU: 0x552AC, offset: 0x552AC, size: 0x8, addend: 0x0, symName: __ZNSt3__112__value_typeIi4NodeE11__get_valueB8ue170006Ev, symObjAddr: 0x1EF1C, symBinAddr: 0x1000224E8, symSize: 0x24 }
  - { offsetInCU: 0x552D2, offset: 0x552D2, size: 0x8, addend: 0x0, symName: __ZNSt3__16__treeINS_12__value_typeIi4NodeEENS_19__map_value_compareIiS3_NS_4lessIiEELb1EEENS_9allocatorIS3_EEE12__find_equalIiEERPNS_16__tree_node_baseIPvEERPNS_15__tree_end_nodeISF_EERKT_, symObjAddr: 0x1EF40, symBinAddr: 0x10002250C, symSize: 0x184 }
  - { offsetInCU: 0x5533F, offset: 0x5533F, size: 0x8, addend: 0x0, symName: __ZNSt3__16__treeINS_12__value_typeIi4NodeEENS_19__map_value_compareIiS3_NS_4lessIiEELb1EEENS_9allocatorIS3_EEE16__construct_nodeIJRKNS_21piecewise_construct_tENS_5tupleIJRKiEEENSF_IJEEEEEENS_10unique_ptrINS_11__tree_nodeIS3_PvEENS_22__tree_node_destructorINS8_ISN_EEEEEEDpOT_, symObjAddr: 0x1F0C4, symBinAddr: 0x100022690, symSize: 0x120 }
  - { offsetInCU: 0x553C8, offset: 0x553C8, size: 0x8, addend: 0x0, symName: __ZNSt3__16__treeINS_12__value_typeIi4NodeEENS_19__map_value_compareIiS3_NS_4lessIiEELb1EEENS_9allocatorIS3_EEE16__insert_node_atEPNS_15__tree_end_nodeIPNS_16__tree_node_baseIPvEEEERSF_SF_, symObjAddr: 0x1F1E4, symBinAddr: 0x1000227B0, symSize: 0xCC }
  - { offsetInCU: 0x5541D, offset: 0x5541D, size: 0x8, addend: 0x0, symName: __ZNKSt3__110unique_ptrINS_11__tree_nodeINS_12__value_typeIi4NodeEEPvEENS_22__tree_node_destructorINS_9allocatorIS6_EEEEE3getB8ue170006Ev, symObjAddr: 0x1F2B0, symBinAddr: 0x10002287C, symSize: 0x28 }
  - { offsetInCU: 0x55443, offset: 0x55443, size: 0x8, addend: 0x0, symName: __ZNSt3__110unique_ptrINS_11__tree_nodeINS_12__value_typeIi4NodeEEPvEENS_22__tree_node_destructorINS_9allocatorIS6_EEEEE7releaseB8ue170006Ev, symObjAddr: 0x1F2D8, symBinAddr: 0x1000228A4, symSize: 0x44 }
  - { offsetInCU: 0x55478, offset: 0x55478, size: 0x8, addend: 0x0, symName: __ZNSt3__110unique_ptrINS_11__tree_nodeINS_12__value_typeIi4NodeEEPvEENS_22__tree_node_destructorINS_9allocatorIS6_EEEEED1B8ue170006Ev, symObjAddr: 0x1F31C, symBinAddr: 0x1000228E8, symSize: 0x2C }
  - { offsetInCU: 0x554A2, offset: 0x554A2, size: 0x8, addend: 0x0, symName: __ZNSt3__115__tree_iteratorINS_12__value_typeIi4NodeEEPNS_11__tree_nodeIS3_PvEElEC1B8ue170006ES7_, symObjAddr: 0x1F348, symBinAddr: 0x100022914, symSize: 0x34 }
  - { offsetInCU: 0x554E1, offset: 0x554E1, size: 0x8, addend: 0x0, symName: __ZNSt3__14pairINS_15__tree_iteratorINS_12__value_typeIi4NodeEEPNS_11__tree_nodeIS4_PvEElEEbEC1B8ue170006IS9_RbLS6_0EEEOT_OT0_, symObjAddr: 0x1F37C, symBinAddr: 0x100022948, symSize: 0x3C }
  - { offsetInCU: 0x5553F, offset: 0x5553F, size: 0x8, addend: 0x0, symName: __ZNKSt3__16__treeINS_12__value_typeIi4NodeEENS_19__map_value_compareIiS3_NS_4lessIiEELb1EEENS_9allocatorIS3_EEE6__rootB8ue170006Ev, symObjAddr: 0x1F3B8, symBinAddr: 0x100022984, symSize: 0x28 }
  - { offsetInCU: 0x55565, offset: 0x55565, size: 0x8, addend: 0x0, symName: __ZNKSt3__16__treeINS_12__value_typeIi4NodeEENS_19__map_value_compareIiS3_NS_4lessIiEELb1EEENS_9allocatorIS3_EEE10__root_ptrB8ue170006Ev, symObjAddr: 0x1F3E0, symBinAddr: 0x1000229AC, symSize: 0x24 }
  - { offsetInCU: 0x5558B, offset: 0x5558B, size: 0x8, addend: 0x0, symName: __ZNSt3__16__treeINS_12__value_typeIi4NodeEENS_19__map_value_compareIiS3_NS_4lessIiEELb1EEENS_9allocatorIS3_EEE10value_compB8ue170006Ev, symObjAddr: 0x1F404, symBinAddr: 0x1000229D0, symSize: 0x28 }
  - { offsetInCU: 0x555B1, offset: 0x555B1, size: 0x8, addend: 0x0, symName: __ZNKSt3__119__map_value_compareIiNS_12__value_typeIi4NodeEENS_4lessIiEELb1EEclB8ue170006ERKiRKS3_, symObjAddr: 0x1F42C, symBinAddr: 0x1000229F8, symSize: 0x50 }
  - { offsetInCU: 0x555F5, offset: 0x555F5, size: 0x8, addend: 0x0, symName: __ZNKSt3__119__map_value_compareIiNS_12__value_typeIi4NodeEENS_4lessIiEELb1EEclB8ue170006ERKS3_RKi, symObjAddr: 0x1F47C, symBinAddr: 0x100022A48, symSize: 0x48 }
  - { offsetInCU: 0x55639, offset: 0x55639, size: 0x8, addend: 0x0, symName: __ZNKSt3__16__treeINS_12__value_typeIi4NodeEENS_19__map_value_compareIiS3_NS_4lessIiEELb1EEENS_9allocatorIS3_EEE10__end_nodeB8ue170006Ev, symObjAddr: 0x1F4C4, symBinAddr: 0x100022A90, symSize: 0x2C }
  - { offsetInCU: 0x5565F, offset: 0x5565F, size: 0x8, addend: 0x0, symName: __ZNKSt3__117__compressed_pairINS_15__tree_end_nodeIPNS_16__tree_node_baseIPvEEEENS_9allocatorINS_11__tree_nodeINS_12__value_typeIi4NodeEES3_EEEEE5firstB8ue170006Ev, symObjAddr: 0x1F4F0, symBinAddr: 0x100022ABC, symSize: 0x24 }
  - { offsetInCU: 0x55685, offset: 0x55685, size: 0x8, addend: 0x0, symName: __ZNSt3__117__compressed_pairImNS_19__map_value_compareIiNS_12__value_typeIi4NodeEENS_4lessIiEELb1EEEE6secondB8ue170006Ev, symObjAddr: 0x1F514, symBinAddr: 0x100022AE0, symSize: 0x24 }
  - { offsetInCU: 0x556AB, offset: 0x556AB, size: 0x8, addend: 0x0, symName: __ZNSt3__122__compressed_pair_elemINS_19__map_value_compareIiNS_12__value_typeIi4NodeEENS_4lessIiEELb1EEELi1ELb1EE5__getB8ue170006Ev, symObjAddr: 0x1F538, symBinAddr: 0x100022B04, symSize: 0x14 }
  - { offsetInCU: 0x556D1, offset: 0x556D1, size: 0x8, addend: 0x0, symName: __ZNKSt3__14lessIiEclB8ue170006ERKiS3_, symObjAddr: 0x1F54C, symBinAddr: 0x100022B18, symSize: 0x34 }
  - { offsetInCU: 0x55715, offset: 0x55715, size: 0x8, addend: 0x0, symName: __ZNKSt3__112__value_typeIi4NodeE11__get_valueB8ue170006Ev, symObjAddr: 0x1F580, symBinAddr: 0x100022B4C, symSize: 0x24 }
  - { offsetInCU: 0x5573B, offset: 0x5573B, size: 0x8, addend: 0x0, symName: __ZNSt3__16__treeINS_12__value_typeIi4NodeEENS_19__map_value_compareIiS3_NS_4lessIiEELb1EEENS_9allocatorIS3_EEE12__node_allocB8ue170006Ev, symObjAddr: 0x1F5DC, symBinAddr: 0x100022BA8, symSize: 0x28 }
  - { offsetInCU: 0x55761, offset: 0x55761, size: 0x8, addend: 0x0, symName: __ZNSt3__116allocator_traitsINS_9allocatorINS_11__tree_nodeINS_12__value_typeIi4NodeEEPvEEEEE8allocateB8ue170006ERS8_m, symObjAddr: 0x1F604, symBinAddr: 0x100022BD0, symSize: 0x2C }
  - { offsetInCU: 0x55794, offset: 0x55794, size: 0x8, addend: 0x0, symName: __ZNSt3__122__tree_node_destructorINS_9allocatorINS_11__tree_nodeINS_12__value_typeIi4NodeEEPvEEEEEC1B8ue170006ERS8_b, symObjAddr: 0x1F630, symBinAddr: 0x100022BFC, symSize: 0x48 }
  - { offsetInCU: 0x557E2, offset: 0x557E2, size: 0x8, addend: 0x0, symName: __ZNSt3__110unique_ptrINS_11__tree_nodeINS_12__value_typeIi4NodeEEPvEENS_22__tree_node_destructorINS_9allocatorIS6_EEEEEC1B8ue170006ILb1EvEEPS6_NS_16__dependent_typeINS_27__unique_ptr_deleter_sfinaeISA_EEXT_EE20__good_rval_ref_typeE, symObjAddr: 0x1F678, symBinAddr: 0x100022C44, symSize: 0x3C }
  - { offsetInCU: 0x55833, offset: 0x55833, size: 0x8, addend: 0x0, symName: __ZNSt3__116allocator_traitsINS_9allocatorINS_11__tree_nodeINS_12__value_typeIi4NodeEEPvEEEEE9constructB8ue170006INS_4pairIKiS4_EEJRKNS_21piecewise_construct_tENS_5tupleIJRSC_EEENSH_IJEEEEvEEvRS8_PT_DpOT0_, symObjAddr: 0x1F6B4, symBinAddr: 0x100022C80, symSize: 0x44 }
  - { offsetInCU: 0x558B2, offset: 0x558B2, size: 0x8, addend: 0x0, symName: __ZNSt3__122__tree_key_value_typesINS_12__value_typeIi4NodeEEE9__get_ptrB8ue170006ERS3_, symObjAddr: 0x1F6F8, symBinAddr: 0x100022CC4, symSize: 0x24 }
  - { offsetInCU: 0x558D6, offset: 0x558D6, size: 0x8, addend: 0x0, symName: __ZNKSt3__110unique_ptrINS_11__tree_nodeINS_12__value_typeIi4NodeEEPvEENS_22__tree_node_destructorINS_9allocatorIS6_EEEEEptB8ue170006Ev, symObjAddr: 0x1F71C, symBinAddr: 0x100022CE8, symSize: 0x28 }
  - { offsetInCU: 0x558FC, offset: 0x558FC, size: 0x8, addend: 0x0, symName: __ZNSt3__110unique_ptrINS_11__tree_nodeINS_12__value_typeIi4NodeEEPvEENS_22__tree_node_destructorINS_9allocatorIS6_EEEEE11get_deleterB8ue170006Ev, symObjAddr: 0x1F744, symBinAddr: 0x100022D10, symSize: 0x24 }
  - { offsetInCU: 0x55922, offset: 0x55922, size: 0x8, addend: 0x0, symName: __ZNSt3__117__compressed_pairINS_15__tree_end_nodeIPNS_16__tree_node_baseIPvEEEENS_9allocatorINS_11__tree_nodeINS_12__value_typeIi4NodeEES3_EEEEE6secondB8ue170006Ev, symObjAddr: 0x1F768, symBinAddr: 0x100022D34, symSize: 0x24 }
  - { offsetInCU: 0x55948, offset: 0x55948, size: 0x8, addend: 0x0, symName: __ZNSt3__122__compressed_pair_elemINS_9allocatorINS_11__tree_nodeINS_12__value_typeIi4NodeEEPvEEEELi1ELb1EE5__getB8ue170006Ev, symObjAddr: 0x1F78C, symBinAddr: 0x100022D58, symSize: 0x14 }
  - { offsetInCU: 0x5596E, offset: 0x5596E, size: 0x8, addend: 0x0, symName: __ZNSt3__19allocatorINS_11__tree_nodeINS_12__value_typeIi4NodeEEPvEEE8allocateB8ue170006Em, symObjAddr: 0x1F7A0, symBinAddr: 0x100022D6C, symSize: 0x5C }
  - { offsetInCU: 0x559AD, offset: 0x559AD, size: 0x8, addend: 0x0, symName: __ZNSt3__116allocator_traitsINS_9allocatorINS_11__tree_nodeINS_12__value_typeIi4NodeEEPvEEEEE8max_sizeB8ue170006IS8_vEEmRKS8_, symObjAddr: 0x1F7FC, symBinAddr: 0x100022DC8, symSize: 0x24 }
  - { offsetInCU: 0x559DB, offset: 0x559DB, size: 0x8, addend: 0x0, symName: __ZNKSt3__19allocatorINS_11__tree_nodeINS_12__value_typeIi4NodeEEPvEEE8max_sizeB8ue170006Ev, symObjAddr: 0x1F820, symBinAddr: 0x100022DEC, symSize: 0x20 }
  - { offsetInCU: 0x55A01, offset: 0x55A01, size: 0x8, addend: 0x0, symName: __ZNSt3__122__tree_node_destructorINS_9allocatorINS_11__tree_nodeINS_12__value_typeIi4NodeEEPvEEEEEC2B8ue170006ERS8_b, symObjAddr: 0x1F840, symBinAddr: 0x100022E0C, symSize: 0x38 }
  - { offsetInCU: 0x55A49, offset: 0x55A49, size: 0x8, addend: 0x0, symName: __ZNSt3__110unique_ptrINS_11__tree_nodeINS_12__value_typeIi4NodeEEPvEENS_22__tree_node_destructorINS_9allocatorIS6_EEEEEC2B8ue170006ILb1EvEEPS6_NS_16__dependent_typeINS_27__unique_ptr_deleter_sfinaeISA_EEXT_EE20__good_rval_ref_typeE, symObjAddr: 0x1F878, symBinAddr: 0x100022E44, symSize: 0x48 }
  - { offsetInCU: 0x55A9A, offset: 0x55A9A, size: 0x8, addend: 0x0, symName: __ZNSt3__117__compressed_pairIPNS_11__tree_nodeINS_12__value_typeIi4NodeEEPvEENS_22__tree_node_destructorINS_9allocatorIS6_EEEEEC1B8ue170006IRS7_SB_EEOT_OT0_, symObjAddr: 0x1F8C0, symBinAddr: 0x100022E8C, symSize: 0x3C }
  - { offsetInCU: 0x55AF2, offset: 0x55AF2, size: 0x8, addend: 0x0, symName: __ZNSt3__117__compressed_pairIPNS_11__tree_nodeINS_12__value_typeIi4NodeEEPvEENS_22__tree_node_destructorINS_9allocatorIS6_EEEEEC2B8ue170006IRS7_SB_EEOT_OT0_, symObjAddr: 0x1F8FC, symBinAddr: 0x100022EC8, symSize: 0x48 }
  - { offsetInCU: 0x55B4A, offset: 0x55B4A, size: 0x8, addend: 0x0, symName: __ZNSt3__122__compressed_pair_elemIPNS_11__tree_nodeINS_12__value_typeIi4NodeEEPvEELi0ELb0EEC2B8ue170006IRS7_vEEOT_, symObjAddr: 0x1F944, symBinAddr: 0x100022F10, symSize: 0x24 }
  - { offsetInCU: 0x55B8C, offset: 0x55B8C, size: 0x8, addend: 0x0, symName: __ZNSt3__122__compressed_pair_elemINS_22__tree_node_destructorINS_9allocatorINS_11__tree_nodeINS_12__value_typeIi4NodeEEPvEEEEEELi1ELb0EEC2B8ue170006ISA_vEEOT_, symObjAddr: 0x1F968, symBinAddr: 0x100022F34, symSize: 0x24 }
  - { offsetInCU: 0x55BCE, offset: 0x55BCE, size: 0x8, addend: 0x0, symName: __ZNSt3__19allocatorINS_11__tree_nodeINS_12__value_typeIi4NodeEEPvEEE9constructB8ue170006INS_4pairIKiS3_EEJRKNS_21piecewise_construct_tENS_5tupleIJRSA_EEENSF_IJEEEEEEvPT_DpOT0_, symObjAddr: 0x1F98C, symBinAddr: 0x100022F58, symSize: 0x44 }
  - { offsetInCU: 0x55C4A, offset: 0x55C4A, size: 0x8, addend: 0x0, symName: __ZNSt3__14pairIKi4NodeEC1B8ue170006IJRS1_EJEEENS_21piecewise_construct_tENS_5tupleIJDpT_EEENS7_IJDpT0_EEE, symObjAddr: 0x1F9D0, symBinAddr: 0x100022F9C, symSize: 0x44 }
  - { offsetInCU: 0x55CB1, offset: 0x55CB1, size: 0x8, addend: 0x0, symName: __ZNSt3__14pairIKi4NodeEC1B8ue170006IJRS1_EJEJLm0EEJEEENS_21piecewise_construct_tERNS_5tupleIJDpT_EEERNS7_IJDpT0_EEENS_15__tuple_indicesIJXspT1_EEEENSG_IJXspT2_EEEE, symObjAddr: 0x1FA14, symBinAddr: 0x100022FE0, symSize: 0x3C }
  - { offsetInCU: 0x55D41, offset: 0x55D41, size: 0x8, addend: 0x0, symName: __ZNSt3__14pairIKi4NodeEC2B8ue170006IJRS1_EJEJLm0EEJEEENS_21piecewise_construct_tERNS_5tupleIJDpT_EEERNS7_IJDpT0_EEENS_15__tuple_indicesIJXspT1_EEEENSG_IJXspT2_EEEE, symObjAddr: 0x1FA50, symBinAddr: 0x10002301C, symSize: 0x58 }
  - { offsetInCU: 0x55DD1, offset: 0x55DD1, size: 0x8, addend: 0x0, symName: __ZNSt3__112__tuple_leafILm0ERKiLb0EE3getB8ue170006Ev, symObjAddr: 0x1FACC, symBinAddr: 0x100023098, symSize: 0x18 }
  - { offsetInCU: 0x55DF7, offset: 0x55DF7, size: 0x8, addend: 0x0, symName: __ZNKSt3__117__compressed_pairIPNS_11__tree_nodeINS_12__value_typeIi4NodeEEPvEENS_22__tree_node_destructorINS_9allocatorIS6_EEEEE5firstB8ue170006Ev, symObjAddr: 0x1FAE4, symBinAddr: 0x1000230B0, symSize: 0x24 }
  - { offsetInCU: 0x55E1D, offset: 0x55E1D, size: 0x8, addend: 0x0, symName: __ZNKSt3__122__compressed_pair_elemIPNS_11__tree_nodeINS_12__value_typeIi4NodeEEPvEELi0ELb0EE5__getB8ue170006Ev, symObjAddr: 0x1FB08, symBinAddr: 0x1000230D4, symSize: 0x14 }
  - { offsetInCU: 0x55E43, offset: 0x55E43, size: 0x8, addend: 0x0, symName: __ZNSt3__117__compressed_pairIPNS_11__tree_nodeINS_12__value_typeIi4NodeEEPvEENS_22__tree_node_destructorINS_9allocatorIS6_EEEEE6secondB8ue170006Ev, symObjAddr: 0x1FB1C, symBinAddr: 0x1000230E8, symSize: 0x28 }
  - { offsetInCU: 0x55E69, offset: 0x55E69, size: 0x8, addend: 0x0, symName: __ZNSt3__122__compressed_pair_elemINS_22__tree_node_destructorINS_9allocatorINS_11__tree_nodeINS_12__value_typeIi4NodeEEPvEEEEEELi1ELb0EE5__getB8ue170006Ev, symObjAddr: 0x1FB44, symBinAddr: 0x100023110, symSize: 0x14 }
  - { offsetInCU: 0x55E8F, offset: 0x55E8F, size: 0x8, addend: 0x0, symName: __ZNSt3__16__treeINS_12__value_typeIi4NodeEENS_19__map_value_compareIiS3_NS_4lessIiEELb1EEENS_9allocatorIS3_EEE4sizeB8ue170006Ev, symObjAddr: 0x1FB58, symBinAddr: 0x100023124, symSize: 0x28 }
  - { offsetInCU: 0x55EB5, offset: 0x55EB5, size: 0x8, addend: 0x0, symName: __ZNSt3__117__compressed_pairImNS_19__map_value_compareIiNS_12__value_typeIi4NodeEENS_4lessIiEELb1EEEE5firstB8ue170006Ev, symObjAddr: 0x1FB80, symBinAddr: 0x10002314C, symSize: 0x24 }
  - { offsetInCU: 0x55EDB, offset: 0x55EDB, size: 0x8, addend: 0x0, symName: __ZNSt3__117__compressed_pairIPNS_11__tree_nodeINS_12__value_typeIi4NodeEEPvEENS_22__tree_node_destructorINS_9allocatorIS6_EEEEE5firstB8ue170006Ev, symObjAddr: 0x1FBA4, symBinAddr: 0x100023170, symSize: 0x24 }
  - { offsetInCU: 0x55F01, offset: 0x55F01, size: 0x8, addend: 0x0, symName: __ZNSt3__122__compressed_pair_elemIPNS_11__tree_nodeINS_12__value_typeIi4NodeEEPvEELi0ELb0EE5__getB8ue170006Ev, symObjAddr: 0x1FBC8, symBinAddr: 0x100023194, symSize: 0x14 }
  - { offsetInCU: 0x55F27, offset: 0x55F27, size: 0x8, addend: 0x0, symName: __ZNSt3__110unique_ptrINS_11__tree_nodeINS_12__value_typeIi4NodeEEPvEENS_22__tree_node_destructorINS_9allocatorIS6_EEEEED2B8ue170006Ev, symObjAddr: 0x1FBDC, symBinAddr: 0x1000231A8, symSize: 0x30 }
  - { offsetInCU: 0x55F51, offset: 0x55F51, size: 0x8, addend: 0x0, symName: __ZNSt3__110unique_ptrINS_11__tree_nodeINS_12__value_typeIi4NodeEEPvEENS_22__tree_node_destructorINS_9allocatorIS6_EEEEE5resetB8ue170006EPS6_, symObjAddr: 0x1FC0C, symBinAddr: 0x1000231D8, symSize: 0x78 }
  - { offsetInCU: 0x55F95, offset: 0x55F95, size: 0x8, addend: 0x0, symName: __ZNSt3__122__tree_node_destructorINS_9allocatorINS_11__tree_nodeINS_12__value_typeIi4NodeEEPvEEEEEclB8ue170006EPS7_, symObjAddr: 0x1FC84, symBinAddr: 0x100023250, symSize: 0x98 }
  - { offsetInCU: 0x55FCA, offset: 0x55FCA, size: 0x8, addend: 0x0, symName: __ZNSt3__116allocator_traitsINS_9allocatorINS_11__tree_nodeINS_12__value_typeIi4NodeEEPvEEEEE7destroyB8ue170006INS_4pairIKiS4_EEvvEEvRS8_PT_, symObjAddr: 0x1FD1C, symBinAddr: 0x1000232E8, symSize: 0x28 }
  - { offsetInCU: 0x56005, offset: 0x56005, size: 0x8, addend: 0x0, symName: __ZNSt3__116allocator_traitsINS_9allocatorINS_11__tree_nodeINS_12__value_typeIi4NodeEEPvEEEEE10deallocateB8ue170006ERS8_PS7_m, symObjAddr: 0x1FD44, symBinAddr: 0x100023310, symSize: 0x34 }
  - { offsetInCU: 0x56047, offset: 0x56047, size: 0x8, addend: 0x0, symName: __ZNSt3__14pairIKi4NodeED1Ev, symObjAddr: 0x1FD78, symBinAddr: 0x100023344, symSize: 0x2C }
  - { offsetInCU: 0x56073, offset: 0x56073, size: 0x8, addend: 0x0, symName: __ZNSt3__14pairIKi4NodeED2Ev, symObjAddr: 0x1FDA4, symBinAddr: 0x100023370, symSize: 0x30 }
  - { offsetInCU: 0x5609F, offset: 0x5609F, size: 0x8, addend: 0x0, symName: __ZNSt3__19allocatorINS_11__tree_nodeINS_12__value_typeIi4NodeEEPvEEE10deallocateB8ue170006EPS6_m, symObjAddr: 0x1FDD4, symBinAddr: 0x1000233A0, symSize: 0x44 }
  - { offsetInCU: 0x560E1, offset: 0x560E1, size: 0x8, addend: 0x0, symName: __ZNSt3__115__tree_iteratorINS_12__value_typeIi4NodeEEPNS_11__tree_nodeIS3_PvEElEC2B8ue170006ES7_, symObjAddr: 0x1FE18, symBinAddr: 0x1000233E4, symSize: 0x20 }
  - { offsetInCU: 0x5611A, offset: 0x5611A, size: 0x8, addend: 0x0, symName: __ZNSt3__14pairINS_15__tree_iteratorINS_12__value_typeIi4NodeEEPNS_11__tree_nodeIS4_PvEElEEbEC2B8ue170006IS9_RbLS6_0EEEOT_OT0_, symObjAddr: 0x1FE38, symBinAddr: 0x100023404, symSize: 0x38 }
  - { offsetInCU: 0x56178, offset: 0x56178, size: 0x8, addend: 0x0, symName: __ZNSt3__15tupleIJRKiEEC1B8ue170006INS_4_AndELi0EEES2_, symObjAddr: 0x1FE70, symBinAddr: 0x10002343C, symSize: 0x34 }
  - { offsetInCU: 0x561C0, offset: 0x561C0, size: 0x8, addend: 0x0, symName: __ZNSt3__15tupleIJRKiEEC2B8ue170006INS_4_AndELi0EEES2_, symObjAddr: 0x1FEA4, symBinAddr: 0x100023470, symSize: 0x34 }
  - { offsetInCU: 0x56208, offset: 0x56208, size: 0x8, addend: 0x0, symName: __ZNSt3__112__tuple_implINS_15__tuple_indicesIJLm0EEEEJRKiEEC1B8ue170006IJLm0EEJS4_EJEJEJS4_EEENS1_IJXspT_EEEENS_13__tuple_typesIJDpT0_EEENS1_IJXspT1_EEEENS8_IJDpT2_EEEDpOT3_, symObjAddr: 0x1FED8, symBinAddr: 0x1000234A4, symSize: 0x34 }
  - { offsetInCU: 0x5629D, offset: 0x5629D, size: 0x8, addend: 0x0, symName: __ZNSt3__112__tuple_implINS_15__tuple_indicesIJLm0EEEEJRKiEEC2B8ue170006IJLm0EEJS4_EJEJEJS4_EEENS1_IJXspT_EEEENS_13__tuple_typesIJDpT0_EEENS1_IJXspT1_EEEENS8_IJDpT2_EEEDpOT3_, symObjAddr: 0x1FF0C, symBinAddr: 0x1000234D8, symSize: 0x34 }
  - { offsetInCU: 0x56332, offset: 0x56332, size: 0x8, addend: 0x0, symName: __ZNSt3__112__tuple_leafILm0ERKiLb0EEC2B8ue170006IS2_vEEOT_, symObjAddr: 0x1FF40, symBinAddr: 0x10002350C, symSize: 0x20 }
  - { offsetInCU: 0x56375, offset: 0x56375, size: 0x8, addend: 0x0, symName: __ZNSt3__114pointer_traitsIPNS_12__value_typeIi4NodeEEE10pointer_toB8ue170006ERS3_, symObjAddr: 0x1FF60, symBinAddr: 0x10002352C, symSize: 0x14 }
  - { offsetInCU: 0x56398, offset: 0x56398, size: 0x8, addend: 0x0, symName: __ZNKSt3__115__tree_iteratorINS_12__value_typeIi4NodeEEPNS_11__tree_nodeIS3_PvEElE8__get_npB8ue170006Ev, symObjAddr: 0x1FF74, symBinAddr: 0x100023540, symSize: 0x18 }
  - { offsetInCU: 0x563BE, offset: 0x563BE, size: 0x8, addend: 0x0, symName: __ZNSt3__13setIiNS_4lessIiEENS_9allocatorIiEEEaSB8ue170006EOS5_, symObjAddr: 0x1FFC4, symBinAddr: 0x100023590, symSize: 0x34 }
  - { offsetInCU: 0x563F3, offset: 0x563F3, size: 0x8, addend: 0x0, symName: __ZNSt3__16__treeIiNS_4lessIiEENS_9allocatorIiEEEaSEOS5_, symObjAddr: 0x1FFF8, symBinAddr: 0x1000235C4, symSize: 0x34 }
  - { offsetInCU: 0x5642A, offset: 0x5642A, size: 0x8, addend: 0x0, symName: __ZNSt3__16__treeIiNS_4lessIiEENS_9allocatorIiEEE13__move_assignERS5_NS_17integral_constantIbLb1EEE, symObjAddr: 0x2002C, symBinAddr: 0x1000235F8, symSize: 0x138 }
  - { offsetInCU: 0x5646D, offset: 0x5646D, size: 0x8, addend: 0x0, symName: __ZNSt3__16__treeIiNS_4lessIiEENS_9allocatorIiEEE7destroyEPNS_11__tree_nodeIiPvEE, symObjAddr: 0x20164, symBinAddr: 0x100023730, symSize: 0xAC }
  - { offsetInCU: 0x564B9, offset: 0x564B9, size: 0x8, addend: 0x0, symName: __ZNSt3__16__treeIiNS_4lessIiEENS_9allocatorIiEEE19__move_assign_allocB8ue170006ERS5_, symObjAddr: 0x20210, symBinAddr: 0x1000237DC, symSize: 0x2C }
  - { offsetInCU: 0x564EE, offset: 0x564EE, size: 0x8, addend: 0x0, symName: __ZNSt3__16__treeIiNS_4lessIiEENS_9allocatorIiEEE4sizeB8ue170006Ev, symObjAddr: 0x2023C, symBinAddr: 0x100023808, symSize: 0x28 }
  - { offsetInCU: 0x56514, offset: 0x56514, size: 0x8, addend: 0x0, symName: __ZNSt3__16__treeIiNS_4lessIiEENS_9allocatorIiEEE12__node_allocB8ue170006Ev, symObjAddr: 0x20264, symBinAddr: 0x100023830, symSize: 0x28 }
  - { offsetInCU: 0x5653A, offset: 0x5653A, size: 0x8, addend: 0x0, symName: __ZNSt3__116allocator_traitsINS_9allocatorINS_11__tree_nodeIiPvEEEEE7destroyB8ue170006IivvEEvRS5_PT_, symObjAddr: 0x2028C, symBinAddr: 0x100023858, symSize: 0x14 }
  - { offsetInCU: 0x56575, offset: 0x56575, size: 0x8, addend: 0x0, symName: __ZNSt3__122__tree_key_value_typesIiE9__get_ptrB8ue170006ERi, symObjAddr: 0x202A0, symBinAddr: 0x10002386C, symSize: 0x14 }
  - { offsetInCU: 0x56599, offset: 0x56599, size: 0x8, addend: 0x0, symName: __ZNSt3__116allocator_traitsINS_9allocatorINS_11__tree_nodeIiPvEEEEE10deallocateB8ue170006ERS5_PS4_m, symObjAddr: 0x202B4, symBinAddr: 0x100023880, symSize: 0x34 }
  - { offsetInCU: 0x565DB, offset: 0x565DB, size: 0x8, addend: 0x0, symName: __ZNSt3__117__compressed_pairINS_15__tree_end_nodeIPNS_16__tree_node_baseIPvEEEENS_9allocatorINS_11__tree_nodeIiS3_EEEEE6secondB8ue170006Ev, symObjAddr: 0x202E8, symBinAddr: 0x1000238B4, symSize: 0x24 }
  - { offsetInCU: 0x56601, offset: 0x56601, size: 0x8, addend: 0x0, symName: __ZNSt3__122__compressed_pair_elemINS_9allocatorINS_11__tree_nodeIiPvEEEELi1ELb1EE5__getB8ue170006Ev, symObjAddr: 0x2030C, symBinAddr: 0x1000238D8, symSize: 0x14 }
  - { offsetInCU: 0x56627, offset: 0x56627, size: 0x8, addend: 0x0, symName: __ZNSt3__19allocatorINS_11__tree_nodeIiPvEEE10deallocateB8ue170006EPS3_m, symObjAddr: 0x20320, symBinAddr: 0x1000238EC, symSize: 0x40 }
  - { offsetInCU: 0x56669, offset: 0x56669, size: 0x8, addend: 0x0, symName: __ZNSt3__16__treeIiNS_4lessIiEENS_9allocatorIiEEE19__move_assign_allocB8ue170006ERS5_NS_17integral_constantIbLb1EEE, symObjAddr: 0x20360, symBinAddr: 0x10002392C, symSize: 0x38 }
  - { offsetInCU: 0x566AA, offset: 0x566AA, size: 0x8, addend: 0x0, symName: __ZNSt3__117__compressed_pairImNS_4lessIiEEE5firstB8ue170006Ev, symObjAddr: 0x20398, symBinAddr: 0x100023964, symSize: 0x24 }
  - { offsetInCU: 0x566D0, offset: 0x566D0, size: 0x8, addend: 0x0, symName: __ZN4NodeD2Ev, symObjAddr: 0x203BC, symBinAddr: 0x100023988, symSize: 0x2C }
  - { offsetInCU: 0x566FC, offset: 0x566FC, size: 0x8, addend: 0x0, symName: __ZNSt3__13setIiNS_4lessIiEENS_9allocatorIiEEED1B8ue170006Ev, symObjAddr: 0x203E8, symBinAddr: 0x1000239B4, symSize: 0x2C }
  - { offsetInCU: 0x56726, offset: 0x56726, size: 0x8, addend: 0x0, symName: __ZNSt3__13setIiNS_4lessIiEENS_9allocatorIiEEED2B8ue170006Ev, symObjAddr: 0x20414, symBinAddr: 0x1000239E0, symSize: 0x2C }
  - { offsetInCU: 0x56750, offset: 0x56750, size: 0x8, addend: 0x0, symName: __ZNSt3__16__treeIiNS_4lessIiEENS_9allocatorIiEEED1Ev, symObjAddr: 0x20440, symBinAddr: 0x100023A0C, symSize: 0x2C }
  - { offsetInCU: 0x5677C, offset: 0x5677C, size: 0x8, addend: 0x0, symName: __ZNSt3__16__treeIiNS_4lessIiEENS_9allocatorIiEEED2Ev, symObjAddr: 0x2046C, symBinAddr: 0x100023A38, symSize: 0x38 }
  - { offsetInCU: 0x567A8, offset: 0x567A8, size: 0x8, addend: 0x0, symName: __ZNKSt3__16__treeIiNS_4lessIiEENS_9allocatorIiEEE6__rootB8ue170006Ev, symObjAddr: 0x204A4, symBinAddr: 0x100023A70, symSize: 0x28 }
  - { offsetInCU: 0x567CE, offset: 0x567CE, size: 0x8, addend: 0x0, symName: __ZNKSt3__16__treeIiNS_4lessIiEENS_9allocatorIiEEE10__end_nodeB8ue170006Ev, symObjAddr: 0x204CC, symBinAddr: 0x100023A98, symSize: 0x2C }
  - { offsetInCU: 0x567F4, offset: 0x567F4, size: 0x8, addend: 0x0, symName: __ZNKSt3__117__compressed_pairINS_15__tree_end_nodeIPNS_16__tree_node_baseIPvEEEENS_9allocatorINS_11__tree_nodeIiS3_EEEEE5firstB8ue170006Ev, symObjAddr: 0x204F8, symBinAddr: 0x100023AC4, symSize: 0x24 }
  - { offsetInCU: 0x5681A, offset: 0x5681A, size: 0x8, addend: 0x0, symName: __ZNSt3__16vectorI4NodeNS_9allocatorIS1_EEED2B8ue170006Ev, symObjAddr: 0x2051C, symBinAddr: 0x100023AE8, symSize: 0x44 }
  - { offsetInCU: 0x56844, offset: 0x56844, size: 0x8, addend: 0x0, symName: __ZNSt3__16vectorI4NodeNS_9allocatorIS1_EEE16__destroy_vectorC1B8ue170006ERS4_, symObjAddr: 0x20560, symBinAddr: 0x100023B2C, symSize: 0x34 }
  - { offsetInCU: 0x5687D, offset: 0x5687D, size: 0x8, addend: 0x0, symName: __ZNSt3__16vectorI4NodeNS_9allocatorIS1_EEE16__destroy_vectorclB8ue170006Ev, symObjAddr: 0x20594, symBinAddr: 0x100023B60, symSize: 0x90 }
  - { offsetInCU: 0x568A3, offset: 0x568A3, size: 0x8, addend: 0x0, symName: __ZNSt3__16vectorI4NodeNS_9allocatorIS1_EEE16__destroy_vectorC2B8ue170006ERS4_, symObjAddr: 0x20624, symBinAddr: 0x100023BF0, symSize: 0x20 }
  - { offsetInCU: 0x568DC, offset: 0x568DC, size: 0x8, addend: 0x0, symName: __ZNSt3__16vectorI4NodeNS_9allocatorIS1_EEE7__clearB8ue170006Ev, symObjAddr: 0x20644, symBinAddr: 0x100023C10, symSize: 0x28 }
  - { offsetInCU: 0x56902, offset: 0x56902, size: 0x8, addend: 0x0, symName: __ZNKSt3__16vectorI4NodeNS_9allocatorIS1_EEE17__annotate_deleteB8ue170006Ev, symObjAddr: 0x2066C, symBinAddr: 0x100023C38, symSize: 0xB8 }
  - { offsetInCU: 0x56928, offset: 0x56928, size: 0x8, addend: 0x0, symName: __ZNSt3__116allocator_traitsINS_9allocatorI4NodeEEE10deallocateB8ue170006ERS3_PS2_m, symObjAddr: 0x20724, symBinAddr: 0x100023CF0, symSize: 0x34 }
  - { offsetInCU: 0x5696A, offset: 0x5696A, size: 0x8, addend: 0x0, symName: __ZNSt3__16vectorI4NodeNS_9allocatorIS1_EEE7__allocB8ue170006Ev, symObjAddr: 0x20758, symBinAddr: 0x100023D24, symSize: 0x28 }
  - { offsetInCU: 0x56990, offset: 0x56990, size: 0x8, addend: 0x0, symName: __ZNKSt3__16vectorI4NodeNS_9allocatorIS1_EEE8capacityB8ue170006Ev, symObjAddr: 0x20780, symBinAddr: 0x100023D4C, symSize: 0x40 }
  - { offsetInCU: 0x569B6, offset: 0x569B6, size: 0x8, addend: 0x0, symName: __ZNSt3__16vectorI4NodeNS_9allocatorIS1_EEE22__base_destruct_at_endB8ue170006EPS1_, symObjAddr: 0x207C0, symBinAddr: 0x100023D8C, symSize: 0x8C }
  - { offsetInCU: 0x569FA, offset: 0x569FA, size: 0x8, addend: 0x0, symName: __ZNSt3__116allocator_traitsINS_9allocatorI4NodeEEE7destroyB8ue170006IS2_vEEvRS3_PT_, symObjAddr: 0x2084C, symBinAddr: 0x100023E18, symSize: 0x2C }
  - { offsetInCU: 0x56A37, offset: 0x56A37, size: 0x8, addend: 0x0, symName: __ZNSt3__19allocatorI4NodeE7destroyB8ue170006EPS1_, symObjAddr: 0x2088C, symBinAddr: 0x100023E58, symSize: 0x28 }
  - { offsetInCU: 0x56A6B, offset: 0x56A6B, size: 0x8, addend: 0x0, symName: __ZNKSt3__16vectorI4NodeNS_9allocatorIS1_EEE31__annotate_contiguous_containerB8ue170006EPKvS6_S6_S6_, symObjAddr: 0x208B4, symBinAddr: 0x100023E80, symSize: 0x20 }
  - { offsetInCU: 0x56AC1, offset: 0x56AC1, size: 0x8, addend: 0x0, symName: __ZNKSt3__16vectorI4NodeNS_9allocatorIS1_EEE4dataB8ue170006Ev, symObjAddr: 0x208D4, symBinAddr: 0x100023EA0, symSize: 0x28 }
  - { offsetInCU: 0x56AE7, offset: 0x56AE7, size: 0x8, addend: 0x0, symName: __ZNKSt3__16vectorI4NodeNS_9allocatorIS1_EEE4sizeB8ue170006Ev, symObjAddr: 0x208FC, symBinAddr: 0x100023EC8, symSize: 0x28 }
  - { offsetInCU: 0x56B0D, offset: 0x56B0D, size: 0x8, addend: 0x0, symName: __ZNSt3__19allocatorI4NodeE10deallocateB8ue170006EPS1_m, symObjAddr: 0x20924, symBinAddr: 0x100023EF0, symSize: 0x40 }
  - { offsetInCU: 0x56B4F, offset: 0x56B4F, size: 0x8, addend: 0x0, symName: __ZNSt3__117__compressed_pairIP4NodeNS_9allocatorIS1_EEE6secondB8ue170006Ev, symObjAddr: 0x20964, symBinAddr: 0x100023F30, symSize: 0x24 }
  - { offsetInCU: 0x56B75, offset: 0x56B75, size: 0x8, addend: 0x0, symName: __ZNSt3__122__compressed_pair_elemINS_9allocatorI4NodeEELi1ELb1EE5__getB8ue170006Ev, symObjAddr: 0x20988, symBinAddr: 0x100023F54, symSize: 0x14 }
  - { offsetInCU: 0x56B9B, offset: 0x56B9B, size: 0x8, addend: 0x0, symName: __ZNKSt3__16vectorI4NodeNS_9allocatorIS1_EEE9__end_capB8ue170006Ev, symObjAddr: 0x2099C, symBinAddr: 0x100023F68, symSize: 0x28 }
  - { offsetInCU: 0x56BC1, offset: 0x56BC1, size: 0x8, addend: 0x0, symName: __ZNKSt3__117__compressed_pairIP4NodeNS_9allocatorIS1_EEE5firstB8ue170006Ev, symObjAddr: 0x209C4, symBinAddr: 0x100023F90, symSize: 0x24 }
  - { offsetInCU: 0x56BE7, offset: 0x56BE7, size: 0x8, addend: 0x0, symName: __ZNKSt3__122__compressed_pair_elemIP4NodeLi0ELb0EE5__getB8ue170006Ev, symObjAddr: 0x209E8, symBinAddr: 0x100023FB4, symSize: 0x14 }
  - { offsetInCU: 0x56C0D, offset: 0x56C0D, size: 0x8, addend: 0x0, symName: __ZNSt3__13mapIi4NodeNS_4lessIiEENS_9allocatorINS_4pairIKiS1_EEEEED2B8ue170006Ev, symObjAddr: 0x209FC, symBinAddr: 0x100023FC8, symSize: 0x2C }
  - { offsetInCU: 0x56C37, offset: 0x56C37, size: 0x8, addend: 0x0, symName: __ZNSt3__16__treeINS_12__value_typeIi4NodeEENS_19__map_value_compareIiS3_NS_4lessIiEELb1EEENS_9allocatorIS3_EEED1Ev, symObjAddr: 0x20A28, symBinAddr: 0x100023FF4, symSize: 0x2C }
  - { offsetInCU: 0x56C63, offset: 0x56C63, size: 0x8, addend: 0x0, symName: __ZNSt3__16__treeINS_12__value_typeIi4NodeEENS_19__map_value_compareIiS3_NS_4lessIiEELb1EEENS_9allocatorIS3_EEED2Ev, symObjAddr: 0x20A54, symBinAddr: 0x100024020, symSize: 0x38 }
  - { offsetInCU: 0x56C8F, offset: 0x56C8F, size: 0x8, addend: 0x0, symName: __ZNSt3__16__treeINS_12__value_typeIi4NodeEENS_19__map_value_compareIiS3_NS_4lessIiEELb1EEENS_9allocatorIS3_EEE7destroyEPNS_11__tree_nodeIS3_PvEE, symObjAddr: 0x20A8C, symBinAddr: 0x100024058, symSize: 0xA8 }
  - { offsetInCU: 0x56CDB, offset: 0x56CDB, size: 0x8, addend: 0x0, symName: __ZNSt3__16vectorI9PredicateNS_9allocatorIS1_EEEixB8ue170006Em, symObjAddr: 0x20B34, symBinAddr: 0x100024100, symSize: 0x2C }
  - { offsetInCU: 0x56D12, offset: 0x56D12, size: 0x8, addend: 0x0, symName: __ZN4Node7addEdgeEi, symObjAddr: 0x20B60, symBinAddr: 0x10002412C, symSize: 0x38 }
  - { offsetInCU: 0x56D46, offset: 0x56D46, size: 0x8, addend: 0x0, symName: __ZNSt3__13setIiNS_4lessIiEENS_9allocatorIiEEE6insertB8ue170006ERKi, symObjAddr: 0x20B98, symBinAddr: 0x100024164, symSize: 0x4C }
  - { offsetInCU: 0x56D7B, offset: 0x56D7B, size: 0x8, addend: 0x0, symName: __ZNSt3__16__treeIiNS_4lessIiEENS_9allocatorIiEEE15__insert_uniqueB8ue170006ERKi, symObjAddr: 0x20BE4, symBinAddr: 0x1000241B0, symSize: 0x50 }
  - { offsetInCU: 0x56DB0, offset: 0x56DB0, size: 0x8, addend: 0x0, symName: __ZNSt3__14pairINS_21__tree_const_iteratorIiPNS_11__tree_nodeIiPvEElEEbEC1B8ue170006INS_15__tree_iteratorIiS5_lEEbLS3_0EEEONS0_IT_T0_EE, symObjAddr: 0x20C34, symBinAddr: 0x100024200, symSize: 0x34 }
  - { offsetInCU: 0x56E01, offset: 0x56E01, size: 0x8, addend: 0x0, symName: __ZNSt3__16__treeIiNS_4lessIiEENS_9allocatorIiEEE25__emplace_unique_key_argsIiJRKiEEENS_4pairINS_15__tree_iteratorIiPNS_11__tree_nodeIiPvEElEEbEERKT_DpOT0_, symObjAddr: 0x20C68, symBinAddr: 0x100024234, symSize: 0xF0 }
  - { offsetInCU: 0x56EAD, offset: 0x56EAD, size: 0x8, addend: 0x0, symName: __ZNSt3__122__tree_key_value_typesIiE9__get_keyB8ue170006ERKi, symObjAddr: 0x20D58, symBinAddr: 0x100024324, symSize: 0x14 }
  - { offsetInCU: 0x56ED1, offset: 0x56ED1, size: 0x8, addend: 0x0, symName: __ZNSt3__16__treeIiNS_4lessIiEENS_9allocatorIiEEE12__find_equalIiEERPNS_16__tree_node_baseIPvEERPNS_15__tree_end_nodeISA_EERKT_, symObjAddr: 0x20D6C, symBinAddr: 0x100024338, symSize: 0x184 }
  - { offsetInCU: 0x56F3E, offset: 0x56F3E, size: 0x8, addend: 0x0, symName: __ZNSt3__16__treeIiNS_4lessIiEENS_9allocatorIiEEE16__construct_nodeIJRKiEEENS_10unique_ptrINS_11__tree_nodeIiPvEENS_22__tree_node_destructorINS3_ISC_EEEEEEDpOT_, symObjAddr: 0x20EF0, symBinAddr: 0x1000244BC, symSize: 0x108 }
  - { offsetInCU: 0x56F9F, offset: 0x56F9F, size: 0x8, addend: 0x0, symName: __ZNSt3__16__treeIiNS_4lessIiEENS_9allocatorIiEEE16__insert_node_atEPNS_15__tree_end_nodeIPNS_16__tree_node_baseIPvEEEERSA_SA_, symObjAddr: 0x20FF8, symBinAddr: 0x1000245C4, symSize: 0xCC }
  - { offsetInCU: 0x56FF4, offset: 0x56FF4, size: 0x8, addend: 0x0, symName: __ZNKSt3__110unique_ptrINS_11__tree_nodeIiPvEENS_22__tree_node_destructorINS_9allocatorIS3_EEEEE3getB8ue170006Ev, symObjAddr: 0x210C4, symBinAddr: 0x100024690, symSize: 0x28 }
  - { offsetInCU: 0x5701A, offset: 0x5701A, size: 0x8, addend: 0x0, symName: __ZNSt3__110unique_ptrINS_11__tree_nodeIiPvEENS_22__tree_node_destructorINS_9allocatorIS3_EEEEE7releaseB8ue170006Ev, symObjAddr: 0x210EC, symBinAddr: 0x1000246B8, symSize: 0x44 }
  - { offsetInCU: 0x5704F, offset: 0x5704F, size: 0x8, addend: 0x0, symName: __ZNSt3__110unique_ptrINS_11__tree_nodeIiPvEENS_22__tree_node_destructorINS_9allocatorIS3_EEEEED1B8ue170006Ev, symObjAddr: 0x21130, symBinAddr: 0x1000246FC, symSize: 0x2C }
  - { offsetInCU: 0x57079, offset: 0x57079, size: 0x8, addend: 0x0, symName: __ZNSt3__115__tree_iteratorIiPNS_11__tree_nodeIiPvEElEC1B8ue170006ES4_, symObjAddr: 0x2115C, symBinAddr: 0x100024728, symSize: 0x34 }
  - { offsetInCU: 0x570B8, offset: 0x570B8, size: 0x8, addend: 0x0, symName: __ZNSt3__14pairINS_15__tree_iteratorIiPNS_11__tree_nodeIiPvEElEEbEC1B8ue170006IS6_RbLS3_0EEEOT_OT0_, symObjAddr: 0x21190, symBinAddr: 0x10002475C, symSize: 0x3C }
  - { offsetInCU: 0x57116, offset: 0x57116, size: 0x8, addend: 0x0, symName: __ZNKSt3__16__treeIiNS_4lessIiEENS_9allocatorIiEEE10__root_ptrB8ue170006Ev, symObjAddr: 0x211CC, symBinAddr: 0x100024798, symSize: 0x24 }
  - { offsetInCU: 0x5713C, offset: 0x5713C, size: 0x8, addend: 0x0, symName: __ZNSt3__16__treeIiNS_4lessIiEENS_9allocatorIiEEE10value_compB8ue170006Ev, symObjAddr: 0x211F0, symBinAddr: 0x1000247BC, symSize: 0x28 }
  - { offsetInCU: 0x57162, offset: 0x57162, size: 0x8, addend: 0x0, symName: __ZNSt3__117__compressed_pairImNS_4lessIiEEE6secondB8ue170006Ev, symObjAddr: 0x21218, symBinAddr: 0x1000247E4, symSize: 0x24 }
  - { offsetInCU: 0x57188, offset: 0x57188, size: 0x8, addend: 0x0, symName: __ZNSt3__122__compressed_pair_elemINS_4lessIiEELi1ELb1EE5__getB8ue170006Ev, symObjAddr: 0x2123C, symBinAddr: 0x100024808, symSize: 0x14 }
  - { offsetInCU: 0x571AE, offset: 0x571AE, size: 0x8, addend: 0x0, symName: __ZNSt3__116allocator_traitsINS_9allocatorINS_11__tree_nodeIiPvEEEEE8allocateB8ue170006ERS5_m, symObjAddr: 0x21250, symBinAddr: 0x10002481C, symSize: 0x2C }
  - { offsetInCU: 0x571E1, offset: 0x571E1, size: 0x8, addend: 0x0, symName: __ZNSt3__122__tree_node_destructorINS_9allocatorINS_11__tree_nodeIiPvEEEEEC1B8ue170006ERS5_b, symObjAddr: 0x2127C, symBinAddr: 0x100024848, symSize: 0x48 }
  - { offsetInCU: 0x5722F, offset: 0x5722F, size: 0x8, addend: 0x0, symName: __ZNSt3__110unique_ptrINS_11__tree_nodeIiPvEENS_22__tree_node_destructorINS_9allocatorIS3_EEEEEC1B8ue170006ILb1EvEEPS3_NS_16__dependent_typeINS_27__unique_ptr_deleter_sfinaeIS7_EEXT_EE20__good_rval_ref_typeE, symObjAddr: 0x212C4, symBinAddr: 0x100024890, symSize: 0x3C }
  - { offsetInCU: 0x57280, offset: 0x57280, size: 0x8, addend: 0x0, symName: __ZNSt3__116allocator_traitsINS_9allocatorINS_11__tree_nodeIiPvEEEEE9constructB8ue170006IiJRKiEvEEvRS5_PT_DpOT0_, symObjAddr: 0x21300, symBinAddr: 0x1000248CC, symSize: 0x34 }
  - { offsetInCU: 0x572D7, offset: 0x572D7, size: 0x8, addend: 0x0, symName: __ZNKSt3__110unique_ptrINS_11__tree_nodeIiPvEENS_22__tree_node_destructorINS_9allocatorIS3_EEEEEptB8ue170006Ev, symObjAddr: 0x21334, symBinAddr: 0x100024900, symSize: 0x28 }
  - { offsetInCU: 0x572FD, offset: 0x572FD, size: 0x8, addend: 0x0, symName: __ZNSt3__110unique_ptrINS_11__tree_nodeIiPvEENS_22__tree_node_destructorINS_9allocatorIS3_EEEEE11get_deleterB8ue170006Ev, symObjAddr: 0x2135C, symBinAddr: 0x100024928, symSize: 0x24 }
  - { offsetInCU: 0x57323, offset: 0x57323, size: 0x8, addend: 0x0, symName: __ZNSt3__19allocatorINS_11__tree_nodeIiPvEEE8allocateB8ue170006Em, symObjAddr: 0x21380, symBinAddr: 0x10002494C, symSize: 0x58 }
  - { offsetInCU: 0x57362, offset: 0x57362, size: 0x8, addend: 0x0, symName: __ZNSt3__116allocator_traitsINS_9allocatorINS_11__tree_nodeIiPvEEEEE8max_sizeB8ue170006IS5_vEEmRKS5_, symObjAddr: 0x213D8, symBinAddr: 0x1000249A4, symSize: 0x24 }
  - { offsetInCU: 0x57390, offset: 0x57390, size: 0x8, addend: 0x0, symName: __ZNKSt3__19allocatorINS_11__tree_nodeIiPvEEE8max_sizeB8ue170006Ev, symObjAddr: 0x213FC, symBinAddr: 0x1000249C8, symSize: 0x14 }
  - { offsetInCU: 0x573B6, offset: 0x573B6, size: 0x8, addend: 0x0, symName: __ZNSt3__122__tree_node_destructorINS_9allocatorINS_11__tree_nodeIiPvEEEEEC2B8ue170006ERS5_b, symObjAddr: 0x21410, symBinAddr: 0x1000249DC, symSize: 0x38 }
  - { offsetInCU: 0x573FE, offset: 0x573FE, size: 0x8, addend: 0x0, symName: __ZNSt3__110unique_ptrINS_11__tree_nodeIiPvEENS_22__tree_node_destructorINS_9allocatorIS3_EEEEEC2B8ue170006ILb1EvEEPS3_NS_16__dependent_typeINS_27__unique_ptr_deleter_sfinaeIS7_EEXT_EE20__good_rval_ref_typeE, symObjAddr: 0x21448, symBinAddr: 0x100024A14, symSize: 0x48 }
  - { offsetInCU: 0x5744F, offset: 0x5744F, size: 0x8, addend: 0x0, symName: __ZNSt3__117__compressed_pairIPNS_11__tree_nodeIiPvEENS_22__tree_node_destructorINS_9allocatorIS3_EEEEEC1B8ue170006IRS4_S8_EEOT_OT0_, symObjAddr: 0x21490, symBinAddr: 0x100024A5C, symSize: 0x3C }
  - { offsetInCU: 0x574A7, offset: 0x574A7, size: 0x8, addend: 0x0, symName: __ZNSt3__117__compressed_pairIPNS_11__tree_nodeIiPvEENS_22__tree_node_destructorINS_9allocatorIS3_EEEEEC2B8ue170006IRS4_S8_EEOT_OT0_, symObjAddr: 0x214CC, symBinAddr: 0x100024A98, symSize: 0x48 }
  - { offsetInCU: 0x574FF, offset: 0x574FF, size: 0x8, addend: 0x0, symName: __ZNSt3__122__compressed_pair_elemIPNS_11__tree_nodeIiPvEELi0ELb0EEC2B8ue170006IRS4_vEEOT_, symObjAddr: 0x21514, symBinAddr: 0x100024AE0, symSize: 0x24 }
  - { offsetInCU: 0x57541, offset: 0x57541, size: 0x8, addend: 0x0, symName: __ZNSt3__122__compressed_pair_elemINS_22__tree_node_destructorINS_9allocatorINS_11__tree_nodeIiPvEEEEEELi1ELb0EEC2B8ue170006IS7_vEEOT_, symObjAddr: 0x21538, symBinAddr: 0x100024B04, symSize: 0x24 }
  - { offsetInCU: 0x57583, offset: 0x57583, size: 0x8, addend: 0x0, symName: __ZNSt3__19allocatorINS_11__tree_nodeIiPvEEE9constructB8ue170006IiJRKiEEEvPT_DpOT0_, symObjAddr: 0x2155C, symBinAddr: 0x100024B28, symSize: 0x28 }
  - { offsetInCU: 0x575D9, offset: 0x575D9, size: 0x8, addend: 0x0, symName: __ZNKSt3__117__compressed_pairIPNS_11__tree_nodeIiPvEENS_22__tree_node_destructorINS_9allocatorIS3_EEEEE5firstB8ue170006Ev, symObjAddr: 0x21584, symBinAddr: 0x100024B50, symSize: 0x24 }
  - { offsetInCU: 0x575FF, offset: 0x575FF, size: 0x8, addend: 0x0, symName: __ZNKSt3__122__compressed_pair_elemIPNS_11__tree_nodeIiPvEELi0ELb0EE5__getB8ue170006Ev, symObjAddr: 0x215A8, symBinAddr: 0x100024B74, symSize: 0x14 }
  - { offsetInCU: 0x57625, offset: 0x57625, size: 0x8, addend: 0x0, symName: __ZNSt3__117__compressed_pairIPNS_11__tree_nodeIiPvEENS_22__tree_node_destructorINS_9allocatorIS3_EEEEE6secondB8ue170006Ev, symObjAddr: 0x215BC, symBinAddr: 0x100024B88, symSize: 0x28 }
  - { offsetInCU: 0x5764B, offset: 0x5764B, size: 0x8, addend: 0x0, symName: __ZNSt3__122__compressed_pair_elemINS_22__tree_node_destructorINS_9allocatorINS_11__tree_nodeIiPvEEEEEELi1ELb0EE5__getB8ue170006Ev, symObjAddr: 0x215E4, symBinAddr: 0x100024BB0, symSize: 0x14 }
  - { offsetInCU: 0x57671, offset: 0x57671, size: 0x8, addend: 0x0, symName: __ZNSt3__117__compressed_pairIPNS_11__tree_nodeIiPvEENS_22__tree_node_destructorINS_9allocatorIS3_EEEEE5firstB8ue170006Ev, symObjAddr: 0x215F8, symBinAddr: 0x100024BC4, symSize: 0x24 }
  - { offsetInCU: 0x57697, offset: 0x57697, size: 0x8, addend: 0x0, symName: __ZNSt3__122__compressed_pair_elemIPNS_11__tree_nodeIiPvEELi0ELb0EE5__getB8ue170006Ev, symObjAddr: 0x2161C, symBinAddr: 0x100024BE8, symSize: 0x14 }
  - { offsetInCU: 0x576BD, offset: 0x576BD, size: 0x8, addend: 0x0, symName: __ZNSt3__110unique_ptrINS_11__tree_nodeIiPvEENS_22__tree_node_destructorINS_9allocatorIS3_EEEEED2B8ue170006Ev, symObjAddr: 0x21630, symBinAddr: 0x100024BFC, symSize: 0x30 }
  - { offsetInCU: 0x576E7, offset: 0x576E7, size: 0x8, addend: 0x0, symName: __ZNSt3__110unique_ptrINS_11__tree_nodeIiPvEENS_22__tree_node_destructorINS_9allocatorIS3_EEEEE5resetB8ue170006EPS3_, symObjAddr: 0x21660, symBinAddr: 0x100024C2C, symSize: 0x78 }
  - { offsetInCU: 0x5772B, offset: 0x5772B, size: 0x8, addend: 0x0, symName: __ZNSt3__122__tree_node_destructorINS_9allocatorINS_11__tree_nodeIiPvEEEEEclB8ue170006EPS4_, symObjAddr: 0x216D8, symBinAddr: 0x100024CA4, symSize: 0x88 }
  - { offsetInCU: 0x57760, offset: 0x57760, size: 0x8, addend: 0x0, symName: __ZNSt3__115__tree_iteratorIiPNS_11__tree_nodeIiPvEElEC2B8ue170006ES4_, symObjAddr: 0x21760, symBinAddr: 0x100024D2C, symSize: 0x20 }
  - { offsetInCU: 0x57799, offset: 0x57799, size: 0x8, addend: 0x0, symName: __ZNSt3__14pairINS_15__tree_iteratorIiPNS_11__tree_nodeIiPvEElEEbEC2B8ue170006IS6_RbLS3_0EEEOT_OT0_, symObjAddr: 0x21780, symBinAddr: 0x100024D4C, symSize: 0x38 }
  - { offsetInCU: 0x577F7, offset: 0x577F7, size: 0x8, addend: 0x0, symName: __ZNSt3__14pairINS_21__tree_const_iteratorIiPNS_11__tree_nodeIiPvEElEEbEC2B8ue170006INS_15__tree_iteratorIiS5_lEEbLS3_0EEEONS0_IT_T0_EE, symObjAddr: 0x217B8, symBinAddr: 0x100024D84, symSize: 0x50 }
  - { offsetInCU: 0x57848, offset: 0x57848, size: 0x8, addend: 0x0, symName: __ZNSt3__121__tree_const_iteratorIiPNS_11__tree_nodeIiPvEElEC1B8ue170006ENS_15__tree_iteratorIiS4_lEE, symObjAddr: 0x21808, symBinAddr: 0x100024DD4, symSize: 0x34 }
  - { offsetInCU: 0x57881, offset: 0x57881, size: 0x8, addend: 0x0, symName: __ZNSt3__121__tree_const_iteratorIiPNS_11__tree_nodeIiPvEElEC2B8ue170006ENS_15__tree_iteratorIiS4_lEE, symObjAddr: 0x2183C, symBinAddr: 0x100024E08, symSize: 0x20 }
  - { offsetInCU: 0x578C0, offset: 0x578C0, size: 0x8, addend: 0x0, symName: __ZNSt3__14pairI5GraphS1_EC1B8ue170006IRS1_S4_LPv0EEEOT_OT0_, symObjAddr: 0x2185C, symBinAddr: 0x100024E28, symSize: 0x3C }
  - { offsetInCU: 0x5791E, offset: 0x5791E, size: 0x8, addend: 0x0, symName: __ZNSt3__14pairI5GraphS1_EC2B8ue170006IRS1_S4_LPv0EEEOT_OT0_, symObjAddr: 0x21898, symBinAddr: 0x100024E64, symSize: 0x70 }
  - { offsetInCU: 0x5797C, offset: 0x5797C, size: 0x8, addend: 0x0, symName: __ZN5GraphC2ERKS_, symObjAddr: 0x21908, symBinAddr: 0x100024ED4, symSize: 0xA8 }
  - { offsetInCU: 0x579B1, offset: 0x579B1, size: 0x8, addend: 0x0, symName: __ZNSt3__13mapIi4NodeNS_4lessIiEENS_9allocatorINS_4pairIKiS1_EEEEEC1B8ue170006ERKS9_, symObjAddr: 0x219B0, symBinAddr: 0x100024F7C, symSize: 0x34 }
  - { offsetInCU: 0x579EA, offset: 0x579EA, size: 0x8, addend: 0x0, symName: __ZNSt3__16vectorI4NodeNS_9allocatorIS1_EEEC1ERKS4_, symObjAddr: 0x219E4, symBinAddr: 0x100024FB0, symSize: 0x34 }
  - { offsetInCU: 0x57A25, offset: 0x57A25, size: 0x8, addend: 0x0, symName: __ZNSt3__13mapIi4NodeNS_4lessIiEENS_9allocatorINS_4pairIKiS1_EEEEEC2B8ue170006ERKS9_, symObjAddr: 0x21A18, symBinAddr: 0x100024FE4, symSize: 0x88 }
  - { offsetInCU: 0x57A5E, offset: 0x57A5E, size: 0x8, addend: 0x0, symName: __ZNSt3__16__treeINS_12__value_typeIi4NodeEENS_19__map_value_compareIiS3_NS_4lessIiEELb1EEENS_9allocatorIS3_EEEC1ERKSA_, symObjAddr: 0x21AA0, symBinAddr: 0x10002506C, symSize: 0x34 }
  - { offsetInCU: 0x57A99, offset: 0x57A99, size: 0x8, addend: 0x0, symName: __ZNSt3__13mapIi4NodeNS_4lessIiEENS_9allocatorINS_4pairIKiS1_EEEEE6insertB8ue170006INS_20__map_const_iteratorINS_21__tree_const_iteratorINS_12__value_typeIiS1_EEPNS_11__tree_nodeISE_PvEElEEEEEEvT_SL_, symObjAddr: 0x21AD4, symBinAddr: 0x1000250A0, symSize: 0x8C }
  - { offsetInCU: 0x57B03, offset: 0x57B03, size: 0x8, addend: 0x0, symName: __ZNKSt3__13mapIi4NodeNS_4lessIiEENS_9allocatorINS_4pairIKiS1_EEEEE5beginB8ue170006Ev, symObjAddr: 0x21B60, symBinAddr: 0x10002512C, symSize: 0x38 }
  - { offsetInCU: 0x57B29, offset: 0x57B29, size: 0x8, addend: 0x0, symName: __ZNKSt3__13mapIi4NodeNS_4lessIiEENS_9allocatorINS_4pairIKiS1_EEEEE3endB8ue170006Ev, symObjAddr: 0x21B98, symBinAddr: 0x100025164, symSize: 0x38 }
  - { offsetInCU: 0x57B4F, offset: 0x57B4F, size: 0x8, addend: 0x0, symName: __ZNSt3__16__treeINS_12__value_typeIi4NodeEENS_19__map_value_compareIiS3_NS_4lessIiEELb1EEENS_9allocatorIS3_EEEC2ERKSA_, symObjAddr: 0x21BD0, symBinAddr: 0x10002519C, symSize: 0x9C }
  - { offsetInCU: 0x57B8A, offset: 0x57B8A, size: 0x8, addend: 0x0, symName: __ZNSt3__116allocator_traitsINS_9allocatorINS_11__tree_nodeINS_12__value_typeIi4NodeEEPvEEEEE37select_on_container_copy_constructionB8ue170006IS8_vvEES8_RKS8_, symObjAddr: 0x21C6C, symBinAddr: 0x100025238, symSize: 0x10 }
  - { offsetInCU: 0x57BB9, offset: 0x57BB9, size: 0x8, addend: 0x0, symName: __ZNKSt3__16__treeINS_12__value_typeIi4NodeEENS_19__map_value_compareIiS3_NS_4lessIiEELb1EEENS_9allocatorIS3_EEE12__node_allocB8ue170006Ev, symObjAddr: 0x21C7C, symBinAddr: 0x100025248, symSize: 0x28 }
  - { offsetInCU: 0x57BE5, offset: 0x57BE5, size: 0x8, addend: 0x0, symName: __ZNSt3__117__compressed_pairINS_15__tree_end_nodeIPNS_16__tree_node_baseIPvEEEENS_9allocatorINS_11__tree_nodeINS_12__value_typeIi4NodeEES3_EEEEEC1B8ue170006INS_18__default_init_tagESD_EEOT_OT0_, symObjAddr: 0x21CA4, symBinAddr: 0x100025270, symSize: 0x3C }
  - { offsetInCU: 0x57C3D, offset: 0x57C3D, size: 0x8, addend: 0x0, symName: __ZNKSt3__16__treeINS_12__value_typeIi4NodeEENS_19__map_value_compareIiS3_NS_4lessIiEELb1EEENS_9allocatorIS3_EEE10value_compB8ue170006Ev, symObjAddr: 0x21CE0, symBinAddr: 0x1000252AC, symSize: 0x28 }
  - { offsetInCU: 0x57C63, offset: 0x57C63, size: 0x8, addend: 0x0, symName: __ZNKSt3__117__compressed_pairINS_15__tree_end_nodeIPNS_16__tree_node_baseIPvEEEENS_9allocatorINS_11__tree_nodeINS_12__value_typeIi4NodeEES3_EEEEE6secondB8ue170006Ev, symObjAddr: 0x21D08, symBinAddr: 0x1000252D4, symSize: 0x24 }
  - { offsetInCU: 0x57C89, offset: 0x57C89, size: 0x8, addend: 0x0, symName: __ZNKSt3__122__compressed_pair_elemINS_9allocatorINS_11__tree_nodeINS_12__value_typeIi4NodeEEPvEEEELi1ELb1EE5__getB8ue170006Ev, symObjAddr: 0x21D2C, symBinAddr: 0x1000252F8, symSize: 0x14 }
  - { offsetInCU: 0x57CAF, offset: 0x57CAF, size: 0x8, addend: 0x0, symName: __ZNSt3__117__compressed_pairINS_15__tree_end_nodeIPNS_16__tree_node_baseIPvEEEENS_9allocatorINS_11__tree_nodeINS_12__value_typeIi4NodeEES3_EEEEEC2B8ue170006INS_18__default_init_tagESD_EEOT_OT0_, symObjAddr: 0x21D40, symBinAddr: 0x10002530C, symSize: 0x40 }
  - { offsetInCU: 0x57D07, offset: 0x57D07, size: 0x8, addend: 0x0, symName: __ZNSt3__122__compressed_pair_elemINS_9allocatorINS_11__tree_nodeINS_12__value_typeIi4NodeEEPvEEEELi1ELb1EEC2B8ue170006IS8_vEEOT_, symObjAddr: 0x21D80, symBinAddr: 0x10002534C, symSize: 0x18 }
  - { offsetInCU: 0x57D49, offset: 0x57D49, size: 0x8, addend: 0x0, symName: __ZNKSt3__117__compressed_pairImNS_19__map_value_compareIiNS_12__value_typeIi4NodeEENS_4lessIiEELb1EEEE6secondB8ue170006Ev, symObjAddr: 0x21D98, symBinAddr: 0x100025364, symSize: 0x24 }
  - { offsetInCU: 0x57D6F, offset: 0x57D6F, size: 0x8, addend: 0x0, symName: __ZNKSt3__122__compressed_pair_elemINS_19__map_value_compareIiNS_12__value_typeIi4NodeEENS_4lessIiEELb1EEELi1ELb1EE5__getB8ue170006Ev, symObjAddr: 0x21DBC, symBinAddr: 0x100025388, symSize: 0x14 }
  - { offsetInCU: 0x57D95, offset: 0x57D95, size: 0x8, addend: 0x0, symName: __ZNKSt3__13mapIi4NodeNS_4lessIiEENS_9allocatorINS_4pairIKiS1_EEEEE4cendB8ue170006Ev, symObjAddr: 0x21DD0, symBinAddr: 0x10002539C, symSize: 0x2C }
  - { offsetInCU: 0x57DBB, offset: 0x57DBB, size: 0x8, addend: 0x0, symName: __ZNSt3__13mapIi4NodeNS_4lessIiEENS_9allocatorINS_4pairIKiS1_EEEEE6insertB8ue170006ENS_20__map_const_iteratorINS_21__tree_const_iteratorINS_12__value_typeIiS1_EEPNS_11__tree_nodeISD_PvEElEEEERKS7_, symObjAddr: 0x21E2C, symBinAddr: 0x1000253F8, symSize: 0x50 }
  - { offsetInCU: 0x57DFF, offset: 0x57DFF, size: 0x8, addend: 0x0, symName: __ZNSt3__120__map_const_iteratorINS_21__tree_const_iteratorINS_12__value_typeIi4NodeEEPNS_11__tree_nodeIS4_PvEElEEEC1B8ue170006ES9_, symObjAddr: 0x21E7C, symBinAddr: 0x100025448, symSize: 0x34 }
  - { offsetInCU: 0x57E38, offset: 0x57E38, size: 0x8, addend: 0x0, symName: __ZNKSt3__120__map_const_iteratorINS_21__tree_const_iteratorINS_12__value_typeIi4NodeEEPNS_11__tree_nodeIS4_PvEElEEEdeB8ue170006Ev, symObjAddr: 0x21EB0, symBinAddr: 0x10002547C, symSize: 0x28 }
  - { offsetInCU: 0x57E5E, offset: 0x57E5E, size: 0x8, addend: 0x0, symName: __ZNSt3__120__map_const_iteratorINS_21__tree_const_iteratorINS_12__value_typeIi4NodeEEPNS_11__tree_nodeIS4_PvEElEEEppB8ue170006Ev, symObjAddr: 0x21ED8, symBinAddr: 0x1000254A4, symSize: 0x2C }
  - { offsetInCU: 0x57E84, offset: 0x57E84, size: 0x8, addend: 0x0, symName: __ZNSt3__16__treeINS_12__value_typeIi4NodeEENS_19__map_value_compareIiS3_NS_4lessIiEELb1EEENS_9allocatorIS3_EEE15__insert_uniqueB8ue170006ENS_21__tree_const_iteratorIS3_PNS_11__tree_nodeIS3_PvEElEERKNS_4pairIKiS2_EE, symObjAddr: 0x21F68, symBinAddr: 0x100025534, symSize: 0x64 }
  - { offsetInCU: 0x57EC8, offset: 0x57EC8, size: 0x8, addend: 0x0, symName: __ZNSt3__114__map_iteratorINS_15__tree_iteratorINS_12__value_typeIi4NodeEEPNS_11__tree_nodeIS4_PvEElEEEC1B8ue170006ES9_, symObjAddr: 0x21FCC, symBinAddr: 0x100025598, symSize: 0x34 }
  - { offsetInCU: 0x57F01, offset: 0x57F01, size: 0x8, addend: 0x0, symName: __ZNSt3__16__treeINS_12__value_typeIi4NodeEENS_19__map_value_compareIiS3_NS_4lessIiEELb1EEENS_9allocatorIS3_EEE30__emplace_hint_unique_key_argsIiJRKNS_4pairIKiS2_EEEEENSC_INS_15__tree_iteratorIS3_PNS_11__tree_nodeIS3_PvEElEEbEENS_21__tree_const_iteratorIS3_SL_lEERKT_DpOT0_, symObjAddr: 0x22000, symBinAddr: 0x1000255CC, symSize: 0x104 }
  - { offsetInCU: 0x57FCD, offset: 0x57FCD, size: 0x8, addend: 0x0, symName: __ZNSt3__122__tree_key_value_typesINS_12__value_typeIi4NodeEEE9__get_keyB8ue170006IKNS_4pairIKiS2_EEEENS_9enable_ifIXsr17__is_same_uncvrefIT_S8_EE5valueERS7_E4typeERSB_, symObjAddr: 0x22104, symBinAddr: 0x1000256D0, symSize: 0x14 }
  - { offsetInCU: 0x57FFA, offset: 0x57FFA, size: 0x8, addend: 0x0, symName: __ZNSt3__16__treeINS_12__value_typeIi4NodeEENS_19__map_value_compareIiS3_NS_4lessIiEELb1EEENS_9allocatorIS3_EEE12__find_equalIiEERPNS_16__tree_node_baseIPvEENS_21__tree_const_iteratorIS3_PNS_11__tree_nodeIS3_SD_EElEERPNS_15__tree_end_nodeISF_EESG_RKT_, symObjAddr: 0x22118, symBinAddr: 0x1000256E4, symSize: 0x304 }
  - { offsetInCU: 0x580A3, offset: 0x580A3, size: 0x8, addend: 0x0, symName: __ZNSt3__16__treeINS_12__value_typeIi4NodeEENS_19__map_value_compareIiS3_NS_4lessIiEELb1EEENS_9allocatorIS3_EEE16__construct_nodeIJRKNS_4pairIKiS2_EEEEENS_10unique_ptrINS_11__tree_nodeIS3_PvEENS_22__tree_node_destructorINS8_ISK_EEEEEEDpOT_, symObjAddr: 0x2241C, symBinAddr: 0x1000259E8, symSize: 0x110 }
  - { offsetInCU: 0x58104, offset: 0x58104, size: 0x8, addend: 0x0, symName: __ZNSt3__16__treeINS_12__value_typeIi4NodeEENS_19__map_value_compareIiS3_NS_4lessIiEELb1EEENS_9allocatorIS3_EEE3endB8ue170006Ev, symObjAddr: 0x2252C, symBinAddr: 0x100025AF8, symSize: 0x34 }
  - { offsetInCU: 0x5812A, offset: 0x5812A, size: 0x8, addend: 0x0, symName: __ZNSt3__121__tree_const_iteratorINS_12__value_typeIi4NodeEEPNS_11__tree_nodeIS3_PvEElEC1B8ue170006ENS_15__tree_iteratorIS3_S7_lEE, symObjAddr: 0x22560, symBinAddr: 0x100025B2C, symSize: 0x34 }
  - { offsetInCU: 0x58163, offset: 0x58163, size: 0x8, addend: 0x0, symName: __ZNKSt3__121__tree_const_iteratorINS_12__value_typeIi4NodeEEPNS_11__tree_nodeIS3_PvEElEdeB8ue170006Ev, symObjAddr: 0x22594, symBinAddr: 0x100025B60, symSize: 0x28 }
  - { offsetInCU: 0x58189, offset: 0x58189, size: 0x8, addend: 0x0, symName: __ZNSt3__16__treeINS_12__value_typeIi4NodeEENS_19__map_value_compareIiS3_NS_4lessIiEELb1EEENS_9allocatorIS3_EEE5beginB8ue170006Ev, symObjAddr: 0x225BC, symBinAddr: 0x100025B88, symSize: 0x34 }
  - { offsetInCU: 0x581AF, offset: 0x581AF, size: 0x8, addend: 0x0, symName: __ZNSt3__121__tree_const_iteratorINS_12__value_typeIi4NodeEEPNS_11__tree_nodeIS3_PvEElEmmB8ue170006Ev, symObjAddr: 0x225F0, symBinAddr: 0x100025BBC, symSize: 0x38 }
  - { offsetInCU: 0x581D5, offset: 0x581D5, size: 0x8, addend: 0x0, symName: __ZNKSt3__121__tree_const_iteratorINS_12__value_typeIi4NodeEEPNS_11__tree_nodeIS3_PvEElE8__get_npB8ue170006Ev, symObjAddr: 0x22664, symBinAddr: 0x100025C30, symSize: 0x18 }
  - { offsetInCU: 0x581FB, offset: 0x581FB, size: 0x8, addend: 0x0, symName: __ZNSt3__115__tree_iteratorINS_12__value_typeIi4NodeEEPNS_11__tree_nodeIS3_PvEElEC1B8ue170006EPNS_15__tree_end_nodeIPNS_16__tree_node_baseIS5_EEEE, symObjAddr: 0x2267C, symBinAddr: 0x100025C48, symSize: 0x34 }
  - { offsetInCU: 0x58234, offset: 0x58234, size: 0x8, addend: 0x0, symName: __ZNSt3__115__tree_iteratorINS_12__value_typeIi4NodeEEPNS_11__tree_nodeIS3_PvEElEC2B8ue170006EPNS_15__tree_end_nodeIPNS_16__tree_node_baseIS5_EEEE, symObjAddr: 0x226B0, symBinAddr: 0x100025C7C, symSize: 0x20 }
  - { offsetInCU: 0x5826D, offset: 0x5826D, size: 0x8, addend: 0x0, symName: __ZNSt3__121__tree_const_iteratorINS_12__value_typeIi4NodeEEPNS_11__tree_nodeIS3_PvEElEC2B8ue170006ENS_15__tree_iteratorIS3_S7_lEE, symObjAddr: 0x226D0, symBinAddr: 0x100025C9C, symSize: 0x20 }
  - { offsetInCU: 0x582A6, offset: 0x582A6, size: 0x8, addend: 0x0, symName: __ZNSt3__121__tree_const_iteratorINS_12__value_typeIi4NodeEEPNS_11__tree_nodeIS3_PvEElEppB8ue170006Ev, symObjAddr: 0x227CC, symBinAddr: 0x100025D98, symSize: 0x38 }
  - { offsetInCU: 0x582CC, offset: 0x582CC, size: 0x8, addend: 0x0, symName: __ZNSt3__116allocator_traitsINS_9allocatorINS_11__tree_nodeINS_12__value_typeIi4NodeEEPvEEEEE9constructB8ue170006INS_4pairIKiS4_EEJRKSD_EvEEvRS8_PT_DpOT0_, symObjAddr: 0x22804, symBinAddr: 0x100025DD0, symSize: 0x34 }
  - { offsetInCU: 0x58323, offset: 0x58323, size: 0x8, addend: 0x0, symName: __ZNSt3__19allocatorINS_11__tree_nodeINS_12__value_typeIi4NodeEEPvEEE9constructB8ue170006INS_4pairIKiS3_EEJRKSB_EEEvPT_DpOT0_, symObjAddr: 0x22838, symBinAddr: 0x100025E04, symSize: 0x30 }
  - { offsetInCU: 0x58379, offset: 0x58379, size: 0x8, addend: 0x0, symName: __ZNSt3__14pairIKi4NodeEC1B8ue170006ERKS3_, symObjAddr: 0x22868, symBinAddr: 0x100025E34, symSize: 0x34 }
  - { offsetInCU: 0x583AE, offset: 0x583AE, size: 0x8, addend: 0x0, symName: __ZNSt3__14pairIKi4NodeEC2B8ue170006ERKS3_, symObjAddr: 0x2289C, symBinAddr: 0x100025E68, symSize: 0x48 }
  - { offsetInCU: 0x583E3, offset: 0x583E3, size: 0x8, addend: 0x0, symName: __ZN4NodeC1ERKS_, symObjAddr: 0x228E4, symBinAddr: 0x100025EB0, symSize: 0x34 }
  - { offsetInCU: 0x58418, offset: 0x58418, size: 0x8, addend: 0x0, symName: __ZN4NodeC2ERKS_, symObjAddr: 0x22918, symBinAddr: 0x100025EE4, symSize: 0x44 }
  - { offsetInCU: 0x5844D, offset: 0x5844D, size: 0x8, addend: 0x0, symName: __ZNSt3__13setIiNS_4lessIiEENS_9allocatorIiEEEC1B8ue170006ERKS5_, symObjAddr: 0x2295C, symBinAddr: 0x100025F28, symSize: 0x34 }
  - { offsetInCU: 0x58486, offset: 0x58486, size: 0x8, addend: 0x0, symName: __ZNSt3__13setIiNS_4lessIiEENS_9allocatorIiEEEC2B8ue170006ERKS5_, symObjAddr: 0x22990, symBinAddr: 0x100025F5C, symSize: 0x88 }
  - { offsetInCU: 0x584BF, offset: 0x584BF, size: 0x8, addend: 0x0, symName: __ZNSt3__16__treeIiNS_4lessIiEENS_9allocatorIiEEEC1ERKS5_, symObjAddr: 0x22A18, symBinAddr: 0x100025FE4, symSize: 0x34 }
  - { offsetInCU: 0x584FA, offset: 0x584FA, size: 0x8, addend: 0x0, symName: __ZNSt3__13setIiNS_4lessIiEENS_9allocatorIiEEE6insertB8ue170006INS_21__tree_const_iteratorIiPNS_11__tree_nodeIiPvEElEEEEvT_SD_, symObjAddr: 0x22A4C, symBinAddr: 0x100026018, symSize: 0x80 }
  - { offsetInCU: 0x58564, offset: 0x58564, size: 0x8, addend: 0x0, symName: __ZNKSt3__13setIiNS_4lessIiEENS_9allocatorIiEEE5beginB8ue170006Ev, symObjAddr: 0x22ACC, symBinAddr: 0x100026098, symSize: 0x2C }
  - { offsetInCU: 0x5858A, offset: 0x5858A, size: 0x8, addend: 0x0, symName: __ZNKSt3__13setIiNS_4lessIiEENS_9allocatorIiEEE3endB8ue170006Ev, symObjAddr: 0x22AF8, symBinAddr: 0x1000260C4, symSize: 0x2C }
  - { offsetInCU: 0x585B0, offset: 0x585B0, size: 0x8, addend: 0x0, symName: __ZNSt3__16__treeIiNS_4lessIiEENS_9allocatorIiEEEC2ERKS5_, symObjAddr: 0x22B24, symBinAddr: 0x1000260F0, symSize: 0x9C }
  - { offsetInCU: 0x585EB, offset: 0x585EB, size: 0x8, addend: 0x0, symName: __ZNSt3__116allocator_traitsINS_9allocatorINS_11__tree_nodeIiPvEEEEE37select_on_container_copy_constructionB8ue170006IS5_vvEES5_RKS5_, symObjAddr: 0x22BC0, symBinAddr: 0x10002618C, symSize: 0x10 }
  - { offsetInCU: 0x5861A, offset: 0x5861A, size: 0x8, addend: 0x0, symName: __ZNKSt3__16__treeIiNS_4lessIiEENS_9allocatorIiEEE12__node_allocB8ue170006Ev, symObjAddr: 0x22BD0, symBinAddr: 0x10002619C, symSize: 0x28 }
  - { offsetInCU: 0x58646, offset: 0x58646, size: 0x8, addend: 0x0, symName: __ZNSt3__117__compressed_pairINS_15__tree_end_nodeIPNS_16__tree_node_baseIPvEEEENS_9allocatorINS_11__tree_nodeIiS3_EEEEEC1B8ue170006INS_18__default_init_tagESA_EEOT_OT0_, symObjAddr: 0x22BF8, symBinAddr: 0x1000261C4, symSize: 0x3C }
  - { offsetInCU: 0x5869E, offset: 0x5869E, size: 0x8, addend: 0x0, symName: __ZNKSt3__16__treeIiNS_4lessIiEENS_9allocatorIiEEE10value_compB8ue170006Ev, symObjAddr: 0x22C34, symBinAddr: 0x100026200, symSize: 0x28 }
  - { offsetInCU: 0x586C4, offset: 0x586C4, size: 0x8, addend: 0x0, symName: __ZNKSt3__117__compressed_pairINS_15__tree_end_nodeIPNS_16__tree_node_baseIPvEEEENS_9allocatorINS_11__tree_nodeIiS3_EEEEE6secondB8ue170006Ev, symObjAddr: 0x22C5C, symBinAddr: 0x100026228, symSize: 0x24 }
  - { offsetInCU: 0x586EA, offset: 0x586EA, size: 0x8, addend: 0x0, symName: __ZNKSt3__122__compressed_pair_elemINS_9allocatorINS_11__tree_nodeIiPvEEEELi1ELb1EE5__getB8ue170006Ev, symObjAddr: 0x22C80, symBinAddr: 0x10002624C, symSize: 0x14 }
  - { offsetInCU: 0x58710, offset: 0x58710, size: 0x8, addend: 0x0, symName: __ZNSt3__117__compressed_pairINS_15__tree_end_nodeIPNS_16__tree_node_baseIPvEEEENS_9allocatorINS_11__tree_nodeIiS3_EEEEEC2B8ue170006INS_18__default_init_tagESA_EEOT_OT0_, symObjAddr: 0x22C94, symBinAddr: 0x100026260, symSize: 0x40 }
  - { offsetInCU: 0x58768, offset: 0x58768, size: 0x8, addend: 0x0, symName: __ZNSt3__122__compressed_pair_elemINS_9allocatorINS_11__tree_nodeIiPvEEEELi1ELb1EEC2B8ue170006IS5_vEEOT_, symObjAddr: 0x22CD4, symBinAddr: 0x1000262A0, symSize: 0x18 }
  - { offsetInCU: 0x587AA, offset: 0x587AA, size: 0x8, addend: 0x0, symName: __ZNKSt3__117__compressed_pairImNS_4lessIiEEE6secondB8ue170006Ev, symObjAddr: 0x22CEC, symBinAddr: 0x1000262B8, symSize: 0x24 }
  - { offsetInCU: 0x587D0, offset: 0x587D0, size: 0x8, addend: 0x0, symName: __ZNKSt3__122__compressed_pair_elemINS_4lessIiEELi1ELb1EE5__getB8ue170006Ev, symObjAddr: 0x22D10, symBinAddr: 0x1000262DC, symSize: 0x14 }
  - { offsetInCU: 0x587F6, offset: 0x587F6, size: 0x8, addend: 0x0, symName: __ZNKSt3__13setIiNS_4lessIiEENS_9allocatorIiEEE4cendB8ue170006Ev, symObjAddr: 0x22D24, symBinAddr: 0x1000262F0, symSize: 0x2C }
  - { offsetInCU: 0x5881C, offset: 0x5881C, size: 0x8, addend: 0x0, symName: __ZNSt3__16__treeIiNS_4lessIiEENS_9allocatorIiEEE15__insert_uniqueB8ue170006ENS_21__tree_const_iteratorIiPNS_11__tree_nodeIiPvEElEERKi, symObjAddr: 0x22D84, symBinAddr: 0x100026350, symSize: 0x64 }
  - { offsetInCU: 0x58860, offset: 0x58860, size: 0x8, addend: 0x0, symName: __ZNKSt3__121__tree_const_iteratorIiPNS_11__tree_nodeIiPvEElEdeB8ue170006Ev, symObjAddr: 0x22DE8, symBinAddr: 0x1000263B4, symSize: 0x28 }
  - { offsetInCU: 0x58886, offset: 0x58886, size: 0x8, addend: 0x0, symName: __ZNSt3__121__tree_const_iteratorIiPNS_11__tree_nodeIiPvEElEppB8ue170006Ev, symObjAddr: 0x22E10, symBinAddr: 0x1000263DC, symSize: 0x38 }
  - { offsetInCU: 0x588AC, offset: 0x588AC, size: 0x8, addend: 0x0, symName: __ZNSt3__16__treeIiNS_4lessIiEENS_9allocatorIiEEE30__emplace_hint_unique_key_argsIiJRKiEEENS_4pairINS_15__tree_iteratorIiPNS_11__tree_nodeIiPvEElEEbEENS_21__tree_const_iteratorIiSE_lEERKT_DpOT0_, symObjAddr: 0x22E78, symBinAddr: 0x100026444, symSize: 0x104 }
  - { offsetInCU: 0x58978, offset: 0x58978, size: 0x8, addend: 0x0, symName: __ZNSt3__16__treeIiNS_4lessIiEENS_9allocatorIiEEE12__find_equalIiEERPNS_16__tree_node_baseIPvEENS_21__tree_const_iteratorIiPNS_11__tree_nodeIiS8_EElEERPNS_15__tree_end_nodeISA_EESB_RKT_, symObjAddr: 0x22F7C, symBinAddr: 0x100026548, symSize: 0x304 }
  - { offsetInCU: 0x58A21, offset: 0x58A21, size: 0x8, addend: 0x0, symName: __ZNSt3__16__treeIiNS_4lessIiEENS_9allocatorIiEEE3endB8ue170006Ev, symObjAddr: 0x23280, symBinAddr: 0x10002684C, symSize: 0x34 }
  - { offsetInCU: 0x58A47, offset: 0x58A47, size: 0x8, addend: 0x0, symName: __ZNSt3__16__treeIiNS_4lessIiEENS_9allocatorIiEEE5beginB8ue170006Ev, symObjAddr: 0x232B4, symBinAddr: 0x100026880, symSize: 0x34 }
  - { offsetInCU: 0x58A6D, offset: 0x58A6D, size: 0x8, addend: 0x0, symName: __ZNSt3__121__tree_const_iteratorIiPNS_11__tree_nodeIiPvEElEmmB8ue170006Ev, symObjAddr: 0x232E8, symBinAddr: 0x1000268B4, symSize: 0x38 }
  - { offsetInCU: 0x58A93, offset: 0x58A93, size: 0x8, addend: 0x0, symName: __ZNKSt3__121__tree_const_iteratorIiPNS_11__tree_nodeIiPvEElE8__get_npB8ue170006Ev, symObjAddr: 0x2335C, symBinAddr: 0x100026928, symSize: 0x18 }
  - { offsetInCU: 0x58AB9, offset: 0x58AB9, size: 0x8, addend: 0x0, symName: __ZNSt3__115__tree_iteratorIiPNS_11__tree_nodeIiPvEElEC1B8ue170006EPNS_15__tree_end_nodeIPNS_16__tree_node_baseIS2_EEEE, symObjAddr: 0x23374, symBinAddr: 0x100026940, symSize: 0x34 }
  - { offsetInCU: 0x58AF2, offset: 0x58AF2, size: 0x8, addend: 0x0, symName: __ZNSt3__115__tree_iteratorIiPNS_11__tree_nodeIiPvEElEC2B8ue170006EPNS_15__tree_end_nodeIPNS_16__tree_node_baseIS2_EEEE, symObjAddr: 0x233A8, symBinAddr: 0x100026974, symSize: 0x20 }
  - { offsetInCU: 0x58B2B, offset: 0x58B2B, size: 0x8, addend: 0x0, symName: __ZNKSt3__16__treeIiNS_4lessIiEENS_9allocatorIiEEE5beginB8ue170006Ev, symObjAddr: 0x234A4, symBinAddr: 0x100026A70, symSize: 0x34 }
  - { offsetInCU: 0x58B51, offset: 0x58B51, size: 0x8, addend: 0x0, symName: __ZNKSt3__16__treeIiNS_4lessIiEENS_9allocatorIiEEE12__begin_nodeB8ue170006Ev, symObjAddr: 0x234D8, symBinAddr: 0x100026AA4, symSize: 0x14 }
  - { offsetInCU: 0x58B77, offset: 0x58B77, size: 0x8, addend: 0x0, symName: __ZNSt3__121__tree_const_iteratorIiPNS_11__tree_nodeIiPvEElEC1B8ue170006EPNS_15__tree_end_nodeIPNS_16__tree_node_baseIS2_EEEE, symObjAddr: 0x234EC, symBinAddr: 0x100026AB8, symSize: 0x34 }
  - { offsetInCU: 0x58BB0, offset: 0x58BB0, size: 0x8, addend: 0x0, symName: __ZNSt3__121__tree_const_iteratorIiPNS_11__tree_nodeIiPvEElEC2B8ue170006EPNS_15__tree_end_nodeIPNS_16__tree_node_baseIS2_EEEE, symObjAddr: 0x23520, symBinAddr: 0x100026AEC, symSize: 0x20 }
  - { offsetInCU: 0x58BE9, offset: 0x58BE9, size: 0x8, addend: 0x0, symName: __ZNKSt3__16__treeIiNS_4lessIiEENS_9allocatorIiEEE3endB8ue170006Ev, symObjAddr: 0x23540, symBinAddr: 0x100026B0C, symSize: 0x34 }
  - { offsetInCU: 0x58C0F, offset: 0x58C0F, size: 0x8, addend: 0x0, symName: __ZNSt3__114__map_iteratorINS_15__tree_iteratorINS_12__value_typeIi4NodeEEPNS_11__tree_nodeIS4_PvEElEEEC2B8ue170006ES9_, symObjAddr: 0x23574, symBinAddr: 0x100026B40, symSize: 0x20 }
  - { offsetInCU: 0x58C48, offset: 0x58C48, size: 0x8, addend: 0x0, symName: __ZNSt3__120__map_const_iteratorINS_21__tree_const_iteratorINS_12__value_typeIi4NodeEEPNS_11__tree_nodeIS4_PvEElEEEC2B8ue170006ES9_, symObjAddr: 0x23594, symBinAddr: 0x100026B60, symSize: 0x20 }
  - { offsetInCU: 0x58C81, offset: 0x58C81, size: 0x8, addend: 0x0, symName: __ZNKSt3__121__tree_const_iteratorINS_12__value_typeIi4NodeEEPNS_11__tree_nodeIS3_PvEElEptB8ue170006Ev, symObjAddr: 0x235B4, symBinAddr: 0x100026B80, symSize: 0x2C }
  - { offsetInCU: 0x58CA7, offset: 0x58CA7, size: 0x8, addend: 0x0, symName: __ZNSt3__114pointer_traitsIPKNS_12__value_typeIi4NodeEEE10pointer_toB8ue170006ERS4_, symObjAddr: 0x235E0, symBinAddr: 0x100026BAC, symSize: 0x14 }
  - { offsetInCU: 0x58CCA, offset: 0x58CCA, size: 0x8, addend: 0x0, symName: __ZNKSt3__16__treeINS_12__value_typeIi4NodeEENS_19__map_value_compareIiS3_NS_4lessIiEELb1EEENS_9allocatorIS3_EEE5beginB8ue170006Ev, symObjAddr: 0x235F4, symBinAddr: 0x100026BC0, symSize: 0x34 }
  - { offsetInCU: 0x58CF0, offset: 0x58CF0, size: 0x8, addend: 0x0, symName: __ZNKSt3__16__treeINS_12__value_typeIi4NodeEENS_19__map_value_compareIiS3_NS_4lessIiEELb1EEENS_9allocatorIS3_EEE12__begin_nodeB8ue170006Ev, symObjAddr: 0x23628, symBinAddr: 0x100026BF4, symSize: 0x14 }
  - { offsetInCU: 0x58D16, offset: 0x58D16, size: 0x8, addend: 0x0, symName: __ZNSt3__121__tree_const_iteratorINS_12__value_typeIi4NodeEEPNS_11__tree_nodeIS3_PvEElEC1B8ue170006EPNS_15__tree_end_nodeIPNS_16__tree_node_baseIS5_EEEE, symObjAddr: 0x2363C, symBinAddr: 0x100026C08, symSize: 0x34 }
  - { offsetInCU: 0x58D4F, offset: 0x58D4F, size: 0x8, addend: 0x0, symName: __ZNSt3__121__tree_const_iteratorINS_12__value_typeIi4NodeEEPNS_11__tree_nodeIS3_PvEElEC2B8ue170006EPNS_15__tree_end_nodeIPNS_16__tree_node_baseIS5_EEEE, symObjAddr: 0x23670, symBinAddr: 0x100026C3C, symSize: 0x20 }
  - { offsetInCU: 0x58D88, offset: 0x58D88, size: 0x8, addend: 0x0, symName: __ZNKSt3__16__treeINS_12__value_typeIi4NodeEENS_19__map_value_compareIiS3_NS_4lessIiEELb1EEENS_9allocatorIS3_EEE3endB8ue170006Ev, symObjAddr: 0x23690, symBinAddr: 0x100026C5C, symSize: 0x34 }
  - { offsetInCU: 0x58DAE, offset: 0x58DAE, size: 0x8, addend: 0x0, symName: __ZNSt3__16vectorI4NodeNS_9allocatorIS1_EEEC2ERKS4_, symObjAddr: 0x236C4, symBinAddr: 0x100026C90, symSize: 0x94 }
  - { offsetInCU: 0x58DF4, offset: 0x58DF4, size: 0x8, addend: 0x0, symName: __ZNSt3__116allocator_traitsINS_9allocatorI4NodeEEE37select_on_container_copy_constructionB8ue170006IS3_vvEES3_RKS3_, symObjAddr: 0x23758, symBinAddr: 0x100026D24, symSize: 0x10 }
  - { offsetInCU: 0x58E23, offset: 0x58E23, size: 0x8, addend: 0x0, symName: __ZNKSt3__16vectorI4NodeNS_9allocatorIS1_EEE7__allocB8ue170006Ev, symObjAddr: 0x23768, symBinAddr: 0x100026D34, symSize: 0x28 }
  - { offsetInCU: 0x58E4F, offset: 0x58E4F, size: 0x8, addend: 0x0, symName: __ZNSt3__117__compressed_pairIP4NodeNS_9allocatorIS1_EEEC1B8ue170006IDnS4_EEOT_OT0_, symObjAddr: 0x23790, symBinAddr: 0x100026D5C, symSize: 0x3C }
  - { offsetInCU: 0x58EA7, offset: 0x58EA7, size: 0x8, addend: 0x0, symName: __ZNSt3__16vectorI4NodeNS_9allocatorIS1_EEE16__init_with_sizeB8ue170006IPS1_S6_EEvT_T0_m, symObjAddr: 0x237CC, symBinAddr: 0x100026D98, symSize: 0xB8 }
  - { offsetInCU: 0x58F1B, offset: 0x58F1B, size: 0x8, addend: 0x0, symName: __ZNKSt3__117__compressed_pairIP4NodeNS_9allocatorIS1_EEE6secondB8ue170006Ev, symObjAddr: 0x23884, symBinAddr: 0x100026E50, symSize: 0x24 }
  - { offsetInCU: 0x58F41, offset: 0x58F41, size: 0x8, addend: 0x0, symName: __ZNKSt3__122__compressed_pair_elemINS_9allocatorI4NodeEELi1ELb1EE5__getB8ue170006Ev, symObjAddr: 0x238A8, symBinAddr: 0x100026E74, symSize: 0x14 }
  - { offsetInCU: 0x58F67, offset: 0x58F67, size: 0x8, addend: 0x0, symName: __ZNSt3__117__compressed_pairIP4NodeNS_9allocatorIS1_EEEC2B8ue170006IDnS4_EEOT_OT0_, symObjAddr: 0x238BC, symBinAddr: 0x100026E88, symSize: 0x44 }
  - { offsetInCU: 0x58FBF, offset: 0x58FBF, size: 0x8, addend: 0x0, symName: __ZNSt3__122__compressed_pair_elemINS_9allocatorI4NodeEELi1ELb1EEC2B8ue170006IS3_vEEOT_, symObjAddr: 0x23900, symBinAddr: 0x100026ECC, symSize: 0x18 }
  - { offsetInCU: 0x59001, offset: 0x59001, size: 0x8, addend: 0x0, symName: __ZNSt3__16vectorI4NodeNS_9allocatorIS1_EEE11__vallocateB8ue170006Em, symObjAddr: 0x23958, symBinAddr: 0x100026F24, symSize: 0xAC }
  - { offsetInCU: 0x59045, offset: 0x59045, size: 0x8, addend: 0x0, symName: __ZNSt3__16vectorI4NodeNS_9allocatorIS1_EEE18__construct_at_endIPS1_S6_EEvT_T0_m, symObjAddr: 0x23A04, symBinAddr: 0x100026FD0, symSize: 0x8C }
  - { offsetInCU: 0x590BB, offset: 0x590BB, size: 0x8, addend: 0x0, symName: __ZNSt3__128__exception_guard_exceptionsINS_6vectorI4NodeNS_9allocatorIS2_EEE16__destroy_vectorEE10__completeB8ue170006Ev, symObjAddr: 0x23A90, symBinAddr: 0x10002705C, symSize: 0x1C }
  - { offsetInCU: 0x590E1, offset: 0x590E1, size: 0x8, addend: 0x0, symName: __ZNSt3__128__exception_guard_exceptionsINS_6vectorI4NodeNS_9allocatorIS2_EEE16__destroy_vectorEED1B8ue170006Ev, symObjAddr: 0x23AAC, symBinAddr: 0x100027078, symSize: 0x2C }
  - { offsetInCU: 0x5910B, offset: 0x5910B, size: 0x8, addend: 0x0, symName: __ZNSt3__128__exception_guard_exceptionsINS_6vectorI4NodeNS_9allocatorIS2_EEE16__destroy_vectorEEC1B8ue170006ES6_, symObjAddr: 0x23AD8, symBinAddr: 0x1000270A4, symSize: 0x34 }
  - { offsetInCU: 0x59143, offset: 0x59143, size: 0x8, addend: 0x0, symName: __ZNSt3__128__exception_guard_exceptionsINS_6vectorI4NodeNS_9allocatorIS2_EEE16__destroy_vectorEEC2B8ue170006ES6_, symObjAddr: 0x23B0C, symBinAddr: 0x1000270D8, symSize: 0x24 }
  - { offsetInCU: 0x5917B, offset: 0x5917B, size: 0x8, addend: 0x0, symName: __ZNKSt3__16vectorI4NodeNS_9allocatorIS1_EEE8max_sizeEv, symObjAddr: 0x23B30, symBinAddr: 0x1000270FC, symSize: 0x60 }
  - { offsetInCU: 0x591A3, offset: 0x591A3, size: 0x8, addend: 0x0, symName: __ZNKSt3__16vectorI4NodeNS_9allocatorIS1_EEE20__throw_length_errorB8ue170006Ev, symObjAddr: 0x23B90, symBinAddr: 0x10002715C, symSize: 0x1C }
  - { offsetInCU: 0x591C9, offset: 0x591C9, size: 0x8, addend: 0x0, symName: __ZNSt3__16vectorI4NodeNS_9allocatorIS1_EEE9__end_capB8ue170006Ev, symObjAddr: 0x23BEC, symBinAddr: 0x1000271B8, symSize: 0x28 }
  - { offsetInCU: 0x591EF, offset: 0x591EF, size: 0x8, addend: 0x0, symName: __ZNKSt3__16vectorI4NodeNS_9allocatorIS1_EEE14__annotate_newB8ue170006Em, symObjAddr: 0x23C14, symBinAddr: 0x1000271E0, symSize: 0xAC }
  - { offsetInCU: 0x59224, offset: 0x59224, size: 0x8, addend: 0x0, symName: __ZNSt3__116allocator_traitsINS_9allocatorI4NodeEEE8max_sizeB8ue170006IS3_vEEmRKS3_, symObjAddr: 0x23CC0, symBinAddr: 0x10002728C, symSize: 0x24 }
  - { offsetInCU: 0x59252, offset: 0x59252, size: 0x8, addend: 0x0, symName: __ZNKSt3__19allocatorI4NodeE8max_sizeB8ue170006Ev, symObjAddr: 0x23CE4, symBinAddr: 0x1000272B0, symSize: 0x14 }
  - { offsetInCU: 0x59278, offset: 0x59278, size: 0x8, addend: 0x0, symName: __ZNSt3__19allocatorI4NodeE8allocateB8ue170006Em, symObjAddr: 0x23CF8, symBinAddr: 0x1000272C4, symSize: 0x58 }
  - { offsetInCU: 0x592AC, offset: 0x592AC, size: 0x8, addend: 0x0, symName: __ZNSt3__117__compressed_pairIP4NodeNS_9allocatorIS1_EEE5firstB8ue170006Ev, symObjAddr: 0x23D50, symBinAddr: 0x10002731C, symSize: 0x24 }
  - { offsetInCU: 0x592D2, offset: 0x592D2, size: 0x8, addend: 0x0, symName: __ZNSt3__122__compressed_pair_elemIP4NodeLi0ELb0EE5__getB8ue170006Ev, symObjAddr: 0x23D74, symBinAddr: 0x100027340, symSize: 0x14 }
  - { offsetInCU: 0x59314, offset: 0x59314, size: 0x8, addend: 0x0, symName: __ZNSt3__16vectorI4NodeNS_9allocatorIS1_EEE21_ConstructTransactionC1B8ue170006ERS4_m, symObjAddr: 0x23D88, symBinAddr: 0x100027354, symSize: 0x3C }
  - { offsetInCU: 0x5935C, offset: 0x5935C, size: 0x8, addend: 0x0, symName: __ZNSt3__16vectorI4NodeNS_9allocatorIS1_EEE21_ConstructTransactionD1B8ue170006Ev, symObjAddr: 0x23E44, symBinAddr: 0x100027410, symSize: 0x2C }
  - { offsetInCU: 0x59386, offset: 0x59386, size: 0x8, addend: 0x0, symName: __ZNSt3__16vectorI4NodeNS_9allocatorIS1_EEE21_ConstructTransactionC2B8ue170006ERS4_m, symObjAddr: 0x23E70, symBinAddr: 0x10002743C, symSize: 0x44 }
  - { offsetInCU: 0x593F1, offset: 0x593F1, size: 0x8, addend: 0x0, symName: __ZNSt3__14pairIP4NodeS2_EC1B8ue170006IS2_S2_LPv0EEEOT_OT0_, symObjAddr: 0x240A0, symBinAddr: 0x10002766C, symSize: 0x3C }
  - { offsetInCU: 0x5944F, offset: 0x5944F, size: 0x8, addend: 0x0, symName: __ZNSt3__14pairIP4NodeS2_EC2B8ue170006IS2_S2_LPv0EEEOT_OT0_, symObjAddr: 0x240DC, symBinAddr: 0x1000276A8, symSize: 0x34 }
  - { offsetInCU: 0x594AD, offset: 0x594AD, size: 0x8, addend: 0x0, symName: __ZNSt3__129_AllocatorDestroyRangeReverseINS_9allocatorI4NodeEEPS2_EC1B8ue170006ERS3_RS4_S7_, symObjAddr: 0x2415C, symBinAddr: 0x100027728, symSize: 0x44 }
  - { offsetInCU: 0x59504, offset: 0x59504, size: 0x8, addend: 0x0, symName: __ZNSt3__116allocator_traitsINS_9allocatorI4NodeEEE9constructB8ue170006IS2_JRS2_EvEEvRS3_PT_DpOT0_, symObjAddr: 0x241A0, symBinAddr: 0x10002776C, symSize: 0x34 }
  - { offsetInCU: 0x5955B, offset: 0x5955B, size: 0x8, addend: 0x0, symName: __ZNSt3__128__exception_guard_exceptionsINS_29_AllocatorDestroyRangeReverseINS_9allocatorI4NodeEEPS3_EEE10__completeB8ue170006Ev, symObjAddr: 0x241D4, symBinAddr: 0x1000277A0, symSize: 0x1C }
  - { offsetInCU: 0x59581, offset: 0x59581, size: 0x8, addend: 0x0, symName: __ZNSt3__128__exception_guard_exceptionsINS_29_AllocatorDestroyRangeReverseINS_9allocatorI4NodeEEPS3_EEED1B8ue170006Ev, symObjAddr: 0x241F0, symBinAddr: 0x1000277BC, symSize: 0x2C }
  - { offsetInCU: 0x595AB, offset: 0x595AB, size: 0x8, addend: 0x0, symName: __ZNSt3__128__exception_guard_exceptionsINS_29_AllocatorDestroyRangeReverseINS_9allocatorI4NodeEEPS3_EEEC1B8ue170006ES6_, symObjAddr: 0x2421C, symBinAddr: 0x1000277E8, symSize: 0x34 }
  - { offsetInCU: 0x595E4, offset: 0x595E4, size: 0x8, addend: 0x0, symName: __ZNSt3__128__exception_guard_exceptionsINS_29_AllocatorDestroyRangeReverseINS_9allocatorI4NodeEEPS3_EEEC2B8ue170006ES6_, symObjAddr: 0x24250, symBinAddr: 0x10002781C, symSize: 0x30 }
  - { offsetInCU: 0x5961D, offset: 0x5961D, size: 0x8, addend: 0x0, symName: __ZNSt3__129_AllocatorDestroyRangeReverseINS_9allocatorI4NodeEEPS2_EC2B8ue170006ERS3_RS4_S7_, symObjAddr: 0x24280, symBinAddr: 0x10002784C, symSize: 0x38 }
  - { offsetInCU: 0x59674, offset: 0x59674, size: 0x8, addend: 0x0, symName: __ZNSt3__19allocatorI4NodeE9constructB8ue170006IS1_JRS1_EEEvPT_DpOT0_, symObjAddr: 0x242B8, symBinAddr: 0x100027884, symSize: 0x30 }
  - { offsetInCU: 0x596CA, offset: 0x596CA, size: 0x8, addend: 0x0, symName: __ZNSt3__128__exception_guard_exceptionsINS_29_AllocatorDestroyRangeReverseINS_9allocatorI4NodeEEPS3_EEED2B8ue170006Ev, symObjAddr: 0x242E8, symBinAddr: 0x1000278B4, symSize: 0x50 }
  - { offsetInCU: 0x596F4, offset: 0x596F4, size: 0x8, addend: 0x0, symName: __ZNKSt3__129_AllocatorDestroyRangeReverseINS_9allocatorI4NodeEEPS2_EclB8ue170006Ev, symObjAddr: 0x24338, symBinAddr: 0x100027904, symSize: 0x68 }
  - { offsetInCU: 0x5971A, offset: 0x5971A, size: 0x8, addend: 0x0, symName: __ZNSt3__116reverse_iteratorIP4NodeEC1B8ue170006ES2_, symObjAddr: 0x24410, symBinAddr: 0x1000279DC, symSize: 0x34 }
  - { offsetInCU: 0x59752, offset: 0x59752, size: 0x8, addend: 0x0, symName: __ZNSt3__116reverse_iteratorIP4NodeEppB8ue170006Ev, symObjAddr: 0x244B0, symBinAddr: 0x100027A7C, symSize: 0x20 }
  - { offsetInCU: 0x59778, offset: 0x59778, size: 0x8, addend: 0x0, symName: __ZNKSt3__116reverse_iteratorIP4NodeE4baseB8ue170006Ev, symObjAddr: 0x244D0, symBinAddr: 0x100027A9C, symSize: 0x18 }
  - { offsetInCU: 0x597A4, offset: 0x597A4, size: 0x8, addend: 0x0, symName: __ZNSt3__119__to_address_helperINS_16reverse_iteratorIP4NodeEEvE6__callB8ue170006ERKS4_, symObjAddr: 0x244E8, symBinAddr: 0x100027AB4, symSize: 0x38 }
  - { offsetInCU: 0x597C7, offset: 0x597C7, size: 0x8, addend: 0x0, symName: __ZNKSt3__116reverse_iteratorIP4NodeEptB8ue170006Ev, symObjAddr: 0x24520, symBinAddr: 0x100027AEC, symSize: 0x24 }
  - { offsetInCU: 0x597ED, offset: 0x597ED, size: 0x8, addend: 0x0, symName: __ZNKSt3__116reverse_iteratorIP4NodeEdeB8ue170006Ev, symObjAddr: 0x24544, symBinAddr: 0x100027B10, symSize: 0x28 }
  - { offsetInCU: 0x59821, offset: 0x59821, size: 0x8, addend: 0x0, symName: __ZNSt3__116reverse_iteratorIP4NodeEC2B8ue170006ES2_, symObjAddr: 0x2456C, symBinAddr: 0x100027B38, symSize: 0x28 }
  - { offsetInCU: 0x59859, offset: 0x59859, size: 0x8, addend: 0x0, symName: __ZNSt3__118__unwrap_iter_implIP4NodeLb1EE8__unwrapB8ue170006ES2_, symObjAddr: 0x24594, symBinAddr: 0x100027B60, symSize: 0x24 }
  - { offsetInCU: 0x5987C, offset: 0x5987C, size: 0x8, addend: 0x0, symName: __ZNSt3__118__unwrap_iter_implIP4NodeLb1EE8__rewrapB8ue170006ES2_S2_, symObjAddr: 0x245B8, symBinAddr: 0x100027B84, symSize: 0x50 }
  - { offsetInCU: 0x598AD, offset: 0x598AD, size: 0x8, addend: 0x0, symName: __ZNSt3__16vectorI4NodeNS_9allocatorIS1_EEE21_ConstructTransactionD2B8ue170006Ev, symObjAddr: 0x24608, symBinAddr: 0x100027BD4, symSize: 0x20 }
  - { offsetInCU: 0x598D7, offset: 0x598D7, size: 0x8, addend: 0x0, symName: __ZNSt3__128__exception_guard_exceptionsINS_6vectorI4NodeNS_9allocatorIS2_EEE16__destroy_vectorEED2B8ue170006Ev, symObjAddr: 0x24628, symBinAddr: 0x100027BF4, symSize: 0x48 }
  - { offsetInCU: 0x59901, offset: 0x59901, size: 0x8, addend: 0x0, symName: __ZNSt3__13mapIi4NodeNS_4lessIiEENS_9allocatorINS_4pairIKiS1_EEEEE5beginB8ue170006Ev, symObjAddr: 0x24670, symBinAddr: 0x100027C3C, symSize: 0x38 }
  - { offsetInCU: 0x59927, offset: 0x59927, size: 0x8, addend: 0x0, symName: __ZNSt3__13mapIi4NodeNS_4lessIiEENS_9allocatorINS_4pairIKiS1_EEEEE3endB8ue170006Ev, symObjAddr: 0x246A8, symBinAddr: 0x100027C74, symSize: 0x38 }
  - { offsetInCU: 0x5994D, offset: 0x5994D, size: 0x8, addend: 0x0, symName: __ZNKSt3__114__map_iteratorINS_15__tree_iteratorINS_12__value_typeIi4NodeEEPNS_11__tree_nodeIS4_PvEElEEEdeB8ue170006Ev, symObjAddr: 0x24710, symBinAddr: 0x100027CDC, symSize: 0x28 }
  - { offsetInCU: 0x59973, offset: 0x59973, size: 0x8, addend: 0x0, symName: __ZN4Node8toStringEv, symObjAddr: 0x24738, symBinAddr: 0x100027D04, symSize: 0x170 }
  - { offsetInCU: 0x599BD, offset: 0x599BD, size: 0x8, addend: 0x0, symName: __ZNSt3__114__map_iteratorINS_15__tree_iteratorINS_12__value_typeIi4NodeEEPNS_11__tree_nodeIS4_PvEElEEEppB8ue170006Ev, symObjAddr: 0x248A8, symBinAddr: 0x100027E74, symSize: 0x2C }
  - { offsetInCU: 0x599E3, offset: 0x599E3, size: 0x8, addend: 0x0, symName: __ZNSt3__13setIiNS_4lessIiEENS_9allocatorIiEEE5beginB8ue170006Ev, symObjAddr: 0x24938, symBinAddr: 0x100027F04, symSize: 0x38 }
  - { offsetInCU: 0x59A09, offset: 0x59A09, size: 0x8, addend: 0x0, symName: __ZNSt3__13setIiNS_4lessIiEENS_9allocatorIiEEE3endB8ue170006Ev, symObjAddr: 0x24970, symBinAddr: 0x100027F3C, symSize: 0x38 }
  - { offsetInCU: 0x59A2F, offset: 0x59A2F, size: 0x8, addend: 0x0, symName: __ZNSt3__115__tree_iteratorINS_12__value_typeIi4NodeEEPNS_11__tree_nodeIS3_PvEElEppB8ue170006Ev, symObjAddr: 0x249A8, symBinAddr: 0x100027F74, symSize: 0x38 }
  - { offsetInCU: 0x59A55, offset: 0x59A55, size: 0x8, addend: 0x0, symName: __ZN4Node10setVisitedEb, symObjAddr: 0x249E0, symBinAddr: 0x100027FAC, symSize: 0x2C }
  - { offsetInCU: 0x59A89, offset: 0x59A89, size: 0x8, addend: 0x0, symName: __ZN4Node7visitedEv, symObjAddr: 0x24A0C, symBinAddr: 0x100027FD8, symSize: 0x1C }
  - { offsetInCU: 0x59AAF, offset: 0x59AAF, size: 0x8, addend: 0x0, symName: __ZN5Graph5doDfsER4Nodei, symObjAddr: 0x24A28, symBinAddr: 0x100027FF4, symSize: 0x140 }
  - { offsetInCU: 0x59B3B, offset: 0x59B3B, size: 0x8, addend: 0x0, symName: __ZN4Node8getEdgesEv, symObjAddr: 0x24B68, symBinAddr: 0x100028134, symSize: 0x38 }
  - { offsetInCU: 0x59B61, offset: 0x59B61, size: 0x8, addend: 0x0, symName: __ZNSt3__15stackIiNS_5dequeIiNS_9allocatorIiEEEEE4pushB8ue170006ERKi, symObjAddr: 0x24BA0, symBinAddr: 0x10002816C, symSize: 0x2C }
  - { offsetInCU: 0x59B96, offset: 0x59B96, size: 0x8, addend: 0x0, symName: __ZNSt3__15dequeIiNS_9allocatorIiEEE9push_backERKi, symObjAddr: 0x24BCC, symBinAddr: 0x100028198, symSize: 0xAC }
  - { offsetInCU: 0x59BDC, offset: 0x59BDC, size: 0x8, addend: 0x0, symName: __ZNSt3__15dequeIiNS_9allocatorIiEEE7__allocB8ue170006Ev, symObjAddr: 0x24C78, symBinAddr: 0x100028244, symSize: 0x28 }
  - { offsetInCU: 0x59C02, offset: 0x59C02, size: 0x8, addend: 0x0, symName: __ZNKSt3__15dequeIiNS_9allocatorIiEEE12__back_spareB8ue170006Ev, symObjAddr: 0x24CA0, symBinAddr: 0x10002826C, symSize: 0x54 }
  - { offsetInCU: 0x59C28, offset: 0x59C28, size: 0x8, addend: 0x0, symName: __ZNSt3__15dequeIiNS_9allocatorIiEEE19__add_back_capacityEv, symObjAddr: 0x24CF4, symBinAddr: 0x1000282C0, symSize: 0x34C }
  - { offsetInCU: 0x59CDD, offset: 0x59CDD, size: 0x8, addend: 0x0, symName: __ZNKSt3__15dequeIiNS_9allocatorIiEEE24__annotate_increase_backB8ue170006Em, symObjAddr: 0x25040, symBinAddr: 0x10002860C, symSize: 0x7C }
  - { offsetInCU: 0x59D12, offset: 0x59D12, size: 0x8, addend: 0x0, symName: __ZNSt3__116allocator_traitsINS_9allocatorIiEEE9constructB8ue170006IiJRKiEvEEvRS2_PT_DpOT0_, symObjAddr: 0x250BC, symBinAddr: 0x100028688, symSize: 0x34 }
  - { offsetInCU: 0x59D69, offset: 0x59D69, size: 0x8, addend: 0x0, symName: __ZNSt3__15dequeIiNS_9allocatorIiEEE3endB8ue170006Ev, symObjAddr: 0x250F0, symBinAddr: 0x1000286BC, symSize: 0xCC }
  - { offsetInCU: 0x59DAD, offset: 0x59DAD, size: 0x8, addend: 0x0, symName: __ZNKSt3__116__deque_iteratorIiPiRiPS1_lLl1024EEdeB8ue170006Ev, symObjAddr: 0x251BC, symBinAddr: 0x100028788, symSize: 0x18 }
  - { offsetInCU: 0x59DD3, offset: 0x59DD3, size: 0x8, addend: 0x0, symName: __ZNSt3__15dequeIiNS_9allocatorIiEEE6__sizeB8ue170006Ev, symObjAddr: 0x251D4, symBinAddr: 0x1000287A0, symSize: 0x28 }
  - { offsetInCU: 0x59DF9, offset: 0x59DF9, size: 0x8, addend: 0x0, symName: __ZNSt3__117__compressed_pairImNS_9allocatorIiEEE6secondB8ue170006Ev, symObjAddr: 0x251FC, symBinAddr: 0x1000287C8, symSize: 0x24 }
  - { offsetInCU: 0x59E1F, offset: 0x59E1F, size: 0x8, addend: 0x0, symName: __ZNSt3__122__compressed_pair_elemINS_9allocatorIiEELi1ELb1EE5__getB8ue170006Ev, symObjAddr: 0x25220, symBinAddr: 0x1000287EC, symSize: 0x14 }
  - { offsetInCU: 0x59E45, offset: 0x59E45, size: 0x8, addend: 0x0, symName: __ZNKSt3__15dequeIiNS_9allocatorIiEEE10__capacityB8ue170006Ev, symObjAddr: 0x25234, symBinAddr: 0x100028800, symSize: 0x60 }
  - { offsetInCU: 0x59E6B, offset: 0x59E6B, size: 0x8, addend: 0x0, symName: __ZNKSt3__15dequeIiNS_9allocatorIiEEE13__front_spareB8ue170006Ev, symObjAddr: 0x25294, symBinAddr: 0x100028860, symSize: 0x18 }
  - { offsetInCU: 0x59E91, offset: 0x59E91, size: 0x8, addend: 0x0, symName: __ZNSt3__114__split_bufferIPiNS_9allocatorIS1_EEE5frontB8ue170006Ev, symObjAddr: 0x252AC, symBinAddr: 0x100028878, symSize: 0x18 }
  - { offsetInCU: 0x59EB7, offset: 0x59EB7, size: 0x8, addend: 0x0, symName: __ZNSt3__114__split_bufferIPiNS_9allocatorIS1_EEE9pop_frontB8ue170006Ev, symObjAddr: 0x252C4, symBinAddr: 0x100028890, symSize: 0x2C }
  - { offsetInCU: 0x59EDD, offset: 0x59EDD, size: 0x8, addend: 0x0, symName: __ZNSt3__114__split_bufferIPiNS_9allocatorIS1_EEE9push_backB8ue170006ERKS1_, symObjAddr: 0x252F0, symBinAddr: 0x1000288BC, symSize: 0x260 }
  - { offsetInCU: 0x59F55, offset: 0x59F55, size: 0x8, addend: 0x0, symName: __ZNKSt3__114__split_bufferIPiNS_9allocatorIS1_EEE8capacityB8ue170006Ev, symObjAddr: 0x25550, symBinAddr: 0x100028B1C, symSize: 0x40 }
  - { offsetInCU: 0x59F7B, offset: 0x59F7B, size: 0x8, addend: 0x0, symName: __ZNKSt3__114__split_bufferIPiNS_9allocatorIS1_EEE12__back_spareB8ue170006Ev, symObjAddr: 0x25590, symBinAddr: 0x100028B5C, symSize: 0x40 }
  - { offsetInCU: 0x59FA1, offset: 0x59FA1, size: 0x8, addend: 0x0, symName: __ZNSt3__114__split_bufferIPiNS_9allocatorIS1_EEE9push_backEOS1_, symObjAddr: 0x255D0, symBinAddr: 0x100028B9C, symSize: 0x260 }
  - { offsetInCU: 0x5A019, offset: 0x5A019, size: 0x8, addend: 0x0, symName: __ZNSt3__116allocator_traitsINS_9allocatorIiEEE8allocateB8ue170006ERS2_m, symObjAddr: 0x25830, symBinAddr: 0x100028DFC, symSize: 0x2C }
  - { offsetInCU: 0x5A04C, offset: 0x5A04C, size: 0x8, addend: 0x0, symName: __ZNSt3__114__split_bufferIPiNS_9allocatorIS1_EEE10push_frontEOS1_, symObjAddr: 0x2585C, symBinAddr: 0x100028E28, symSize: 0x25C }
  - { offsetInCU: 0x5A0C4, offset: 0x5A0C4, size: 0x8, addend: 0x0, symName: __ZNKSt3__15dequeIiNS_9allocatorIiEEE22__annotate_whole_blockB8ue170006EmNS3_22__asan_annotation_typeE, symObjAddr: 0x25AB8, symBinAddr: 0x100029084, symSize: 0xAC }
  - { offsetInCU: 0x5A135, offset: 0x5A135, size: 0x8, addend: 0x0, symName: __ZNSt3__114__split_bufferIPiNS_9allocatorIS1_EEE7__allocB8ue170006Ev, symObjAddr: 0x25B64, symBinAddr: 0x100029130, symSize: 0x28 }
  - { offsetInCU: 0x5A15B, offset: 0x5A15B, size: 0x8, addend: 0x0, symName: __ZNSt3__114__split_bufferIPiRNS_9allocatorIS1_EEEC1EmmS4_, symObjAddr: 0x25B8C, symBinAddr: 0x100029158, symSize: 0x44 }
  - { offsetInCU: 0x5A1B7, offset: 0x5A1B7, size: 0x8, addend: 0x0, symName: __ZNSt3__122__allocator_destructorINS_9allocatorIiEEEC1B8ue170006ERS2_m, symObjAddr: 0x25BD0, symBinAddr: 0x10002919C, symSize: 0x3C }
  - { offsetInCU: 0x5A28D, offset: 0x5A28D, size: 0x8, addend: 0x0, symName: __ZNSt3__110unique_ptrIPiNS_22__allocator_destructorINS_9allocatorIiEEEEEC1B8ue170006ILb1EvEES1_NS_16__dependent_typeINS_27__unique_ptr_deleter_sfinaeIS5_EEXT_EE20__good_rval_ref_typeE, symObjAddr: 0x25C0C, symBinAddr: 0x1000291D8, symSize: 0x3C }
  - { offsetInCU: 0x5A2DE, offset: 0x5A2DE, size: 0x8, addend: 0x0, symName: __ZNSt3__114__split_bufferIPiRNS_9allocatorIS1_EEE9push_backEOS1_, symObjAddr: 0x25C48, symBinAddr: 0x100029214, symSize: 0x260 }
  - { offsetInCU: 0x5A356, offset: 0x5A356, size: 0x8, addend: 0x0, symName: __ZNKSt3__110unique_ptrIPiNS_22__allocator_destructorINS_9allocatorIiEEEEE3getB8ue170006Ev, symObjAddr: 0x25EA8, symBinAddr: 0x100029474, symSize: 0x28 }
  - { offsetInCU: 0x5A37C, offset: 0x5A37C, size: 0x8, addend: 0x0, symName: __ZNSt3__110unique_ptrIPiNS_22__allocator_destructorINS_9allocatorIiEEEEE7releaseB8ue170006Ev, symObjAddr: 0x25ED0, symBinAddr: 0x10002949C, symSize: 0x44 }
  - { offsetInCU: 0x5A3B1, offset: 0x5A3B1, size: 0x8, addend: 0x0, symName: __ZNSt3__114__split_bufferIPiNS_9allocatorIS1_EEE3endB8ue170006Ev, symObjAddr: 0x25F14, symBinAddr: 0x1000294E0, symSize: 0x18 }
  - { offsetInCU: 0x5A3D7, offset: 0x5A3D7, size: 0x8, addend: 0x0, symName: __ZNSt3__114__split_bufferIPiNS_9allocatorIS1_EEE5beginB8ue170006Ev, symObjAddr: 0x25F2C, symBinAddr: 0x1000294F8, symSize: 0x18 }
  - { offsetInCU: 0x5A3FD, offset: 0x5A3FD, size: 0x8, addend: 0x0, symName: __ZNSt3__114__split_bufferIPiRNS_9allocatorIS1_EEE10push_frontERKS1_, symObjAddr: 0x25F44, symBinAddr: 0x100029510, symSize: 0x25C }
  - { offsetInCU: 0x5A475, offset: 0x5A475, size: 0x8, addend: 0x0, symName: __ZNSt3__114__split_bufferIPiNS_9allocatorIS1_EEE9__end_capB8ue170006Ev, symObjAddr: 0x261DC, symBinAddr: 0x1000297A8, symSize: 0x28 }
  - { offsetInCU: 0x5A49B, offset: 0x5A49B, size: 0x8, addend: 0x0, symName: __ZNSt3__114__split_bufferIPiRNS_9allocatorIS1_EEE9__end_capB8ue170006Ev, symObjAddr: 0x26204, symBinAddr: 0x1000297D0, symSize: 0x28 }
  - { offsetInCU: 0x5A4C1, offset: 0x5A4C1, size: 0x8, addend: 0x0, symName: __ZNSt3__110unique_ptrIPiNS_22__allocator_destructorINS_9allocatorIiEEEEED1B8ue170006Ev, symObjAddr: 0x2622C, symBinAddr: 0x1000297F8, symSize: 0x2C }
  - { offsetInCU: 0x5A4EB, offset: 0x5A4EB, size: 0x8, addend: 0x0, symName: __ZNSt3__114__split_bufferIPiRNS_9allocatorIS1_EEED1Ev, symObjAddr: 0x26258, symBinAddr: 0x100029824, symSize: 0x2C }
